
SteppingMD_on_BaseBoard.elf:     file format elf32-littlearm

Sections:
Idx Name          Size      VMA       LMA       File off  Algn
  0 .isr_vector   0000010c  08000000  08000000  00010000  2**0
                  CONTENTS, ALLOC, LOAD, READONLY, DATA
  1 .text         00006e7c  08000110  08000110  00010110  2**3
                  CONTENTS, ALLOC, LOAD, READONLY, CODE
  2 .rodata       000006b0  08006f8c  08006f8c  00016f8c  2**2
                  CONTENTS, ALLOC, LOAD, READONLY, DATA
  3 .ARM.extab    00000184  0800763c  0800763c  0001763c  2**2
                  CONTENTS, ALLOC, LOAD, READONLY, DATA
  4 .ARM          00000260  080077c0  080077c0  000177c0  2**2
                  CONTENTS, ALLOC, LOAD, READONLY, DATA
  5 .preinit_array 00000000  08007a20  08007a20  0002007c  2**0
                  CONTENTS, ALLOC, LOAD, DATA
  6 .init_array   00000014  08007a20  08007a20  00017a20  2**2
                  CONTENTS, ALLOC, LOAD, DATA
  7 .fini_array   00000010  08007a34  08007a34  00017a34  2**2
                  CONTENTS, ALLOC, LOAD, DATA
  8 .data         0000007c  20000000  08007a44  00020000  2**2
                  CONTENTS, ALLOC, LOAD, DATA
  9 .bss          000003d4  2000007c  08007ac0  0002007c  2**2
                  ALLOC
 10 ._user_heap_stack 00000600  20000450  08007ac0  00020450  2**0
                  ALLOC
 11 .ARM.attributes 00000029  00000000  00000000  0002007c  2**0
                  CONTENTS, READONLY
 12 .debug_info   0007af69  00000000  00000000  000200a5  2**0
                  CONTENTS, READONLY, DEBUGGING, OCTETS
 13 .debug_abbrev 00008561  00000000  00000000  0009b00e  2**0
                  CONTENTS, READONLY, DEBUGGING, OCTETS
 14 .debug_loc    00023c36  00000000  00000000  000a356f  2**0
                  CONTENTS, READONLY, DEBUGGING, OCTETS
 15 .debug_aranges 00000e30  00000000  00000000  000c71a8  2**3
                  CONTENTS, READONLY, DEBUGGING, OCTETS
 16 .debug_ranges 00005830  00000000  00000000  000c7fd8  2**3
                  CONTENTS, READONLY, DEBUGGING, OCTETS
 17 .debug_macro  0000aac3  00000000  00000000  000cd808  2**0
                  CONTENTS, READONLY, DEBUGGING, OCTETS
 18 .debug_line   0002156f  00000000  00000000  000d82cb  2**0
                  CONTENTS, READONLY, DEBUGGING, OCTETS
 19 .debug_str    000df9c8  00000000  00000000  000f983a  2**0
                  CONTENTS, READONLY, DEBUGGING, OCTETS
 20 .comment      00000050  00000000  00000000  001d9202  2**0
                  CONTENTS, READONLY
 21 .debug_frame  000040a8  00000000  00000000  001d9254  2**2
                  CONTENTS, READONLY, DEBUGGING, OCTETS

Disassembly of section .text:

08000110 <__do_global_dtors_aux>:
 8000110:	b510      	push	{r4, lr}
 8000112:	4c05      	ldr	r4, [pc, #20]	; (8000128 <__do_global_dtors_aux+0x18>)
 8000114:	7823      	ldrb	r3, [r4, #0]
 8000116:	b933      	cbnz	r3, 8000126 <__do_global_dtors_aux+0x16>
 8000118:	4b04      	ldr	r3, [pc, #16]	; (800012c <__do_global_dtors_aux+0x1c>)
 800011a:	b113      	cbz	r3, 8000122 <__do_global_dtors_aux+0x12>
 800011c:	4804      	ldr	r0, [pc, #16]	; (8000130 <__do_global_dtors_aux+0x20>)
 800011e:	f3af 8000 	nop.w
 8000122:	2301      	movs	r3, #1
 8000124:	7023      	strb	r3, [r4, #0]
 8000126:	bd10      	pop	{r4, pc}
 8000128:	2000007c 	.word	0x2000007c
 800012c:	00000000 	.word	0x00000000
 8000130:	08006f74 	.word	0x08006f74

08000134 <frame_dummy>:
 8000134:	b508      	push	{r3, lr}
 8000136:	4b03      	ldr	r3, [pc, #12]	; (8000144 <frame_dummy+0x10>)
 8000138:	b11b      	cbz	r3, 8000142 <frame_dummy+0xe>
 800013a:	4903      	ldr	r1, [pc, #12]	; (8000148 <frame_dummy+0x14>)
 800013c:	4803      	ldr	r0, [pc, #12]	; (800014c <frame_dummy+0x18>)
 800013e:	f3af 8000 	nop.w
 8000142:	bd08      	pop	{r3, pc}
 8000144:	00000000 	.word	0x00000000
 8000148:	20000080 	.word	0x20000080
 800014c:	08006f74 	.word	0x08006f74

08000150 <strcmp>:
 8000150:	f810 2b01 	ldrb.w	r2, [r0], #1
 8000154:	f811 3b01 	ldrb.w	r3, [r1], #1
 8000158:	2a01      	cmp	r2, #1
 800015a:	bf28      	it	cs
 800015c:	429a      	cmpcs	r2, r3
 800015e:	d0f7      	beq.n	8000150 <strcmp>
 8000160:	1ad0      	subs	r0, r2, r3
 8000162:	4770      	bx	lr

08000164 <__aeabi_drsub>:
 8000164:	f081 4100 	eor.w	r1, r1, #2147483648	; 0x80000000
 8000168:	e002      	b.n	8000170 <__adddf3>
 800016a:	bf00      	nop

0800016c <__aeabi_dsub>:
 800016c:	f083 4300 	eor.w	r3, r3, #2147483648	; 0x80000000

08000170 <__adddf3>:
 8000170:	b530      	push	{r4, r5, lr}
 8000172:	ea4f 0441 	mov.w	r4, r1, lsl #1
 8000176:	ea4f 0543 	mov.w	r5, r3, lsl #1
 800017a:	ea94 0f05 	teq	r4, r5
 800017e:	bf08      	it	eq
 8000180:	ea90 0f02 	teqeq	r0, r2
 8000184:	bf1f      	itttt	ne
 8000186:	ea54 0c00 	orrsne.w	ip, r4, r0
 800018a:	ea55 0c02 	orrsne.w	ip, r5, r2
 800018e:	ea7f 5c64 	mvnsne.w	ip, r4, asr #21
 8000192:	ea7f 5c65 	mvnsne.w	ip, r5, asr #21
 8000196:	f000 80e2 	beq.w	800035e <__adddf3+0x1ee>
 800019a:	ea4f 5454 	mov.w	r4, r4, lsr #21
 800019e:	ebd4 5555 	rsbs	r5, r4, r5, lsr #21
 80001a2:	bfb8      	it	lt
 80001a4:	426d      	neglt	r5, r5
 80001a6:	dd0c      	ble.n	80001c2 <__adddf3+0x52>
 80001a8:	442c      	add	r4, r5
 80001aa:	ea80 0202 	eor.w	r2, r0, r2
 80001ae:	ea81 0303 	eor.w	r3, r1, r3
 80001b2:	ea82 0000 	eor.w	r0, r2, r0
 80001b6:	ea83 0101 	eor.w	r1, r3, r1
 80001ba:	ea80 0202 	eor.w	r2, r0, r2
 80001be:	ea81 0303 	eor.w	r3, r1, r3
 80001c2:	2d36      	cmp	r5, #54	; 0x36
 80001c4:	bf88      	it	hi
 80001c6:	bd30      	pophi	{r4, r5, pc}
 80001c8:	f011 4f00 	tst.w	r1, #2147483648	; 0x80000000
 80001cc:	ea4f 3101 	mov.w	r1, r1, lsl #12
 80001d0:	f44f 1c80 	mov.w	ip, #1048576	; 0x100000
 80001d4:	ea4c 3111 	orr.w	r1, ip, r1, lsr #12
 80001d8:	d002      	beq.n	80001e0 <__adddf3+0x70>
 80001da:	4240      	negs	r0, r0
 80001dc:	eb61 0141 	sbc.w	r1, r1, r1, lsl #1
 80001e0:	f013 4f00 	tst.w	r3, #2147483648	; 0x80000000
 80001e4:	ea4f 3303 	mov.w	r3, r3, lsl #12
 80001e8:	ea4c 3313 	orr.w	r3, ip, r3, lsr #12
 80001ec:	d002      	beq.n	80001f4 <__adddf3+0x84>
 80001ee:	4252      	negs	r2, r2
 80001f0:	eb63 0343 	sbc.w	r3, r3, r3, lsl #1
 80001f4:	ea94 0f05 	teq	r4, r5
 80001f8:	f000 80a7 	beq.w	800034a <__adddf3+0x1da>
 80001fc:	f1a4 0401 	sub.w	r4, r4, #1
 8000200:	f1d5 0e20 	rsbs	lr, r5, #32
 8000204:	db0d      	blt.n	8000222 <__adddf3+0xb2>
 8000206:	fa02 fc0e 	lsl.w	ip, r2, lr
 800020a:	fa22 f205 	lsr.w	r2, r2, r5
 800020e:	1880      	adds	r0, r0, r2
 8000210:	f141 0100 	adc.w	r1, r1, #0
 8000214:	fa03 f20e 	lsl.w	r2, r3, lr
 8000218:	1880      	adds	r0, r0, r2
 800021a:	fa43 f305 	asr.w	r3, r3, r5
 800021e:	4159      	adcs	r1, r3
 8000220:	e00e      	b.n	8000240 <__adddf3+0xd0>
 8000222:	f1a5 0520 	sub.w	r5, r5, #32
 8000226:	f10e 0e20 	add.w	lr, lr, #32
 800022a:	2a01      	cmp	r2, #1
 800022c:	fa03 fc0e 	lsl.w	ip, r3, lr
 8000230:	bf28      	it	cs
 8000232:	f04c 0c02 	orrcs.w	ip, ip, #2
 8000236:	fa43 f305 	asr.w	r3, r3, r5
 800023a:	18c0      	adds	r0, r0, r3
 800023c:	eb51 71e3 	adcs.w	r1, r1, r3, asr #31
 8000240:	f001 4500 	and.w	r5, r1, #2147483648	; 0x80000000
 8000244:	d507      	bpl.n	8000256 <__adddf3+0xe6>
 8000246:	f04f 0e00 	mov.w	lr, #0
 800024a:	f1dc 0c00 	rsbs	ip, ip, #0
 800024e:	eb7e 0000 	sbcs.w	r0, lr, r0
 8000252:	eb6e 0101 	sbc.w	r1, lr, r1
 8000256:	f5b1 1f80 	cmp.w	r1, #1048576	; 0x100000
 800025a:	d31b      	bcc.n	8000294 <__adddf3+0x124>
 800025c:	f5b1 1f00 	cmp.w	r1, #2097152	; 0x200000
 8000260:	d30c      	bcc.n	800027c <__adddf3+0x10c>
 8000262:	0849      	lsrs	r1, r1, #1
 8000264:	ea5f 0030 	movs.w	r0, r0, rrx
 8000268:	ea4f 0c3c 	mov.w	ip, ip, rrx
 800026c:	f104 0401 	add.w	r4, r4, #1
 8000270:	ea4f 5244 	mov.w	r2, r4, lsl #21
 8000274:	f512 0f80 	cmn.w	r2, #4194304	; 0x400000
 8000278:	f080 809a 	bcs.w	80003b0 <__adddf3+0x240>
 800027c:	f1bc 4f00 	cmp.w	ip, #2147483648	; 0x80000000
 8000280:	bf08      	it	eq
 8000282:	ea5f 0c50 	movseq.w	ip, r0, lsr #1
 8000286:	f150 0000 	adcs.w	r0, r0, #0
 800028a:	eb41 5104 	adc.w	r1, r1, r4, lsl #20
 800028e:	ea41 0105 	orr.w	r1, r1, r5
 8000292:	bd30      	pop	{r4, r5, pc}
 8000294:	ea5f 0c4c 	movs.w	ip, ip, lsl #1
 8000298:	4140      	adcs	r0, r0
 800029a:	eb41 0101 	adc.w	r1, r1, r1
 800029e:	3c01      	subs	r4, #1
 80002a0:	bf28      	it	cs
 80002a2:	f5b1 1f80 	cmpcs.w	r1, #1048576	; 0x100000
 80002a6:	d2e9      	bcs.n	800027c <__adddf3+0x10c>
 80002a8:	f091 0f00 	teq	r1, #0
 80002ac:	bf04      	itt	eq
 80002ae:	4601      	moveq	r1, r0
 80002b0:	2000      	moveq	r0, #0
 80002b2:	fab1 f381 	clz	r3, r1
 80002b6:	bf08      	it	eq
 80002b8:	3320      	addeq	r3, #32
 80002ba:	f1a3 030b 	sub.w	r3, r3, #11
 80002be:	f1b3 0220 	subs.w	r2, r3, #32
 80002c2:	da0c      	bge.n	80002de <__adddf3+0x16e>
 80002c4:	320c      	adds	r2, #12
 80002c6:	dd08      	ble.n	80002da <__adddf3+0x16a>
 80002c8:	f102 0c14 	add.w	ip, r2, #20
 80002cc:	f1c2 020c 	rsb	r2, r2, #12
 80002d0:	fa01 f00c 	lsl.w	r0, r1, ip
 80002d4:	fa21 f102 	lsr.w	r1, r1, r2
 80002d8:	e00c      	b.n	80002f4 <__adddf3+0x184>
 80002da:	f102 0214 	add.w	r2, r2, #20
 80002de:	bfd8      	it	le
 80002e0:	f1c2 0c20 	rsble	ip, r2, #32
 80002e4:	fa01 f102 	lsl.w	r1, r1, r2
 80002e8:	fa20 fc0c 	lsr.w	ip, r0, ip
 80002ec:	bfdc      	itt	le
 80002ee:	ea41 010c 	orrle.w	r1, r1, ip
 80002f2:	4090      	lslle	r0, r2
 80002f4:	1ae4      	subs	r4, r4, r3
 80002f6:	bfa2      	ittt	ge
 80002f8:	eb01 5104 	addge.w	r1, r1, r4, lsl #20
 80002fc:	4329      	orrge	r1, r5
 80002fe:	bd30      	popge	{r4, r5, pc}
 8000300:	ea6f 0404 	mvn.w	r4, r4
 8000304:	3c1f      	subs	r4, #31
 8000306:	da1c      	bge.n	8000342 <__adddf3+0x1d2>
 8000308:	340c      	adds	r4, #12
 800030a:	dc0e      	bgt.n	800032a <__adddf3+0x1ba>
 800030c:	f104 0414 	add.w	r4, r4, #20
 8000310:	f1c4 0220 	rsb	r2, r4, #32
 8000314:	fa20 f004 	lsr.w	r0, r0, r4
 8000318:	fa01 f302 	lsl.w	r3, r1, r2
 800031c:	ea40 0003 	orr.w	r0, r0, r3
 8000320:	fa21 f304 	lsr.w	r3, r1, r4
 8000324:	ea45 0103 	orr.w	r1, r5, r3
 8000328:	bd30      	pop	{r4, r5, pc}
 800032a:	f1c4 040c 	rsb	r4, r4, #12
 800032e:	f1c4 0220 	rsb	r2, r4, #32
 8000332:	fa20 f002 	lsr.w	r0, r0, r2
 8000336:	fa01 f304 	lsl.w	r3, r1, r4
 800033a:	ea40 0003 	orr.w	r0, r0, r3
 800033e:	4629      	mov	r1, r5
 8000340:	bd30      	pop	{r4, r5, pc}
 8000342:	fa21 f004 	lsr.w	r0, r1, r4
 8000346:	4629      	mov	r1, r5
 8000348:	bd30      	pop	{r4, r5, pc}
 800034a:	f094 0f00 	teq	r4, #0
 800034e:	f483 1380 	eor.w	r3, r3, #1048576	; 0x100000
 8000352:	bf06      	itte	eq
 8000354:	f481 1180 	eoreq.w	r1, r1, #1048576	; 0x100000
 8000358:	3401      	addeq	r4, #1
 800035a:	3d01      	subne	r5, #1
 800035c:	e74e      	b.n	80001fc <__adddf3+0x8c>
 800035e:	ea7f 5c64 	mvns.w	ip, r4, asr #21
 8000362:	bf18      	it	ne
 8000364:	ea7f 5c65 	mvnsne.w	ip, r5, asr #21
 8000368:	d029      	beq.n	80003be <__adddf3+0x24e>
 800036a:	ea94 0f05 	teq	r4, r5
 800036e:	bf08      	it	eq
 8000370:	ea90 0f02 	teqeq	r0, r2
 8000374:	d005      	beq.n	8000382 <__adddf3+0x212>
 8000376:	ea54 0c00 	orrs.w	ip, r4, r0
 800037a:	bf04      	itt	eq
 800037c:	4619      	moveq	r1, r3
 800037e:	4610      	moveq	r0, r2
 8000380:	bd30      	pop	{r4, r5, pc}
 8000382:	ea91 0f03 	teq	r1, r3
 8000386:	bf1e      	ittt	ne
 8000388:	2100      	movne	r1, #0
 800038a:	2000      	movne	r0, #0
 800038c:	bd30      	popne	{r4, r5, pc}
 800038e:	ea5f 5c54 	movs.w	ip, r4, lsr #21
 8000392:	d105      	bne.n	80003a0 <__adddf3+0x230>
 8000394:	0040      	lsls	r0, r0, #1
 8000396:	4149      	adcs	r1, r1
 8000398:	bf28      	it	cs
 800039a:	f041 4100 	orrcs.w	r1, r1, #2147483648	; 0x80000000
 800039e:	bd30      	pop	{r4, r5, pc}
 80003a0:	f514 0480 	adds.w	r4, r4, #4194304	; 0x400000
 80003a4:	bf3c      	itt	cc
 80003a6:	f501 1180 	addcc.w	r1, r1, #1048576	; 0x100000
 80003aa:	bd30      	popcc	{r4, r5, pc}
 80003ac:	f001 4500 	and.w	r5, r1, #2147483648	; 0x80000000
 80003b0:	f045 41fe 	orr.w	r1, r5, #2130706432	; 0x7f000000
 80003b4:	f441 0170 	orr.w	r1, r1, #15728640	; 0xf00000
 80003b8:	f04f 0000 	mov.w	r0, #0
 80003bc:	bd30      	pop	{r4, r5, pc}
 80003be:	ea7f 5c64 	mvns.w	ip, r4, asr #21
 80003c2:	bf1a      	itte	ne
 80003c4:	4619      	movne	r1, r3
 80003c6:	4610      	movne	r0, r2
 80003c8:	ea7f 5c65 	mvnseq.w	ip, r5, asr #21
 80003cc:	bf1c      	itt	ne
 80003ce:	460b      	movne	r3, r1
 80003d0:	4602      	movne	r2, r0
 80003d2:	ea50 3401 	orrs.w	r4, r0, r1, lsl #12
 80003d6:	bf06      	itte	eq
 80003d8:	ea52 3503 	orrseq.w	r5, r2, r3, lsl #12
 80003dc:	ea91 0f03 	teqeq	r1, r3
 80003e0:	f441 2100 	orrne.w	r1, r1, #524288	; 0x80000
 80003e4:	bd30      	pop	{r4, r5, pc}
 80003e6:	bf00      	nop

080003e8 <__aeabi_ui2d>:
 80003e8:	f090 0f00 	teq	r0, #0
 80003ec:	bf04      	itt	eq
 80003ee:	2100      	moveq	r1, #0
 80003f0:	4770      	bxeq	lr
 80003f2:	b530      	push	{r4, r5, lr}
 80003f4:	f44f 6480 	mov.w	r4, #1024	; 0x400
 80003f8:	f104 0432 	add.w	r4, r4, #50	; 0x32
 80003fc:	f04f 0500 	mov.w	r5, #0
 8000400:	f04f 0100 	mov.w	r1, #0
 8000404:	e750      	b.n	80002a8 <__adddf3+0x138>
 8000406:	bf00      	nop

08000408 <__aeabi_i2d>:
 8000408:	f090 0f00 	teq	r0, #0
 800040c:	bf04      	itt	eq
 800040e:	2100      	moveq	r1, #0
 8000410:	4770      	bxeq	lr
 8000412:	b530      	push	{r4, r5, lr}
 8000414:	f44f 6480 	mov.w	r4, #1024	; 0x400
 8000418:	f104 0432 	add.w	r4, r4, #50	; 0x32
 800041c:	f010 4500 	ands.w	r5, r0, #2147483648	; 0x80000000
 8000420:	bf48      	it	mi
 8000422:	4240      	negmi	r0, r0
 8000424:	f04f 0100 	mov.w	r1, #0
 8000428:	e73e      	b.n	80002a8 <__adddf3+0x138>
 800042a:	bf00      	nop

0800042c <__aeabi_f2d>:
 800042c:	0042      	lsls	r2, r0, #1
 800042e:	ea4f 01e2 	mov.w	r1, r2, asr #3
 8000432:	ea4f 0131 	mov.w	r1, r1, rrx
 8000436:	ea4f 7002 	mov.w	r0, r2, lsl #28
 800043a:	bf1f      	itttt	ne
 800043c:	f012 437f 	andsne.w	r3, r2, #4278190080	; 0xff000000
 8000440:	f093 4f7f 	teqne	r3, #4278190080	; 0xff000000
 8000444:	f081 5160 	eorne.w	r1, r1, #939524096	; 0x38000000
 8000448:	4770      	bxne	lr
 800044a:	f032 427f 	bics.w	r2, r2, #4278190080	; 0xff000000
 800044e:	bf08      	it	eq
 8000450:	4770      	bxeq	lr
 8000452:	f093 4f7f 	teq	r3, #4278190080	; 0xff000000
 8000456:	bf04      	itt	eq
 8000458:	f441 2100 	orreq.w	r1, r1, #524288	; 0x80000
 800045c:	4770      	bxeq	lr
 800045e:	b530      	push	{r4, r5, lr}
 8000460:	f44f 7460 	mov.w	r4, #896	; 0x380
 8000464:	f001 4500 	and.w	r5, r1, #2147483648	; 0x80000000
 8000468:	f021 4100 	bic.w	r1, r1, #2147483648	; 0x80000000
 800046c:	e71c      	b.n	80002a8 <__adddf3+0x138>
 800046e:	bf00      	nop

08000470 <__aeabi_ul2d>:
 8000470:	ea50 0201 	orrs.w	r2, r0, r1
 8000474:	bf08      	it	eq
 8000476:	4770      	bxeq	lr
 8000478:	b530      	push	{r4, r5, lr}
 800047a:	f04f 0500 	mov.w	r5, #0
 800047e:	e00a      	b.n	8000496 <__aeabi_l2d+0x16>

08000480 <__aeabi_l2d>:
 8000480:	ea50 0201 	orrs.w	r2, r0, r1
 8000484:	bf08      	it	eq
 8000486:	4770      	bxeq	lr
 8000488:	b530      	push	{r4, r5, lr}
 800048a:	f011 4500 	ands.w	r5, r1, #2147483648	; 0x80000000
 800048e:	d502      	bpl.n	8000496 <__aeabi_l2d+0x16>
 8000490:	4240      	negs	r0, r0
 8000492:	eb61 0141 	sbc.w	r1, r1, r1, lsl #1
 8000496:	f44f 6480 	mov.w	r4, #1024	; 0x400
 800049a:	f104 0432 	add.w	r4, r4, #50	; 0x32
 800049e:	ea5f 5c91 	movs.w	ip, r1, lsr #22
 80004a2:	f43f aed8 	beq.w	8000256 <__adddf3+0xe6>
 80004a6:	f04f 0203 	mov.w	r2, #3
 80004aa:	ea5f 0cdc 	movs.w	ip, ip, lsr #3
 80004ae:	bf18      	it	ne
 80004b0:	3203      	addne	r2, #3
 80004b2:	ea5f 0cdc 	movs.w	ip, ip, lsr #3
 80004b6:	bf18      	it	ne
 80004b8:	3203      	addne	r2, #3
 80004ba:	eb02 02dc 	add.w	r2, r2, ip, lsr #3
 80004be:	f1c2 0320 	rsb	r3, r2, #32
 80004c2:	fa00 fc03 	lsl.w	ip, r0, r3
 80004c6:	fa20 f002 	lsr.w	r0, r0, r2
 80004ca:	fa01 fe03 	lsl.w	lr, r1, r3
 80004ce:	ea40 000e 	orr.w	r0, r0, lr
 80004d2:	fa21 f102 	lsr.w	r1, r1, r2
 80004d6:	4414      	add	r4, r2
 80004d8:	e6bd      	b.n	8000256 <__adddf3+0xe6>
 80004da:	bf00      	nop

080004dc <__aeabi_dmul>:
 80004dc:	b570      	push	{r4, r5, r6, lr}
 80004de:	f04f 0cff 	mov.w	ip, #255	; 0xff
 80004e2:	f44c 6ce0 	orr.w	ip, ip, #1792	; 0x700
 80004e6:	ea1c 5411 	ands.w	r4, ip, r1, lsr #20
 80004ea:	bf1d      	ittte	ne
 80004ec:	ea1c 5513 	andsne.w	r5, ip, r3, lsr #20
 80004f0:	ea94 0f0c 	teqne	r4, ip
 80004f4:	ea95 0f0c 	teqne	r5, ip
 80004f8:	f000 f8de 	bleq	80006b8 <__aeabi_dmul+0x1dc>
 80004fc:	442c      	add	r4, r5
 80004fe:	ea81 0603 	eor.w	r6, r1, r3
 8000502:	ea21 514c 	bic.w	r1, r1, ip, lsl #21
 8000506:	ea23 534c 	bic.w	r3, r3, ip, lsl #21
 800050a:	ea50 3501 	orrs.w	r5, r0, r1, lsl #12
 800050e:	bf18      	it	ne
 8000510:	ea52 3503 	orrsne.w	r5, r2, r3, lsl #12
 8000514:	f441 1180 	orr.w	r1, r1, #1048576	; 0x100000
 8000518:	f443 1380 	orr.w	r3, r3, #1048576	; 0x100000
 800051c:	d038      	beq.n	8000590 <__aeabi_dmul+0xb4>
 800051e:	fba0 ce02 	umull	ip, lr, r0, r2
 8000522:	f04f 0500 	mov.w	r5, #0
 8000526:	fbe1 e502 	umlal	lr, r5, r1, r2
 800052a:	f006 4200 	and.w	r2, r6, #2147483648	; 0x80000000
 800052e:	fbe0 e503 	umlal	lr, r5, r0, r3
 8000532:	f04f 0600 	mov.w	r6, #0
 8000536:	fbe1 5603 	umlal	r5, r6, r1, r3
 800053a:	f09c 0f00 	teq	ip, #0
 800053e:	bf18      	it	ne
 8000540:	f04e 0e01 	orrne.w	lr, lr, #1
 8000544:	f1a4 04ff 	sub.w	r4, r4, #255	; 0xff
 8000548:	f5b6 7f00 	cmp.w	r6, #512	; 0x200
 800054c:	f564 7440 	sbc.w	r4, r4, #768	; 0x300
 8000550:	d204      	bcs.n	800055c <__aeabi_dmul+0x80>
 8000552:	ea5f 0e4e 	movs.w	lr, lr, lsl #1
 8000556:	416d      	adcs	r5, r5
 8000558:	eb46 0606 	adc.w	r6, r6, r6
 800055c:	ea42 21c6 	orr.w	r1, r2, r6, lsl #11
 8000560:	ea41 5155 	orr.w	r1, r1, r5, lsr #21
 8000564:	ea4f 20c5 	mov.w	r0, r5, lsl #11
 8000568:	ea40 505e 	orr.w	r0, r0, lr, lsr #21
 800056c:	ea4f 2ece 	mov.w	lr, lr, lsl #11
 8000570:	f1b4 0cfd 	subs.w	ip, r4, #253	; 0xfd
 8000574:	bf88      	it	hi
 8000576:	f5bc 6fe0 	cmphi.w	ip, #1792	; 0x700
 800057a:	d81e      	bhi.n	80005ba <__aeabi_dmul+0xde>
 800057c:	f1be 4f00 	cmp.w	lr, #2147483648	; 0x80000000
 8000580:	bf08      	it	eq
 8000582:	ea5f 0e50 	movseq.w	lr, r0, lsr #1
 8000586:	f150 0000 	adcs.w	r0, r0, #0
 800058a:	eb41 5104 	adc.w	r1, r1, r4, lsl #20
 800058e:	bd70      	pop	{r4, r5, r6, pc}
 8000590:	f006 4600 	and.w	r6, r6, #2147483648	; 0x80000000
 8000594:	ea46 0101 	orr.w	r1, r6, r1
 8000598:	ea40 0002 	orr.w	r0, r0, r2
 800059c:	ea81 0103 	eor.w	r1, r1, r3
 80005a0:	ebb4 045c 	subs.w	r4, r4, ip, lsr #1
 80005a4:	bfc2      	ittt	gt
 80005a6:	ebd4 050c 	rsbsgt	r5, r4, ip
 80005aa:	ea41 5104 	orrgt.w	r1, r1, r4, lsl #20
 80005ae:	bd70      	popgt	{r4, r5, r6, pc}
 80005b0:	f441 1180 	orr.w	r1, r1, #1048576	; 0x100000
 80005b4:	f04f 0e00 	mov.w	lr, #0
 80005b8:	3c01      	subs	r4, #1
 80005ba:	f300 80ab 	bgt.w	8000714 <__aeabi_dmul+0x238>
 80005be:	f114 0f36 	cmn.w	r4, #54	; 0x36
 80005c2:	bfde      	ittt	le
 80005c4:	2000      	movle	r0, #0
 80005c6:	f001 4100 	andle.w	r1, r1, #2147483648	; 0x80000000
 80005ca:	bd70      	pople	{r4, r5, r6, pc}
 80005cc:	f1c4 0400 	rsb	r4, r4, #0
 80005d0:	3c20      	subs	r4, #32
 80005d2:	da35      	bge.n	8000640 <__aeabi_dmul+0x164>
 80005d4:	340c      	adds	r4, #12
 80005d6:	dc1b      	bgt.n	8000610 <__aeabi_dmul+0x134>
 80005d8:	f104 0414 	add.w	r4, r4, #20
 80005dc:	f1c4 0520 	rsb	r5, r4, #32
 80005e0:	fa00 f305 	lsl.w	r3, r0, r5
 80005e4:	fa20 f004 	lsr.w	r0, r0, r4
 80005e8:	fa01 f205 	lsl.w	r2, r1, r5
 80005ec:	ea40 0002 	orr.w	r0, r0, r2
 80005f0:	f001 4200 	and.w	r2, r1, #2147483648	; 0x80000000
 80005f4:	f021 4100 	bic.w	r1, r1, #2147483648	; 0x80000000
 80005f8:	eb10 70d3 	adds.w	r0, r0, r3, lsr #31
 80005fc:	fa21 f604 	lsr.w	r6, r1, r4
 8000600:	eb42 0106 	adc.w	r1, r2, r6
 8000604:	ea5e 0e43 	orrs.w	lr, lr, r3, lsl #1
 8000608:	bf08      	it	eq
 800060a:	ea20 70d3 	biceq.w	r0, r0, r3, lsr #31
 800060e:	bd70      	pop	{r4, r5, r6, pc}
 8000610:	f1c4 040c 	rsb	r4, r4, #12
 8000614:	f1c4 0520 	rsb	r5, r4, #32
 8000618:	fa00 f304 	lsl.w	r3, r0, r4
 800061c:	fa20 f005 	lsr.w	r0, r0, r5
 8000620:	fa01 f204 	lsl.w	r2, r1, r4
 8000624:	ea40 0002 	orr.w	r0, r0, r2
 8000628:	f001 4100 	and.w	r1, r1, #2147483648	; 0x80000000
 800062c:	eb10 70d3 	adds.w	r0, r0, r3, lsr #31
 8000630:	f141 0100 	adc.w	r1, r1, #0
 8000634:	ea5e 0e43 	orrs.w	lr, lr, r3, lsl #1
 8000638:	bf08      	it	eq
 800063a:	ea20 70d3 	biceq.w	r0, r0, r3, lsr #31
 800063e:	bd70      	pop	{r4, r5, r6, pc}
 8000640:	f1c4 0520 	rsb	r5, r4, #32
 8000644:	fa00 f205 	lsl.w	r2, r0, r5
 8000648:	ea4e 0e02 	orr.w	lr, lr, r2
 800064c:	fa20 f304 	lsr.w	r3, r0, r4
 8000650:	fa01 f205 	lsl.w	r2, r1, r5
 8000654:	ea43 0302 	orr.w	r3, r3, r2
 8000658:	fa21 f004 	lsr.w	r0, r1, r4
 800065c:	f001 4100 	and.w	r1, r1, #2147483648	; 0x80000000
 8000660:	fa21 f204 	lsr.w	r2, r1, r4
 8000664:	ea20 0002 	bic.w	r0, r0, r2
 8000668:	eb00 70d3 	add.w	r0, r0, r3, lsr #31
 800066c:	ea5e 0e43 	orrs.w	lr, lr, r3, lsl #1
 8000670:	bf08      	it	eq
 8000672:	ea20 70d3 	biceq.w	r0, r0, r3, lsr #31
 8000676:	bd70      	pop	{r4, r5, r6, pc}
 8000678:	f094 0f00 	teq	r4, #0
 800067c:	d10f      	bne.n	800069e <__aeabi_dmul+0x1c2>
 800067e:	f001 4600 	and.w	r6, r1, #2147483648	; 0x80000000
 8000682:	0040      	lsls	r0, r0, #1
 8000684:	eb41 0101 	adc.w	r1, r1, r1
 8000688:	f411 1f80 	tst.w	r1, #1048576	; 0x100000
 800068c:	bf08      	it	eq
 800068e:	3c01      	subeq	r4, #1
 8000690:	d0f7      	beq.n	8000682 <__aeabi_dmul+0x1a6>
 8000692:	ea41 0106 	orr.w	r1, r1, r6
 8000696:	f095 0f00 	teq	r5, #0
 800069a:	bf18      	it	ne
 800069c:	4770      	bxne	lr
 800069e:	f003 4600 	and.w	r6, r3, #2147483648	; 0x80000000
 80006a2:	0052      	lsls	r2, r2, #1
 80006a4:	eb43 0303 	adc.w	r3, r3, r3
 80006a8:	f413 1f80 	tst.w	r3, #1048576	; 0x100000
 80006ac:	bf08      	it	eq
 80006ae:	3d01      	subeq	r5, #1
 80006b0:	d0f7      	beq.n	80006a2 <__aeabi_dmul+0x1c6>
 80006b2:	ea43 0306 	orr.w	r3, r3, r6
 80006b6:	4770      	bx	lr
 80006b8:	ea94 0f0c 	teq	r4, ip
 80006bc:	ea0c 5513 	and.w	r5, ip, r3, lsr #20
 80006c0:	bf18      	it	ne
 80006c2:	ea95 0f0c 	teqne	r5, ip
 80006c6:	d00c      	beq.n	80006e2 <__aeabi_dmul+0x206>
 80006c8:	ea50 0641 	orrs.w	r6, r0, r1, lsl #1
 80006cc:	bf18      	it	ne
 80006ce:	ea52 0643 	orrsne.w	r6, r2, r3, lsl #1
 80006d2:	d1d1      	bne.n	8000678 <__aeabi_dmul+0x19c>
 80006d4:	ea81 0103 	eor.w	r1, r1, r3
 80006d8:	f001 4100 	and.w	r1, r1, #2147483648	; 0x80000000
 80006dc:	f04f 0000 	mov.w	r0, #0
 80006e0:	bd70      	pop	{r4, r5, r6, pc}
 80006e2:	ea50 0641 	orrs.w	r6, r0, r1, lsl #1
 80006e6:	bf06      	itte	eq
 80006e8:	4610      	moveq	r0, r2
 80006ea:	4619      	moveq	r1, r3
 80006ec:	ea52 0643 	orrsne.w	r6, r2, r3, lsl #1
 80006f0:	d019      	beq.n	8000726 <__aeabi_dmul+0x24a>
 80006f2:	ea94 0f0c 	teq	r4, ip
 80006f6:	d102      	bne.n	80006fe <__aeabi_dmul+0x222>
 80006f8:	ea50 3601 	orrs.w	r6, r0, r1, lsl #12
 80006fc:	d113      	bne.n	8000726 <__aeabi_dmul+0x24a>
 80006fe:	ea95 0f0c 	teq	r5, ip
 8000702:	d105      	bne.n	8000710 <__aeabi_dmul+0x234>
 8000704:	ea52 3603 	orrs.w	r6, r2, r3, lsl #12
 8000708:	bf1c      	itt	ne
 800070a:	4610      	movne	r0, r2
 800070c:	4619      	movne	r1, r3
 800070e:	d10a      	bne.n	8000726 <__aeabi_dmul+0x24a>
 8000710:	ea81 0103 	eor.w	r1, r1, r3
 8000714:	f001 4100 	and.w	r1, r1, #2147483648	; 0x80000000
 8000718:	f041 41fe 	orr.w	r1, r1, #2130706432	; 0x7f000000
 800071c:	f441 0170 	orr.w	r1, r1, #15728640	; 0xf00000
 8000720:	f04f 0000 	mov.w	r0, #0
 8000724:	bd70      	pop	{r4, r5, r6, pc}
 8000726:	f041 41fe 	orr.w	r1, r1, #2130706432	; 0x7f000000
 800072a:	f441 0178 	orr.w	r1, r1, #16252928	; 0xf80000
 800072e:	bd70      	pop	{r4, r5, r6, pc}

08000730 <__aeabi_ddiv>:
 8000730:	b570      	push	{r4, r5, r6, lr}
 8000732:	f04f 0cff 	mov.w	ip, #255	; 0xff
 8000736:	f44c 6ce0 	orr.w	ip, ip, #1792	; 0x700
 800073a:	ea1c 5411 	ands.w	r4, ip, r1, lsr #20
 800073e:	bf1d      	ittte	ne
 8000740:	ea1c 5513 	andsne.w	r5, ip, r3, lsr #20
 8000744:	ea94 0f0c 	teqne	r4, ip
 8000748:	ea95 0f0c 	teqne	r5, ip
 800074c:	f000 f8a7 	bleq	800089e <__aeabi_ddiv+0x16e>
 8000750:	eba4 0405 	sub.w	r4, r4, r5
 8000754:	ea81 0e03 	eor.w	lr, r1, r3
 8000758:	ea52 3503 	orrs.w	r5, r2, r3, lsl #12
 800075c:	ea4f 3101 	mov.w	r1, r1, lsl #12
 8000760:	f000 8088 	beq.w	8000874 <__aeabi_ddiv+0x144>
 8000764:	ea4f 3303 	mov.w	r3, r3, lsl #12
 8000768:	f04f 5580 	mov.w	r5, #268435456	; 0x10000000
 800076c:	ea45 1313 	orr.w	r3, r5, r3, lsr #4
 8000770:	ea43 6312 	orr.w	r3, r3, r2, lsr #24
 8000774:	ea4f 2202 	mov.w	r2, r2, lsl #8
 8000778:	ea45 1511 	orr.w	r5, r5, r1, lsr #4
 800077c:	ea45 6510 	orr.w	r5, r5, r0, lsr #24
 8000780:	ea4f 2600 	mov.w	r6, r0, lsl #8
 8000784:	f00e 4100 	and.w	r1, lr, #2147483648	; 0x80000000
 8000788:	429d      	cmp	r5, r3
 800078a:	bf08      	it	eq
 800078c:	4296      	cmpeq	r6, r2
 800078e:	f144 04fd 	adc.w	r4, r4, #253	; 0xfd
 8000792:	f504 7440 	add.w	r4, r4, #768	; 0x300
 8000796:	d202      	bcs.n	800079e <__aeabi_ddiv+0x6e>
 8000798:	085b      	lsrs	r3, r3, #1
 800079a:	ea4f 0232 	mov.w	r2, r2, rrx
 800079e:	1ab6      	subs	r6, r6, r2
 80007a0:	eb65 0503 	sbc.w	r5, r5, r3
 80007a4:	085b      	lsrs	r3, r3, #1
 80007a6:	ea4f 0232 	mov.w	r2, r2, rrx
 80007aa:	f44f 1080 	mov.w	r0, #1048576	; 0x100000
 80007ae:	f44f 2c00 	mov.w	ip, #524288	; 0x80000
 80007b2:	ebb6 0e02 	subs.w	lr, r6, r2
 80007b6:	eb75 0e03 	sbcs.w	lr, r5, r3
 80007ba:	bf22      	ittt	cs
 80007bc:	1ab6      	subcs	r6, r6, r2
 80007be:	4675      	movcs	r5, lr
 80007c0:	ea40 000c 	orrcs.w	r0, r0, ip
 80007c4:	085b      	lsrs	r3, r3, #1
 80007c6:	ea4f 0232 	mov.w	r2, r2, rrx
 80007ca:	ebb6 0e02 	subs.w	lr, r6, r2
 80007ce:	eb75 0e03 	sbcs.w	lr, r5, r3
 80007d2:	bf22      	ittt	cs
 80007d4:	1ab6      	subcs	r6, r6, r2
 80007d6:	4675      	movcs	r5, lr
 80007d8:	ea40 005c 	orrcs.w	r0, r0, ip, lsr #1
 80007dc:	085b      	lsrs	r3, r3, #1
 80007de:	ea4f 0232 	mov.w	r2, r2, rrx
 80007e2:	ebb6 0e02 	subs.w	lr, r6, r2
 80007e6:	eb75 0e03 	sbcs.w	lr, r5, r3
 80007ea:	bf22      	ittt	cs
 80007ec:	1ab6      	subcs	r6, r6, r2
 80007ee:	4675      	movcs	r5, lr
 80007f0:	ea40 009c 	orrcs.w	r0, r0, ip, lsr #2
 80007f4:	085b      	lsrs	r3, r3, #1
 80007f6:	ea4f 0232 	mov.w	r2, r2, rrx
 80007fa:	ebb6 0e02 	subs.w	lr, r6, r2
 80007fe:	eb75 0e03 	sbcs.w	lr, r5, r3
 8000802:	bf22      	ittt	cs
 8000804:	1ab6      	subcs	r6, r6, r2
 8000806:	4675      	movcs	r5, lr
 8000808:	ea40 00dc 	orrcs.w	r0, r0, ip, lsr #3
 800080c:	ea55 0e06 	orrs.w	lr, r5, r6
 8000810:	d018      	beq.n	8000844 <__aeabi_ddiv+0x114>
 8000812:	ea4f 1505 	mov.w	r5, r5, lsl #4
 8000816:	ea45 7516 	orr.w	r5, r5, r6, lsr #28
 800081a:	ea4f 1606 	mov.w	r6, r6, lsl #4
 800081e:	ea4f 03c3 	mov.w	r3, r3, lsl #3
 8000822:	ea43 7352 	orr.w	r3, r3, r2, lsr #29
 8000826:	ea4f 02c2 	mov.w	r2, r2, lsl #3
 800082a:	ea5f 1c1c 	movs.w	ip, ip, lsr #4
 800082e:	d1c0      	bne.n	80007b2 <__aeabi_ddiv+0x82>
 8000830:	f411 1f80 	tst.w	r1, #1048576	; 0x100000
 8000834:	d10b      	bne.n	800084e <__aeabi_ddiv+0x11e>
 8000836:	ea41 0100 	orr.w	r1, r1, r0
 800083a:	f04f 0000 	mov.w	r0, #0
 800083e:	f04f 4c00 	mov.w	ip, #2147483648	; 0x80000000
 8000842:	e7b6      	b.n	80007b2 <__aeabi_ddiv+0x82>
 8000844:	f411 1f80 	tst.w	r1, #1048576	; 0x100000
 8000848:	bf04      	itt	eq
 800084a:	4301      	orreq	r1, r0
 800084c:	2000      	moveq	r0, #0
 800084e:	f1b4 0cfd 	subs.w	ip, r4, #253	; 0xfd
 8000852:	bf88      	it	hi
 8000854:	f5bc 6fe0 	cmphi.w	ip, #1792	; 0x700
 8000858:	f63f aeaf 	bhi.w	80005ba <__aeabi_dmul+0xde>
 800085c:	ebb5 0c03 	subs.w	ip, r5, r3
 8000860:	bf04      	itt	eq
 8000862:	ebb6 0c02 	subseq.w	ip, r6, r2
 8000866:	ea5f 0c50 	movseq.w	ip, r0, lsr #1
 800086a:	f150 0000 	adcs.w	r0, r0, #0
 800086e:	eb41 5104 	adc.w	r1, r1, r4, lsl #20
 8000872:	bd70      	pop	{r4, r5, r6, pc}
 8000874:	f00e 4e00 	and.w	lr, lr, #2147483648	; 0x80000000
 8000878:	ea4e 3111 	orr.w	r1, lr, r1, lsr #12
 800087c:	eb14 045c 	adds.w	r4, r4, ip, lsr #1
 8000880:	bfc2      	ittt	gt
 8000882:	ebd4 050c 	rsbsgt	r5, r4, ip
 8000886:	ea41 5104 	orrgt.w	r1, r1, r4, lsl #20
 800088a:	bd70      	popgt	{r4, r5, r6, pc}
 800088c:	f441 1180 	orr.w	r1, r1, #1048576	; 0x100000
 8000890:	f04f 0e00 	mov.w	lr, #0
 8000894:	3c01      	subs	r4, #1
 8000896:	e690      	b.n	80005ba <__aeabi_dmul+0xde>
 8000898:	ea45 0e06 	orr.w	lr, r5, r6
 800089c:	e68d      	b.n	80005ba <__aeabi_dmul+0xde>
 800089e:	ea0c 5513 	and.w	r5, ip, r3, lsr #20
 80008a2:	ea94 0f0c 	teq	r4, ip
 80008a6:	bf08      	it	eq
 80008a8:	ea95 0f0c 	teqeq	r5, ip
 80008ac:	f43f af3b 	beq.w	8000726 <__aeabi_dmul+0x24a>
 80008b0:	ea94 0f0c 	teq	r4, ip
 80008b4:	d10a      	bne.n	80008cc <__aeabi_ddiv+0x19c>
 80008b6:	ea50 3401 	orrs.w	r4, r0, r1, lsl #12
 80008ba:	f47f af34 	bne.w	8000726 <__aeabi_dmul+0x24a>
 80008be:	ea95 0f0c 	teq	r5, ip
 80008c2:	f47f af25 	bne.w	8000710 <__aeabi_dmul+0x234>
 80008c6:	4610      	mov	r0, r2
 80008c8:	4619      	mov	r1, r3
 80008ca:	e72c      	b.n	8000726 <__aeabi_dmul+0x24a>
 80008cc:	ea95 0f0c 	teq	r5, ip
 80008d0:	d106      	bne.n	80008e0 <__aeabi_ddiv+0x1b0>
 80008d2:	ea52 3503 	orrs.w	r5, r2, r3, lsl #12
 80008d6:	f43f aefd 	beq.w	80006d4 <__aeabi_dmul+0x1f8>
 80008da:	4610      	mov	r0, r2
 80008dc:	4619      	mov	r1, r3
 80008de:	e722      	b.n	8000726 <__aeabi_dmul+0x24a>
 80008e0:	ea50 0641 	orrs.w	r6, r0, r1, lsl #1
 80008e4:	bf18      	it	ne
 80008e6:	ea52 0643 	orrsne.w	r6, r2, r3, lsl #1
 80008ea:	f47f aec5 	bne.w	8000678 <__aeabi_dmul+0x19c>
 80008ee:	ea50 0441 	orrs.w	r4, r0, r1, lsl #1
 80008f2:	f47f af0d 	bne.w	8000710 <__aeabi_dmul+0x234>
 80008f6:	ea52 0543 	orrs.w	r5, r2, r3, lsl #1
 80008fa:	f47f aeeb 	bne.w	80006d4 <__aeabi_dmul+0x1f8>
 80008fe:	e712      	b.n	8000726 <__aeabi_dmul+0x24a>

08000900 <__aeabi_d2f>:
 8000900:	ea4f 0241 	mov.w	r2, r1, lsl #1
 8000904:	f1b2 43e0 	subs.w	r3, r2, #1879048192	; 0x70000000
 8000908:	bf24      	itt	cs
 800090a:	f5b3 1c00 	subscs.w	ip, r3, #2097152	; 0x200000
 800090e:	f1dc 5cfe 	rsbscs	ip, ip, #532676608	; 0x1fc00000
 8000912:	d90d      	bls.n	8000930 <__aeabi_d2f+0x30>
 8000914:	f001 4c00 	and.w	ip, r1, #2147483648	; 0x80000000
 8000918:	ea4f 02c0 	mov.w	r2, r0, lsl #3
 800091c:	ea4c 7050 	orr.w	r0, ip, r0, lsr #29
 8000920:	f1b2 4f00 	cmp.w	r2, #2147483648	; 0x80000000
 8000924:	eb40 0083 	adc.w	r0, r0, r3, lsl #2
 8000928:	bf08      	it	eq
 800092a:	f020 0001 	biceq.w	r0, r0, #1
 800092e:	4770      	bx	lr
 8000930:	f011 4f80 	tst.w	r1, #1073741824	; 0x40000000
 8000934:	d121      	bne.n	800097a <__aeabi_d2f+0x7a>
 8000936:	f113 7238 	adds.w	r2, r3, #48234496	; 0x2e00000
 800093a:	bfbc      	itt	lt
 800093c:	f001 4000 	andlt.w	r0, r1, #2147483648	; 0x80000000
 8000940:	4770      	bxlt	lr
 8000942:	f441 1180 	orr.w	r1, r1, #1048576	; 0x100000
 8000946:	ea4f 5252 	mov.w	r2, r2, lsr #21
 800094a:	f1c2 0218 	rsb	r2, r2, #24
 800094e:	f1c2 0c20 	rsb	ip, r2, #32
 8000952:	fa10 f30c 	lsls.w	r3, r0, ip
 8000956:	fa20 f002 	lsr.w	r0, r0, r2
 800095a:	bf18      	it	ne
 800095c:	f040 0001 	orrne.w	r0, r0, #1
 8000960:	ea4f 23c1 	mov.w	r3, r1, lsl #11
 8000964:	ea4f 23d3 	mov.w	r3, r3, lsr #11
 8000968:	fa03 fc0c 	lsl.w	ip, r3, ip
 800096c:	ea40 000c 	orr.w	r0, r0, ip
 8000970:	fa23 f302 	lsr.w	r3, r3, r2
 8000974:	ea4f 0343 	mov.w	r3, r3, lsl #1
 8000978:	e7cc      	b.n	8000914 <__aeabi_d2f+0x14>
 800097a:	ea7f 5362 	mvns.w	r3, r2, asr #21
 800097e:	d107      	bne.n	8000990 <__aeabi_d2f+0x90>
 8000980:	ea50 3301 	orrs.w	r3, r0, r1, lsl #12
 8000984:	bf1e      	ittt	ne
 8000986:	f04f 40fe 	movne.w	r0, #2130706432	; 0x7f000000
 800098a:	f440 0040 	orrne.w	r0, r0, #12582912	; 0xc00000
 800098e:	4770      	bxne	lr
 8000990:	f001 4000 	and.w	r0, r1, #2147483648	; 0x80000000
 8000994:	f040 40fe 	orr.w	r0, r0, #2130706432	; 0x7f000000
 8000998:	f440 0000 	orr.w	r0, r0, #8388608	; 0x800000
 800099c:	4770      	bx	lr
 800099e:	bf00      	nop

080009a0 <__aeabi_frsub>:
 80009a0:	f080 4000 	eor.w	r0, r0, #2147483648	; 0x80000000
 80009a4:	e002      	b.n	80009ac <__addsf3>
 80009a6:	bf00      	nop

080009a8 <__aeabi_fsub>:
 80009a8:	f081 4100 	eor.w	r1, r1, #2147483648	; 0x80000000

080009ac <__addsf3>:
 80009ac:	0042      	lsls	r2, r0, #1
 80009ae:	bf1f      	itttt	ne
 80009b0:	ea5f 0341 	movsne.w	r3, r1, lsl #1
 80009b4:	ea92 0f03 	teqne	r2, r3
 80009b8:	ea7f 6c22 	mvnsne.w	ip, r2, asr #24
 80009bc:	ea7f 6c23 	mvnsne.w	ip, r3, asr #24
 80009c0:	d06a      	beq.n	8000a98 <__addsf3+0xec>
 80009c2:	ea4f 6212 	mov.w	r2, r2, lsr #24
 80009c6:	ebd2 6313 	rsbs	r3, r2, r3, lsr #24
 80009ca:	bfc1      	itttt	gt
 80009cc:	18d2      	addgt	r2, r2, r3
 80009ce:	4041      	eorgt	r1, r0
 80009d0:	4048      	eorgt	r0, r1
 80009d2:	4041      	eorgt	r1, r0
 80009d4:	bfb8      	it	lt
 80009d6:	425b      	neglt	r3, r3
 80009d8:	2b19      	cmp	r3, #25
 80009da:	bf88      	it	hi
 80009dc:	4770      	bxhi	lr
 80009de:	f010 4f00 	tst.w	r0, #2147483648	; 0x80000000
 80009e2:	f440 0000 	orr.w	r0, r0, #8388608	; 0x800000
 80009e6:	f020 407f 	bic.w	r0, r0, #4278190080	; 0xff000000
 80009ea:	bf18      	it	ne
 80009ec:	4240      	negne	r0, r0
 80009ee:	f011 4f00 	tst.w	r1, #2147483648	; 0x80000000
 80009f2:	f441 0100 	orr.w	r1, r1, #8388608	; 0x800000
 80009f6:	f021 417f 	bic.w	r1, r1, #4278190080	; 0xff000000
 80009fa:	bf18      	it	ne
 80009fc:	4249      	negne	r1, r1
 80009fe:	ea92 0f03 	teq	r2, r3
 8000a02:	d03f      	beq.n	8000a84 <__addsf3+0xd8>
 8000a04:	f1a2 0201 	sub.w	r2, r2, #1
 8000a08:	fa41 fc03 	asr.w	ip, r1, r3
 8000a0c:	eb10 000c 	adds.w	r0, r0, ip
 8000a10:	f1c3 0320 	rsb	r3, r3, #32
 8000a14:	fa01 f103 	lsl.w	r1, r1, r3
 8000a18:	f000 4300 	and.w	r3, r0, #2147483648	; 0x80000000
 8000a1c:	d502      	bpl.n	8000a24 <__addsf3+0x78>
 8000a1e:	4249      	negs	r1, r1
 8000a20:	eb60 0040 	sbc.w	r0, r0, r0, lsl #1
 8000a24:	f5b0 0f00 	cmp.w	r0, #8388608	; 0x800000
 8000a28:	d313      	bcc.n	8000a52 <__addsf3+0xa6>
 8000a2a:	f1b0 7f80 	cmp.w	r0, #16777216	; 0x1000000
 8000a2e:	d306      	bcc.n	8000a3e <__addsf3+0x92>
 8000a30:	0840      	lsrs	r0, r0, #1
 8000a32:	ea4f 0131 	mov.w	r1, r1, rrx
 8000a36:	f102 0201 	add.w	r2, r2, #1
 8000a3a:	2afe      	cmp	r2, #254	; 0xfe
 8000a3c:	d251      	bcs.n	8000ae2 <__addsf3+0x136>
 8000a3e:	f1b1 4f00 	cmp.w	r1, #2147483648	; 0x80000000
 8000a42:	eb40 50c2 	adc.w	r0, r0, r2, lsl #23
 8000a46:	bf08      	it	eq
 8000a48:	f020 0001 	biceq.w	r0, r0, #1
 8000a4c:	ea40 0003 	orr.w	r0, r0, r3
 8000a50:	4770      	bx	lr
 8000a52:	0049      	lsls	r1, r1, #1
 8000a54:	eb40 0000 	adc.w	r0, r0, r0
 8000a58:	3a01      	subs	r2, #1
 8000a5a:	bf28      	it	cs
 8000a5c:	f5b0 0f00 	cmpcs.w	r0, #8388608	; 0x800000
 8000a60:	d2ed      	bcs.n	8000a3e <__addsf3+0x92>
 8000a62:	fab0 fc80 	clz	ip, r0
 8000a66:	f1ac 0c08 	sub.w	ip, ip, #8
 8000a6a:	ebb2 020c 	subs.w	r2, r2, ip
 8000a6e:	fa00 f00c 	lsl.w	r0, r0, ip
 8000a72:	bfaa      	itet	ge
 8000a74:	eb00 50c2 	addge.w	r0, r0, r2, lsl #23
 8000a78:	4252      	neglt	r2, r2
 8000a7a:	4318      	orrge	r0, r3
 8000a7c:	bfbc      	itt	lt
 8000a7e:	40d0      	lsrlt	r0, r2
 8000a80:	4318      	orrlt	r0, r3
 8000a82:	4770      	bx	lr
 8000a84:	f092 0f00 	teq	r2, #0
 8000a88:	f481 0100 	eor.w	r1, r1, #8388608	; 0x800000
 8000a8c:	bf06      	itte	eq
 8000a8e:	f480 0000 	eoreq.w	r0, r0, #8388608	; 0x800000
 8000a92:	3201      	addeq	r2, #1
 8000a94:	3b01      	subne	r3, #1
 8000a96:	e7b5      	b.n	8000a04 <__addsf3+0x58>
 8000a98:	ea4f 0341 	mov.w	r3, r1, lsl #1
 8000a9c:	ea7f 6c22 	mvns.w	ip, r2, asr #24
 8000aa0:	bf18      	it	ne
 8000aa2:	ea7f 6c23 	mvnsne.w	ip, r3, asr #24
 8000aa6:	d021      	beq.n	8000aec <__addsf3+0x140>
 8000aa8:	ea92 0f03 	teq	r2, r3
 8000aac:	d004      	beq.n	8000ab8 <__addsf3+0x10c>
 8000aae:	f092 0f00 	teq	r2, #0
 8000ab2:	bf08      	it	eq
 8000ab4:	4608      	moveq	r0, r1
 8000ab6:	4770      	bx	lr
 8000ab8:	ea90 0f01 	teq	r0, r1
 8000abc:	bf1c      	itt	ne
 8000abe:	2000      	movne	r0, #0
 8000ac0:	4770      	bxne	lr
 8000ac2:	f012 4f7f 	tst.w	r2, #4278190080	; 0xff000000
 8000ac6:	d104      	bne.n	8000ad2 <__addsf3+0x126>
 8000ac8:	0040      	lsls	r0, r0, #1
 8000aca:	bf28      	it	cs
 8000acc:	f040 4000 	orrcs.w	r0, r0, #2147483648	; 0x80000000
 8000ad0:	4770      	bx	lr
 8000ad2:	f112 7200 	adds.w	r2, r2, #33554432	; 0x2000000
 8000ad6:	bf3c      	itt	cc
 8000ad8:	f500 0000 	addcc.w	r0, r0, #8388608	; 0x800000
 8000adc:	4770      	bxcc	lr
 8000ade:	f000 4300 	and.w	r3, r0, #2147483648	; 0x80000000
 8000ae2:	f043 40fe 	orr.w	r0, r3, #2130706432	; 0x7f000000
 8000ae6:	f440 0000 	orr.w	r0, r0, #8388608	; 0x800000
 8000aea:	4770      	bx	lr
 8000aec:	ea7f 6222 	mvns.w	r2, r2, asr #24
 8000af0:	bf16      	itet	ne
 8000af2:	4608      	movne	r0, r1
 8000af4:	ea7f 6323 	mvnseq.w	r3, r3, asr #24
 8000af8:	4601      	movne	r1, r0
 8000afa:	0242      	lsls	r2, r0, #9
 8000afc:	bf06      	itte	eq
 8000afe:	ea5f 2341 	movseq.w	r3, r1, lsl #9
 8000b02:	ea90 0f01 	teqeq	r0, r1
 8000b06:	f440 0080 	orrne.w	r0, r0, #4194304	; 0x400000
 8000b0a:	4770      	bx	lr

08000b0c <__aeabi_ui2f>:
 8000b0c:	f04f 0300 	mov.w	r3, #0
 8000b10:	e004      	b.n	8000b1c <__aeabi_i2f+0x8>
 8000b12:	bf00      	nop

08000b14 <__aeabi_i2f>:
 8000b14:	f010 4300 	ands.w	r3, r0, #2147483648	; 0x80000000
 8000b18:	bf48      	it	mi
 8000b1a:	4240      	negmi	r0, r0
 8000b1c:	ea5f 0c00 	movs.w	ip, r0
 8000b20:	bf08      	it	eq
 8000b22:	4770      	bxeq	lr
 8000b24:	f043 4396 	orr.w	r3, r3, #1258291200	; 0x4b000000
 8000b28:	4601      	mov	r1, r0
 8000b2a:	f04f 0000 	mov.w	r0, #0
 8000b2e:	e01c      	b.n	8000b6a <__aeabi_l2f+0x2a>

08000b30 <__aeabi_ul2f>:
 8000b30:	ea50 0201 	orrs.w	r2, r0, r1
 8000b34:	bf08      	it	eq
 8000b36:	4770      	bxeq	lr
 8000b38:	f04f 0300 	mov.w	r3, #0
 8000b3c:	e00a      	b.n	8000b54 <__aeabi_l2f+0x14>
 8000b3e:	bf00      	nop

08000b40 <__aeabi_l2f>:
 8000b40:	ea50 0201 	orrs.w	r2, r0, r1
 8000b44:	bf08      	it	eq
 8000b46:	4770      	bxeq	lr
 8000b48:	f011 4300 	ands.w	r3, r1, #2147483648	; 0x80000000
 8000b4c:	d502      	bpl.n	8000b54 <__aeabi_l2f+0x14>
 8000b4e:	4240      	negs	r0, r0
 8000b50:	eb61 0141 	sbc.w	r1, r1, r1, lsl #1
 8000b54:	ea5f 0c01 	movs.w	ip, r1
 8000b58:	bf02      	ittt	eq
 8000b5a:	4684      	moveq	ip, r0
 8000b5c:	4601      	moveq	r1, r0
 8000b5e:	2000      	moveq	r0, #0
 8000b60:	f043 43b6 	orr.w	r3, r3, #1526726656	; 0x5b000000
 8000b64:	bf08      	it	eq
 8000b66:	f1a3 5380 	subeq.w	r3, r3, #268435456	; 0x10000000
 8000b6a:	f5a3 0300 	sub.w	r3, r3, #8388608	; 0x800000
 8000b6e:	fabc f28c 	clz	r2, ip
 8000b72:	3a08      	subs	r2, #8
 8000b74:	eba3 53c2 	sub.w	r3, r3, r2, lsl #23
 8000b78:	db10      	blt.n	8000b9c <__aeabi_l2f+0x5c>
 8000b7a:	fa01 fc02 	lsl.w	ip, r1, r2
 8000b7e:	4463      	add	r3, ip
 8000b80:	fa00 fc02 	lsl.w	ip, r0, r2
 8000b84:	f1c2 0220 	rsb	r2, r2, #32
 8000b88:	f1bc 4f00 	cmp.w	ip, #2147483648	; 0x80000000
 8000b8c:	fa20 f202 	lsr.w	r2, r0, r2
 8000b90:	eb43 0002 	adc.w	r0, r3, r2
 8000b94:	bf08      	it	eq
 8000b96:	f020 0001 	biceq.w	r0, r0, #1
 8000b9a:	4770      	bx	lr
 8000b9c:	f102 0220 	add.w	r2, r2, #32
 8000ba0:	fa01 fc02 	lsl.w	ip, r1, r2
 8000ba4:	f1c2 0220 	rsb	r2, r2, #32
 8000ba8:	ea50 004c 	orrs.w	r0, r0, ip, lsl #1
 8000bac:	fa21 f202 	lsr.w	r2, r1, r2
 8000bb0:	eb43 0002 	adc.w	r0, r3, r2
 8000bb4:	bf08      	it	eq
 8000bb6:	ea20 70dc 	biceq.w	r0, r0, ip, lsr #31
 8000bba:	4770      	bx	lr

08000bbc <__aeabi_fmul>:
 8000bbc:	f04f 0cff 	mov.w	ip, #255	; 0xff
 8000bc0:	ea1c 52d0 	ands.w	r2, ip, r0, lsr #23
 8000bc4:	bf1e      	ittt	ne
 8000bc6:	ea1c 53d1 	andsne.w	r3, ip, r1, lsr #23
 8000bca:	ea92 0f0c 	teqne	r2, ip
 8000bce:	ea93 0f0c 	teqne	r3, ip
 8000bd2:	d06f      	beq.n	8000cb4 <__aeabi_fmul+0xf8>
 8000bd4:	441a      	add	r2, r3
 8000bd6:	ea80 0c01 	eor.w	ip, r0, r1
 8000bda:	0240      	lsls	r0, r0, #9
 8000bdc:	bf18      	it	ne
 8000bde:	ea5f 2141 	movsne.w	r1, r1, lsl #9
 8000be2:	d01e      	beq.n	8000c22 <__aeabi_fmul+0x66>
 8000be4:	f04f 6300 	mov.w	r3, #134217728	; 0x8000000
 8000be8:	ea43 1050 	orr.w	r0, r3, r0, lsr #5
 8000bec:	ea43 1151 	orr.w	r1, r3, r1, lsr #5
 8000bf0:	fba0 3101 	umull	r3, r1, r0, r1
 8000bf4:	f00c 4000 	and.w	r0, ip, #2147483648	; 0x80000000
 8000bf8:	f5b1 0f00 	cmp.w	r1, #8388608	; 0x800000
 8000bfc:	bf3e      	ittt	cc
 8000bfe:	0049      	lslcc	r1, r1, #1
 8000c00:	ea41 71d3 	orrcc.w	r1, r1, r3, lsr #31
 8000c04:	005b      	lslcc	r3, r3, #1
 8000c06:	ea40 0001 	orr.w	r0, r0, r1
 8000c0a:	f162 027f 	sbc.w	r2, r2, #127	; 0x7f
 8000c0e:	2afd      	cmp	r2, #253	; 0xfd
 8000c10:	d81d      	bhi.n	8000c4e <__aeabi_fmul+0x92>
 8000c12:	f1b3 4f00 	cmp.w	r3, #2147483648	; 0x80000000
 8000c16:	eb40 50c2 	adc.w	r0, r0, r2, lsl #23
 8000c1a:	bf08      	it	eq
 8000c1c:	f020 0001 	biceq.w	r0, r0, #1
 8000c20:	4770      	bx	lr
 8000c22:	f090 0f00 	teq	r0, #0
 8000c26:	f00c 4c00 	and.w	ip, ip, #2147483648	; 0x80000000
 8000c2a:	bf08      	it	eq
 8000c2c:	0249      	lsleq	r1, r1, #9
 8000c2e:	ea4c 2050 	orr.w	r0, ip, r0, lsr #9
 8000c32:	ea40 2051 	orr.w	r0, r0, r1, lsr #9
 8000c36:	3a7f      	subs	r2, #127	; 0x7f
 8000c38:	bfc2      	ittt	gt
 8000c3a:	f1d2 03ff 	rsbsgt	r3, r2, #255	; 0xff
 8000c3e:	ea40 50c2 	orrgt.w	r0, r0, r2, lsl #23
 8000c42:	4770      	bxgt	lr
 8000c44:	f440 0000 	orr.w	r0, r0, #8388608	; 0x800000
 8000c48:	f04f 0300 	mov.w	r3, #0
 8000c4c:	3a01      	subs	r2, #1
 8000c4e:	dc5d      	bgt.n	8000d0c <__aeabi_fmul+0x150>
 8000c50:	f112 0f19 	cmn.w	r2, #25
 8000c54:	bfdc      	itt	le
 8000c56:	f000 4000 	andle.w	r0, r0, #2147483648	; 0x80000000
 8000c5a:	4770      	bxle	lr
 8000c5c:	f1c2 0200 	rsb	r2, r2, #0
 8000c60:	0041      	lsls	r1, r0, #1
 8000c62:	fa21 f102 	lsr.w	r1, r1, r2
 8000c66:	f1c2 0220 	rsb	r2, r2, #32
 8000c6a:	fa00 fc02 	lsl.w	ip, r0, r2
 8000c6e:	ea5f 0031 	movs.w	r0, r1, rrx
 8000c72:	f140 0000 	adc.w	r0, r0, #0
 8000c76:	ea53 034c 	orrs.w	r3, r3, ip, lsl #1
 8000c7a:	bf08      	it	eq
 8000c7c:	ea20 70dc 	biceq.w	r0, r0, ip, lsr #31
 8000c80:	4770      	bx	lr
 8000c82:	f092 0f00 	teq	r2, #0
 8000c86:	f000 4c00 	and.w	ip, r0, #2147483648	; 0x80000000
 8000c8a:	bf02      	ittt	eq
 8000c8c:	0040      	lsleq	r0, r0, #1
 8000c8e:	f410 0f00 	tsteq.w	r0, #8388608	; 0x800000
 8000c92:	3a01      	subeq	r2, #1
 8000c94:	d0f9      	beq.n	8000c8a <__aeabi_fmul+0xce>
 8000c96:	ea40 000c 	orr.w	r0, r0, ip
 8000c9a:	f093 0f00 	teq	r3, #0
 8000c9e:	f001 4c00 	and.w	ip, r1, #2147483648	; 0x80000000
 8000ca2:	bf02      	ittt	eq
 8000ca4:	0049      	lsleq	r1, r1, #1
 8000ca6:	f411 0f00 	tsteq.w	r1, #8388608	; 0x800000
 8000caa:	3b01      	subeq	r3, #1
 8000cac:	d0f9      	beq.n	8000ca2 <__aeabi_fmul+0xe6>
 8000cae:	ea41 010c 	orr.w	r1, r1, ip
 8000cb2:	e78f      	b.n	8000bd4 <__aeabi_fmul+0x18>
 8000cb4:	ea0c 53d1 	and.w	r3, ip, r1, lsr #23
 8000cb8:	ea92 0f0c 	teq	r2, ip
 8000cbc:	bf18      	it	ne
 8000cbe:	ea93 0f0c 	teqne	r3, ip
 8000cc2:	d00a      	beq.n	8000cda <__aeabi_fmul+0x11e>
 8000cc4:	f030 4c00 	bics.w	ip, r0, #2147483648	; 0x80000000
 8000cc8:	bf18      	it	ne
 8000cca:	f031 4c00 	bicsne.w	ip, r1, #2147483648	; 0x80000000
 8000cce:	d1d8      	bne.n	8000c82 <__aeabi_fmul+0xc6>
 8000cd0:	ea80 0001 	eor.w	r0, r0, r1
 8000cd4:	f000 4000 	and.w	r0, r0, #2147483648	; 0x80000000
 8000cd8:	4770      	bx	lr
 8000cda:	f090 0f00 	teq	r0, #0
 8000cde:	bf17      	itett	ne
 8000ce0:	f090 4f00 	teqne	r0, #2147483648	; 0x80000000
 8000ce4:	4608      	moveq	r0, r1
 8000ce6:	f091 0f00 	teqne	r1, #0
 8000cea:	f091 4f00 	teqne	r1, #2147483648	; 0x80000000
 8000cee:	d014      	beq.n	8000d1a <__aeabi_fmul+0x15e>
 8000cf0:	ea92 0f0c 	teq	r2, ip
 8000cf4:	d101      	bne.n	8000cfa <__aeabi_fmul+0x13e>
 8000cf6:	0242      	lsls	r2, r0, #9
 8000cf8:	d10f      	bne.n	8000d1a <__aeabi_fmul+0x15e>
 8000cfa:	ea93 0f0c 	teq	r3, ip
 8000cfe:	d103      	bne.n	8000d08 <__aeabi_fmul+0x14c>
 8000d00:	024b      	lsls	r3, r1, #9
 8000d02:	bf18      	it	ne
 8000d04:	4608      	movne	r0, r1
 8000d06:	d108      	bne.n	8000d1a <__aeabi_fmul+0x15e>
 8000d08:	ea80 0001 	eor.w	r0, r0, r1
 8000d0c:	f000 4000 	and.w	r0, r0, #2147483648	; 0x80000000
 8000d10:	f040 40fe 	orr.w	r0, r0, #2130706432	; 0x7f000000
 8000d14:	f440 0000 	orr.w	r0, r0, #8388608	; 0x800000
 8000d18:	4770      	bx	lr
 8000d1a:	f040 40fe 	orr.w	r0, r0, #2130706432	; 0x7f000000
 8000d1e:	f440 0040 	orr.w	r0, r0, #12582912	; 0xc00000
 8000d22:	4770      	bx	lr

08000d24 <__aeabi_fdiv>:
 8000d24:	f04f 0cff 	mov.w	ip, #255	; 0xff
 8000d28:	ea1c 52d0 	ands.w	r2, ip, r0, lsr #23
 8000d2c:	bf1e      	ittt	ne
 8000d2e:	ea1c 53d1 	andsne.w	r3, ip, r1, lsr #23
 8000d32:	ea92 0f0c 	teqne	r2, ip
 8000d36:	ea93 0f0c 	teqne	r3, ip
 8000d3a:	d069      	beq.n	8000e10 <__aeabi_fdiv+0xec>
 8000d3c:	eba2 0203 	sub.w	r2, r2, r3
 8000d40:	ea80 0c01 	eor.w	ip, r0, r1
 8000d44:	0249      	lsls	r1, r1, #9
 8000d46:	ea4f 2040 	mov.w	r0, r0, lsl #9
 8000d4a:	d037      	beq.n	8000dbc <__aeabi_fdiv+0x98>
 8000d4c:	f04f 5380 	mov.w	r3, #268435456	; 0x10000000
 8000d50:	ea43 1111 	orr.w	r1, r3, r1, lsr #4
 8000d54:	ea43 1310 	orr.w	r3, r3, r0, lsr #4
 8000d58:	f00c 4000 	and.w	r0, ip, #2147483648	; 0x80000000
 8000d5c:	428b      	cmp	r3, r1
 8000d5e:	bf38      	it	cc
 8000d60:	005b      	lslcc	r3, r3, #1
 8000d62:	f142 027d 	adc.w	r2, r2, #125	; 0x7d
 8000d66:	f44f 0c00 	mov.w	ip, #8388608	; 0x800000
 8000d6a:	428b      	cmp	r3, r1
 8000d6c:	bf24      	itt	cs
 8000d6e:	1a5b      	subcs	r3, r3, r1
 8000d70:	ea40 000c 	orrcs.w	r0, r0, ip
 8000d74:	ebb3 0f51 	cmp.w	r3, r1, lsr #1
 8000d78:	bf24      	itt	cs
 8000d7a:	eba3 0351 	subcs.w	r3, r3, r1, lsr #1
 8000d7e:	ea40 005c 	orrcs.w	r0, r0, ip, lsr #1
 8000d82:	ebb3 0f91 	cmp.w	r3, r1, lsr #2
 8000d86:	bf24      	itt	cs
 8000d88:	eba3 0391 	subcs.w	r3, r3, r1, lsr #2
 8000d8c:	ea40 009c 	orrcs.w	r0, r0, ip, lsr #2
 8000d90:	ebb3 0fd1 	cmp.w	r3, r1, lsr #3
 8000d94:	bf24      	itt	cs
 8000d96:	eba3 03d1 	subcs.w	r3, r3, r1, lsr #3
 8000d9a:	ea40 00dc 	orrcs.w	r0, r0, ip, lsr #3
 8000d9e:	011b      	lsls	r3, r3, #4
 8000da0:	bf18      	it	ne
 8000da2:	ea5f 1c1c 	movsne.w	ip, ip, lsr #4
 8000da6:	d1e0      	bne.n	8000d6a <__aeabi_fdiv+0x46>
 8000da8:	2afd      	cmp	r2, #253	; 0xfd
 8000daa:	f63f af50 	bhi.w	8000c4e <__aeabi_fmul+0x92>
 8000dae:	428b      	cmp	r3, r1
 8000db0:	eb40 50c2 	adc.w	r0, r0, r2, lsl #23
 8000db4:	bf08      	it	eq
 8000db6:	f020 0001 	biceq.w	r0, r0, #1
 8000dba:	4770      	bx	lr
 8000dbc:	f00c 4c00 	and.w	ip, ip, #2147483648	; 0x80000000
 8000dc0:	ea4c 2050 	orr.w	r0, ip, r0, lsr #9
 8000dc4:	327f      	adds	r2, #127	; 0x7f
 8000dc6:	bfc2      	ittt	gt
 8000dc8:	f1d2 03ff 	rsbsgt	r3, r2, #255	; 0xff
 8000dcc:	ea40 50c2 	orrgt.w	r0, r0, r2, lsl #23
 8000dd0:	4770      	bxgt	lr
 8000dd2:	f440 0000 	orr.w	r0, r0, #8388608	; 0x800000
 8000dd6:	f04f 0300 	mov.w	r3, #0
 8000dda:	3a01      	subs	r2, #1
 8000ddc:	e737      	b.n	8000c4e <__aeabi_fmul+0x92>
 8000dde:	f092 0f00 	teq	r2, #0
 8000de2:	f000 4c00 	and.w	ip, r0, #2147483648	; 0x80000000
 8000de6:	bf02      	ittt	eq
 8000de8:	0040      	lsleq	r0, r0, #1
 8000dea:	f410 0f00 	tsteq.w	r0, #8388608	; 0x800000
 8000dee:	3a01      	subeq	r2, #1
 8000df0:	d0f9      	beq.n	8000de6 <__aeabi_fdiv+0xc2>
 8000df2:	ea40 000c 	orr.w	r0, r0, ip
 8000df6:	f093 0f00 	teq	r3, #0
 8000dfa:	f001 4c00 	and.w	ip, r1, #2147483648	; 0x80000000
 8000dfe:	bf02      	ittt	eq
 8000e00:	0049      	lsleq	r1, r1, #1
 8000e02:	f411 0f00 	tsteq.w	r1, #8388608	; 0x800000
 8000e06:	3b01      	subeq	r3, #1
 8000e08:	d0f9      	beq.n	8000dfe <__aeabi_fdiv+0xda>
 8000e0a:	ea41 010c 	orr.w	r1, r1, ip
 8000e0e:	e795      	b.n	8000d3c <__aeabi_fdiv+0x18>
 8000e10:	ea0c 53d1 	and.w	r3, ip, r1, lsr #23
 8000e14:	ea92 0f0c 	teq	r2, ip
 8000e18:	d108      	bne.n	8000e2c <__aeabi_fdiv+0x108>
 8000e1a:	0242      	lsls	r2, r0, #9
 8000e1c:	f47f af7d 	bne.w	8000d1a <__aeabi_fmul+0x15e>
 8000e20:	ea93 0f0c 	teq	r3, ip
 8000e24:	f47f af70 	bne.w	8000d08 <__aeabi_fmul+0x14c>
 8000e28:	4608      	mov	r0, r1
 8000e2a:	e776      	b.n	8000d1a <__aeabi_fmul+0x15e>
 8000e2c:	ea93 0f0c 	teq	r3, ip
 8000e30:	d104      	bne.n	8000e3c <__aeabi_fdiv+0x118>
 8000e32:	024b      	lsls	r3, r1, #9
 8000e34:	f43f af4c 	beq.w	8000cd0 <__aeabi_fmul+0x114>
 8000e38:	4608      	mov	r0, r1
 8000e3a:	e76e      	b.n	8000d1a <__aeabi_fmul+0x15e>
 8000e3c:	f030 4c00 	bics.w	ip, r0, #2147483648	; 0x80000000
 8000e40:	bf18      	it	ne
 8000e42:	f031 4c00 	bicsne.w	ip, r1, #2147483648	; 0x80000000
 8000e46:	d1ca      	bne.n	8000dde <__aeabi_fdiv+0xba>
 8000e48:	f030 4200 	bics.w	r2, r0, #2147483648	; 0x80000000
 8000e4c:	f47f af5c 	bne.w	8000d08 <__aeabi_fmul+0x14c>
 8000e50:	f031 4300 	bics.w	r3, r1, #2147483648	; 0x80000000
 8000e54:	f47f af3c 	bne.w	8000cd0 <__aeabi_fmul+0x114>
 8000e58:	e75f      	b.n	8000d1a <__aeabi_fmul+0x15e>
 8000e5a:	bf00      	nop

08000e5c <__gesf2>:
 8000e5c:	f04f 3cff 	mov.w	ip, #4294967295
 8000e60:	e006      	b.n	8000e70 <__cmpsf2+0x4>
 8000e62:	bf00      	nop

08000e64 <__lesf2>:
 8000e64:	f04f 0c01 	mov.w	ip, #1
 8000e68:	e002      	b.n	8000e70 <__cmpsf2+0x4>
 8000e6a:	bf00      	nop

08000e6c <__cmpsf2>:
 8000e6c:	f04f 0c01 	mov.w	ip, #1
 8000e70:	f84d cd04 	str.w	ip, [sp, #-4]!
 8000e74:	ea4f 0240 	mov.w	r2, r0, lsl #1
 8000e78:	ea4f 0341 	mov.w	r3, r1, lsl #1
 8000e7c:	ea7f 6c22 	mvns.w	ip, r2, asr #24
 8000e80:	bf18      	it	ne
 8000e82:	ea7f 6c23 	mvnsne.w	ip, r3, asr #24
 8000e86:	d011      	beq.n	8000eac <__cmpsf2+0x40>
 8000e88:	b001      	add	sp, #4
 8000e8a:	ea52 0c53 	orrs.w	ip, r2, r3, lsr #1
 8000e8e:	bf18      	it	ne
 8000e90:	ea90 0f01 	teqne	r0, r1
 8000e94:	bf58      	it	pl
 8000e96:	ebb2 0003 	subspl.w	r0, r2, r3
 8000e9a:	bf88      	it	hi
 8000e9c:	17c8      	asrhi	r0, r1, #31
 8000e9e:	bf38      	it	cc
 8000ea0:	ea6f 70e1 	mvncc.w	r0, r1, asr #31
 8000ea4:	bf18      	it	ne
 8000ea6:	f040 0001 	orrne.w	r0, r0, #1
 8000eaa:	4770      	bx	lr
 8000eac:	ea7f 6c22 	mvns.w	ip, r2, asr #24
 8000eb0:	d102      	bne.n	8000eb8 <__cmpsf2+0x4c>
 8000eb2:	ea5f 2c40 	movs.w	ip, r0, lsl #9
 8000eb6:	d105      	bne.n	8000ec4 <__cmpsf2+0x58>
 8000eb8:	ea7f 6c23 	mvns.w	ip, r3, asr #24
 8000ebc:	d1e4      	bne.n	8000e88 <__cmpsf2+0x1c>
 8000ebe:	ea5f 2c41 	movs.w	ip, r1, lsl #9
 8000ec2:	d0e1      	beq.n	8000e88 <__cmpsf2+0x1c>
 8000ec4:	f85d 0b04 	ldr.w	r0, [sp], #4
 8000ec8:	4770      	bx	lr
 8000eca:	bf00      	nop

08000ecc <__aeabi_cfrcmple>:
 8000ecc:	4684      	mov	ip, r0
 8000ece:	4608      	mov	r0, r1
 8000ed0:	4661      	mov	r1, ip
 8000ed2:	e7ff      	b.n	8000ed4 <__aeabi_cfcmpeq>

08000ed4 <__aeabi_cfcmpeq>:
 8000ed4:	b50f      	push	{r0, r1, r2, r3, lr}
 8000ed6:	f7ff ffc9 	bl	8000e6c <__cmpsf2>
 8000eda:	2800      	cmp	r0, #0
 8000edc:	bf48      	it	mi
 8000ede:	f110 0f00 	cmnmi.w	r0, #0
 8000ee2:	bd0f      	pop	{r0, r1, r2, r3, pc}

08000ee4 <__aeabi_fcmpeq>:
 8000ee4:	f84d ed08 	str.w	lr, [sp, #-8]!
 8000ee8:	f7ff fff4 	bl	8000ed4 <__aeabi_cfcmpeq>
 8000eec:	bf0c      	ite	eq
 8000eee:	2001      	moveq	r0, #1
 8000ef0:	2000      	movne	r0, #0
 8000ef2:	f85d fb08 	ldr.w	pc, [sp], #8
 8000ef6:	bf00      	nop

08000ef8 <__aeabi_fcmplt>:
 8000ef8:	f84d ed08 	str.w	lr, [sp, #-8]!
 8000efc:	f7ff ffea 	bl	8000ed4 <__aeabi_cfcmpeq>
 8000f00:	bf34      	ite	cc
 8000f02:	2001      	movcc	r0, #1
 8000f04:	2000      	movcs	r0, #0
 8000f06:	f85d fb08 	ldr.w	pc, [sp], #8
 8000f0a:	bf00      	nop

08000f0c <__aeabi_fcmple>:
 8000f0c:	f84d ed08 	str.w	lr, [sp, #-8]!
 8000f10:	f7ff ffe0 	bl	8000ed4 <__aeabi_cfcmpeq>
 8000f14:	bf94      	ite	ls
 8000f16:	2001      	movls	r0, #1
 8000f18:	2000      	movhi	r0, #0
 8000f1a:	f85d fb08 	ldr.w	pc, [sp], #8
 8000f1e:	bf00      	nop

08000f20 <__aeabi_fcmpge>:
 8000f20:	f84d ed08 	str.w	lr, [sp, #-8]!
 8000f24:	f7ff ffd2 	bl	8000ecc <__aeabi_cfrcmple>
 8000f28:	bf94      	ite	ls
 8000f2a:	2001      	movls	r0, #1
 8000f2c:	2000      	movhi	r0, #0
 8000f2e:	f85d fb08 	ldr.w	pc, [sp], #8
 8000f32:	bf00      	nop

08000f34 <__aeabi_fcmpgt>:
 8000f34:	f84d ed08 	str.w	lr, [sp, #-8]!
 8000f38:	f7ff ffc8 	bl	8000ecc <__aeabi_cfrcmple>
 8000f3c:	bf34      	ite	cc
 8000f3e:	2001      	movcc	r0, #1
 8000f40:	2000      	movcs	r0, #0
 8000f42:	f85d fb08 	ldr.w	pc, [sp], #8
 8000f46:	bf00      	nop

08000f48 <__aeabi_f2iz>:
 8000f48:	ea4f 0240 	mov.w	r2, r0, lsl #1
 8000f4c:	f1b2 4ffe 	cmp.w	r2, #2130706432	; 0x7f000000
 8000f50:	d30f      	bcc.n	8000f72 <__aeabi_f2iz+0x2a>
 8000f52:	f04f 039e 	mov.w	r3, #158	; 0x9e
 8000f56:	ebb3 6212 	subs.w	r2, r3, r2, lsr #24
 8000f5a:	d90d      	bls.n	8000f78 <__aeabi_f2iz+0x30>
 8000f5c:	ea4f 2300 	mov.w	r3, r0, lsl #8
 8000f60:	f043 4300 	orr.w	r3, r3, #2147483648	; 0x80000000
 8000f64:	f010 4f00 	tst.w	r0, #2147483648	; 0x80000000
 8000f68:	fa23 f002 	lsr.w	r0, r3, r2
 8000f6c:	bf18      	it	ne
 8000f6e:	4240      	negne	r0, r0
 8000f70:	4770      	bx	lr
 8000f72:	f04f 0000 	mov.w	r0, #0
 8000f76:	4770      	bx	lr
 8000f78:	f112 0f61 	cmn.w	r2, #97	; 0x61
 8000f7c:	d101      	bne.n	8000f82 <__aeabi_f2iz+0x3a>
 8000f7e:	0242      	lsls	r2, r0, #9
 8000f80:	d105      	bne.n	8000f8e <__aeabi_f2iz+0x46>
 8000f82:	f010 4000 	ands.w	r0, r0, #2147483648	; 0x80000000
 8000f86:	bf08      	it	eq
 8000f88:	f06f 4000 	mvneq.w	r0, #2147483648	; 0x80000000
 8000f8c:	4770      	bx	lr
 8000f8e:	f04f 0000 	mov.w	r0, #0
 8000f92:	4770      	bx	lr

08000f94 <__aeabi_f2uiz>:
 8000f94:	0042      	lsls	r2, r0, #1
 8000f96:	d20e      	bcs.n	8000fb6 <__aeabi_f2uiz+0x22>
 8000f98:	f1b2 4ffe 	cmp.w	r2, #2130706432	; 0x7f000000
 8000f9c:	d30b      	bcc.n	8000fb6 <__aeabi_f2uiz+0x22>
 8000f9e:	f04f 039e 	mov.w	r3, #158	; 0x9e
 8000fa2:	ebb3 6212 	subs.w	r2, r3, r2, lsr #24
 8000fa6:	d409      	bmi.n	8000fbc <__aeabi_f2uiz+0x28>
 8000fa8:	ea4f 2300 	mov.w	r3, r0, lsl #8
 8000fac:	f043 4300 	orr.w	r3, r3, #2147483648	; 0x80000000
 8000fb0:	fa23 f002 	lsr.w	r0, r3, r2
 8000fb4:	4770      	bx	lr
 8000fb6:	f04f 0000 	mov.w	r0, #0
 8000fba:	4770      	bx	lr
 8000fbc:	f112 0f61 	cmn.w	r2, #97	; 0x61
 8000fc0:	d101      	bne.n	8000fc6 <__aeabi_f2uiz+0x32>
 8000fc2:	0242      	lsls	r2, r0, #9
 8000fc4:	d102      	bne.n	8000fcc <__aeabi_f2uiz+0x38>
 8000fc6:	f04f 30ff 	mov.w	r0, #4294967295
 8000fca:	4770      	bx	lr
 8000fcc:	f04f 0000 	mov.w	r0, #0
 8000fd0:	4770      	bx	lr
 8000fd2:	bf00      	nop

08000fd4 <selfrel_offset31>:
 8000fd4:	6803      	ldr	r3, [r0, #0]
 8000fd6:	005a      	lsls	r2, r3, #1
 8000fd8:	bf4c      	ite	mi
 8000fda:	f043 4300 	orrmi.w	r3, r3, #2147483648	; 0x80000000
 8000fde:	f023 4300 	bicpl.w	r3, r3, #2147483648	; 0x80000000
 8000fe2:	4418      	add	r0, r3
 8000fe4:	4770      	bx	lr
 8000fe6:	bf00      	nop

08000fe8 <search_EIT_table>:
 8000fe8:	e92d 43f8 	stmdb	sp!, {r3, r4, r5, r6, r7, r8, r9, lr}
 8000fec:	b339      	cbz	r1, 800103e <search_EIT_table+0x56>
 8000fee:	1e4f      	subs	r7, r1, #1
 8000ff0:	4604      	mov	r4, r0
 8000ff2:	4615      	mov	r5, r2
 8000ff4:	463e      	mov	r6, r7
 8000ff6:	f04f 0800 	mov.w	r8, #0
 8000ffa:	eb08 0106 	add.w	r1, r8, r6
 8000ffe:	eb01 71d1 	add.w	r1, r1, r1, lsr #31
 8001002:	1049      	asrs	r1, r1, #1
 8001004:	eb04 09c1 	add.w	r9, r4, r1, lsl #3
 8001008:	4648      	mov	r0, r9
 800100a:	f7ff ffe3 	bl	8000fd4 <selfrel_offset31>
 800100e:	4603      	mov	r3, r0
 8001010:	00c8      	lsls	r0, r1, #3
 8001012:	3008      	adds	r0, #8
 8001014:	428f      	cmp	r7, r1
 8001016:	4420      	add	r0, r4
 8001018:	d00b      	beq.n	8001032 <search_EIT_table+0x4a>
 800101a:	42ab      	cmp	r3, r5
 800101c:	d80b      	bhi.n	8001036 <search_EIT_table+0x4e>
 800101e:	f7ff ffd9 	bl	8000fd4 <selfrel_offset31>
 8001022:	3801      	subs	r0, #1
 8001024:	42a8      	cmp	r0, r5
 8001026:	f101 0801 	add.w	r8, r1, #1
 800102a:	d3e6      	bcc.n	8000ffa <search_EIT_table+0x12>
 800102c:	4648      	mov	r0, r9
 800102e:	e8bd 83f8 	ldmia.w	sp!, {r3, r4, r5, r6, r7, r8, r9, pc}
 8001032:	42ab      	cmp	r3, r5
 8001034:	d9fa      	bls.n	800102c <search_EIT_table+0x44>
 8001036:	4588      	cmp	r8, r1
 8001038:	d001      	beq.n	800103e <search_EIT_table+0x56>
 800103a:	1e4e      	subs	r6, r1, #1
 800103c:	e7dd      	b.n	8000ffa <search_EIT_table+0x12>
 800103e:	f04f 0900 	mov.w	r9, #0
 8001042:	4648      	mov	r0, r9
 8001044:	e8bd 83f8 	ldmia.w	sp!, {r3, r4, r5, r6, r7, r8, r9, pc}

08001048 <__gnu_unwind_get_pr_addr>:
 8001048:	2801      	cmp	r0, #1
 800104a:	d007      	beq.n	800105c <__gnu_unwind_get_pr_addr+0x14>
 800104c:	2802      	cmp	r0, #2
 800104e:	d007      	beq.n	8001060 <__gnu_unwind_get_pr_addr+0x18>
 8001050:	4b04      	ldr	r3, [pc, #16]	; (8001064 <__gnu_unwind_get_pr_addr+0x1c>)
 8001052:	2800      	cmp	r0, #0
 8001054:	bf0c      	ite	eq
 8001056:	4618      	moveq	r0, r3
 8001058:	2000      	movne	r0, #0
 800105a:	4770      	bx	lr
 800105c:	4802      	ldr	r0, [pc, #8]	; (8001068 <__gnu_unwind_get_pr_addr+0x20>)
 800105e:	4770      	bx	lr
 8001060:	4802      	ldr	r0, [pc, #8]	; (800106c <__gnu_unwind_get_pr_addr+0x24>)
 8001062:	4770      	bx	lr
 8001064:	08001739 	.word	0x08001739
 8001068:	0800173d 	.word	0x0800173d
 800106c:	08001741 	.word	0x08001741

08001070 <get_eit_entry>:
 8001070:	b530      	push	{r4, r5, lr}
 8001072:	4b24      	ldr	r3, [pc, #144]	; (8001104 <get_eit_entry+0x94>)
 8001074:	4604      	mov	r4, r0
 8001076:	b083      	sub	sp, #12
 8001078:	1e8d      	subs	r5, r1, #2
 800107a:	b33b      	cbz	r3, 80010cc <get_eit_entry+0x5c>
 800107c:	4628      	mov	r0, r5
 800107e:	a901      	add	r1, sp, #4
 8001080:	f3af 8000 	nop.w
 8001084:	b1e8      	cbz	r0, 80010c2 <get_eit_entry+0x52>
 8001086:	9901      	ldr	r1, [sp, #4]
 8001088:	462a      	mov	r2, r5
 800108a:	f7ff ffad 	bl	8000fe8 <search_EIT_table>
 800108e:	4601      	mov	r1, r0
 8001090:	b1b8      	cbz	r0, 80010c2 <get_eit_entry+0x52>
 8001092:	f7ff ff9f 	bl	8000fd4 <selfrel_offset31>
 8001096:	684b      	ldr	r3, [r1, #4]
 8001098:	64a0      	str	r0, [r4, #72]	; 0x48
 800109a:	2b01      	cmp	r3, #1
 800109c:	d02e      	beq.n	80010fc <get_eit_entry+0x8c>
 800109e:	2b00      	cmp	r3, #0
 80010a0:	db27      	blt.n	80010f2 <get_eit_entry+0x82>
 80010a2:	1d08      	adds	r0, r1, #4
 80010a4:	f7ff ff96 	bl	8000fd4 <selfrel_offset31>
 80010a8:	2300      	movs	r3, #0
 80010aa:	e9c4 0313 	strd	r0, r3, [r4, #76]	; 0x4c
 80010ae:	6803      	ldr	r3, [r0, #0]
 80010b0:	2b00      	cmp	r3, #0
 80010b2:	db12      	blt.n	80010da <get_eit_entry+0x6a>
 80010b4:	f7ff ff8e 	bl	8000fd4 <selfrel_offset31>
 80010b8:	4603      	mov	r3, r0
 80010ba:	2000      	movs	r0, #0
 80010bc:	6123      	str	r3, [r4, #16]
 80010be:	b003      	add	sp, #12
 80010c0:	bd30      	pop	{r4, r5, pc}
 80010c2:	2300      	movs	r3, #0
 80010c4:	2009      	movs	r0, #9
 80010c6:	6123      	str	r3, [r4, #16]
 80010c8:	b003      	add	sp, #12
 80010ca:	bd30      	pop	{r4, r5, pc}
 80010cc:	4b0e      	ldr	r3, [pc, #56]	; (8001108 <get_eit_entry+0x98>)
 80010ce:	490f      	ldr	r1, [pc, #60]	; (800110c <get_eit_entry+0x9c>)
 80010d0:	4618      	mov	r0, r3
 80010d2:	1ac9      	subs	r1, r1, r3
 80010d4:	10c9      	asrs	r1, r1, #3
 80010d6:	9101      	str	r1, [sp, #4]
 80010d8:	e7d6      	b.n	8001088 <get_eit_entry+0x18>
 80010da:	f3c3 6003 	ubfx	r0, r3, #24, #4
 80010de:	f7ff ffb3 	bl	8001048 <__gnu_unwind_get_pr_addr>
 80010e2:	2800      	cmp	r0, #0
 80010e4:	4603      	mov	r3, r0
 80010e6:	bf14      	ite	ne
 80010e8:	2000      	movne	r0, #0
 80010ea:	2009      	moveq	r0, #9
 80010ec:	6123      	str	r3, [r4, #16]
 80010ee:	b003      	add	sp, #12
 80010f0:	bd30      	pop	{r4, r5, pc}
 80010f2:	2301      	movs	r3, #1
 80010f4:	1d08      	adds	r0, r1, #4
 80010f6:	e9c4 0313 	strd	r0, r3, [r4, #76]	; 0x4c
 80010fa:	e7d8      	b.n	80010ae <get_eit_entry+0x3e>
 80010fc:	2300      	movs	r3, #0
 80010fe:	2005      	movs	r0, #5
 8001100:	6123      	str	r3, [r4, #16]
 8001102:	e7dc      	b.n	80010be <get_eit_entry+0x4e>
 8001104:	00000000 	.word	0x00000000
 8001108:	080077c0 	.word	0x080077c0
 800110c:	08007a20 	.word	0x08007a20

08001110 <restore_non_core_regs>:
 8001110:	6803      	ldr	r3, [r0, #0]
 8001112:	b510      	push	{r4, lr}
 8001114:	07da      	lsls	r2, r3, #31
 8001116:	4604      	mov	r4, r0
 8001118:	d406      	bmi.n	8001128 <restore_non_core_regs+0x18>
 800111a:	079b      	lsls	r3, r3, #30
 800111c:	f100 0048 	add.w	r0, r0, #72	; 0x48
 8001120:	d509      	bpl.n	8001136 <restore_non_core_regs+0x26>
 8001122:	f000 fc5d 	bl	80019e0 <__gnu_Unwind_Restore_VFP_D>
 8001126:	6823      	ldr	r3, [r4, #0]
 8001128:	0759      	lsls	r1, r3, #29
 800112a:	d509      	bpl.n	8001140 <restore_non_core_regs+0x30>
 800112c:	071a      	lsls	r2, r3, #28
 800112e:	d50e      	bpl.n	800114e <restore_non_core_regs+0x3e>
 8001130:	06db      	lsls	r3, r3, #27
 8001132:	d513      	bpl.n	800115c <restore_non_core_regs+0x4c>
 8001134:	bd10      	pop	{r4, pc}
 8001136:	f000 fc4b 	bl	80019d0 <__gnu_Unwind_Restore_VFP>
 800113a:	6823      	ldr	r3, [r4, #0]
 800113c:	0759      	lsls	r1, r3, #29
 800113e:	d4f5      	bmi.n	800112c <restore_non_core_regs+0x1c>
 8001140:	f104 00d0 	add.w	r0, r4, #208	; 0xd0
 8001144:	f000 fc54 	bl	80019f0 <__gnu_Unwind_Restore_VFP_D_16_to_31>
 8001148:	6823      	ldr	r3, [r4, #0]
 800114a:	071a      	lsls	r2, r3, #28
 800114c:	d4f0      	bmi.n	8001130 <restore_non_core_regs+0x20>
 800114e:	f504 70a8 	add.w	r0, r4, #336	; 0x150
 8001152:	f000 fc55 	bl	8001a00 <__gnu_Unwind_Restore_WMMXD>
 8001156:	6823      	ldr	r3, [r4, #0]
 8001158:	06db      	lsls	r3, r3, #27
 800115a:	d4eb      	bmi.n	8001134 <restore_non_core_regs+0x24>
 800115c:	f504 70e8 	add.w	r0, r4, #464	; 0x1d0
 8001160:	e8bd 4010 	ldmia.w	sp!, {r4, lr}
 8001164:	f000 bc90 	b.w	8001a88 <__gnu_Unwind_Restore_WMMXC>

08001168 <__gnu_unwind_24bit.constprop.0>:
 8001168:	2009      	movs	r0, #9
 800116a:	4770      	bx	lr

0800116c <_Unwind_decode_typeinfo_ptr.constprop.0>:
 800116c:	4603      	mov	r3, r0
 800116e:	6800      	ldr	r0, [r0, #0]
 8001170:	b100      	cbz	r0, 8001174 <_Unwind_decode_typeinfo_ptr.constprop.0+0x8>
 8001172:	4418      	add	r0, r3
 8001174:	4770      	bx	lr
 8001176:	bf00      	nop

08001178 <_Unwind_DebugHook>:
 8001178:	4770      	bx	lr
 800117a:	bf00      	nop

0800117c <unwind_phase2>:
 800117c:	b570      	push	{r4, r5, r6, lr}
 800117e:	4604      	mov	r4, r0
 8001180:	460e      	mov	r6, r1
 8001182:	4620      	mov	r0, r4
 8001184:	6c31      	ldr	r1, [r6, #64]	; 0x40
 8001186:	f7ff ff73 	bl	8001070 <get_eit_entry>
 800118a:	4605      	mov	r5, r0
 800118c:	b998      	cbnz	r0, 80011b6 <unwind_phase2+0x3a>
 800118e:	f8d6 c040 	ldr.w	ip, [r6, #64]	; 0x40
 8001192:	4632      	mov	r2, r6
 8001194:	4621      	mov	r1, r4
 8001196:	2001      	movs	r0, #1
 8001198:	6923      	ldr	r3, [r4, #16]
 800119a:	f8c4 c014 	str.w	ip, [r4, #20]
 800119e:	4798      	blx	r3
 80011a0:	2808      	cmp	r0, #8
 80011a2:	d0ee      	beq.n	8001182 <unwind_phase2+0x6>
 80011a4:	2807      	cmp	r0, #7
 80011a6:	d106      	bne.n	80011b6 <unwind_phase2+0x3a>
 80011a8:	4628      	mov	r0, r5
 80011aa:	6c31      	ldr	r1, [r6, #64]	; 0x40
 80011ac:	f7ff ffe4 	bl	8001178 <_Unwind_DebugHook>
 80011b0:	1d30      	adds	r0, r6, #4
 80011b2:	f000 fc01 	bl	80019b8 <__restore_core_regs>
 80011b6:	f005 fd27 	bl	8006c08 <abort>
 80011ba:	bf00      	nop

080011bc <unwind_phase2_forced>:
 80011bc:	e92d 47f0 	stmdb	sp!, {r4, r5, r6, r7, r8, r9, sl, lr}
 80011c0:	f04f 0a00 	mov.w	sl, #0
 80011c4:	f5ad 7d72 	sub.w	sp, sp, #968	; 0x3c8
 80011c8:	f10d 0e0c 	add.w	lr, sp, #12
 80011cc:	f101 0c04 	add.w	ip, r1, #4
 80011d0:	68c7      	ldr	r7, [r0, #12]
 80011d2:	f8d0 8018 	ldr.w	r8, [r0, #24]
 80011d6:	4606      	mov	r6, r0
 80011d8:	4614      	mov	r4, r2
 80011da:	e8bc 000f 	ldmia.w	ip!, {r0, r1, r2, r3}
 80011de:	e8ae 000f 	stmia.w	lr!, {r0, r1, r2, r3}
 80011e2:	e8bc 000f 	ldmia.w	ip!, {r0, r1, r2, r3}
 80011e6:	e8ae 000f 	stmia.w	lr!, {r0, r1, r2, r3}
 80011ea:	e8bc 000f 	ldmia.w	ip!, {r0, r1, r2, r3}
 80011ee:	e8ae 000f 	stmia.w	lr!, {r0, r1, r2, r3}
 80011f2:	e89c 000f 	ldmia.w	ip, {r0, r1, r2, r3}
 80011f6:	ad02      	add	r5, sp, #8
 80011f8:	e88e 000f 	stmia.w	lr, {r0, r1, r2, r3}
 80011fc:	f8c5 a000 	str.w	sl, [r5]
 8001200:	e021      	b.n	8001246 <unwind_phase2_forced+0x8a>
 8001202:	6c2b      	ldr	r3, [r5, #64]	; 0x40
 8001204:	f44f 72f0 	mov.w	r2, #480	; 0x1e0
 8001208:	4629      	mov	r1, r5
 800120a:	6173      	str	r3, [r6, #20]
 800120c:	a87a      	add	r0, sp, #488	; 0x1e8
 800120e:	f005 fd3d 	bl	8006c8c <memcpy>
 8001212:	4631      	mov	r1, r6
 8001214:	4650      	mov	r0, sl
 8001216:	6933      	ldr	r3, [r6, #16]
 8001218:	aa7a      	add	r2, sp, #488	; 0x1e8
 800121a:	4798      	blx	r3
 800121c:	9c88      	ldr	r4, [sp, #544]	; 0x220
 800121e:	4682      	mov	sl, r0
 8001220:	646c      	str	r4, [r5, #68]	; 0x44
 8001222:	4633      	mov	r3, r6
 8001224:	4632      	mov	r2, r6
 8001226:	4649      	mov	r1, r9
 8001228:	2001      	movs	r0, #1
 800122a:	e9cd 5800 	strd	r5, r8, [sp]
 800122e:	47b8      	blx	r7
 8001230:	4604      	mov	r4, r0
 8001232:	b9f0      	cbnz	r0, 8001272 <unwind_phase2_forced+0xb6>
 8001234:	f44f 72f0 	mov.w	r2, #480	; 0x1e0
 8001238:	4628      	mov	r0, r5
 800123a:	a97a      	add	r1, sp, #488	; 0x1e8
 800123c:	f005 fd26 	bl	8006c8c <memcpy>
 8001240:	f1ba 0f08 	cmp.w	sl, #8
 8001244:	d11b      	bne.n	800127e <unwind_phase2_forced+0xc2>
 8001246:	4630      	mov	r0, r6
 8001248:	6c29      	ldr	r1, [r5, #64]	; 0x40
 800124a:	f7ff ff11 	bl	8001070 <get_eit_entry>
 800124e:	f104 0909 	add.w	r9, r4, #9
 8001252:	fa5f fa89 	uxtb.w	sl, r9
 8001256:	4604      	mov	r4, r0
 8001258:	2800      	cmp	r0, #0
 800125a:	d0d2      	beq.n	8001202 <unwind_phase2_forced+0x46>
 800125c:	6ba9      	ldr	r1, [r5, #56]	; 0x38
 800125e:	4633      	mov	r3, r6
 8001260:	6469      	str	r1, [r5, #68]	; 0x44
 8001262:	4632      	mov	r2, r6
 8001264:	2001      	movs	r0, #1
 8001266:	e9cd 5800 	strd	r5, r8, [sp]
 800126a:	f04a 0110 	orr.w	r1, sl, #16
 800126e:	47b8      	blx	r7
 8001270:	b100      	cbz	r0, 8001274 <unwind_phase2_forced+0xb8>
 8001272:	2409      	movs	r4, #9
 8001274:	4620      	mov	r0, r4
 8001276:	f50d 7d72 	add.w	sp, sp, #968	; 0x3c8
 800127a:	e8bd 87f0 	ldmia.w	sp!, {r4, r5, r6, r7, r8, r9, sl, pc}
 800127e:	f1ba 0f07 	cmp.w	sl, #7
 8001282:	d1f6      	bne.n	8001272 <unwind_phase2_forced+0xb6>
 8001284:	4620      	mov	r0, r4
 8001286:	6c29      	ldr	r1, [r5, #64]	; 0x40
 8001288:	f7ff ff76 	bl	8001178 <_Unwind_DebugHook>
 800128c:	a803      	add	r0, sp, #12
 800128e:	f000 fb93 	bl	80019b8 <__restore_core_regs>
 8001292:	bf00      	nop

08001294 <_Unwind_GetCFA>:
 8001294:	6c40      	ldr	r0, [r0, #68]	; 0x44
 8001296:	4770      	bx	lr

08001298 <__gnu_Unwind_RaiseException>:
 8001298:	b5f0      	push	{r4, r5, r6, r7, lr}
 800129a:	f04f 37ff 	mov.w	r7, #4294967295
 800129e:	6bcb      	ldr	r3, [r1, #60]	; 0x3c
 80012a0:	b0f9      	sub	sp, #484	; 0x1e4
 80012a2:	640b      	str	r3, [r1, #64]	; 0x40
 80012a4:	ac01      	add	r4, sp, #4
 80012a6:	f101 0c04 	add.w	ip, r1, #4
 80012aa:	460e      	mov	r6, r1
 80012ac:	4605      	mov	r5, r0
 80012ae:	e8bc 000f 	ldmia.w	ip!, {r0, r1, r2, r3}
 80012b2:	c40f      	stmia	r4!, {r0, r1, r2, r3}
 80012b4:	e8bc 000f 	ldmia.w	ip!, {r0, r1, r2, r3}
 80012b8:	c40f      	stmia	r4!, {r0, r1, r2, r3}
 80012ba:	e8bc 000f 	ldmia.w	ip!, {r0, r1, r2, r3}
 80012be:	c40f      	stmia	r4!, {r0, r1, r2, r3}
 80012c0:	e89c 000f 	ldmia.w	ip, {r0, r1, r2, r3}
 80012c4:	e884 000f 	stmia.w	r4, {r0, r1, r2, r3}
 80012c8:	9700      	str	r7, [sp, #0]
 80012ca:	e006      	b.n	80012da <__gnu_Unwind_RaiseException+0x42>
 80012cc:	466a      	mov	r2, sp
 80012ce:	4629      	mov	r1, r5
 80012d0:	692b      	ldr	r3, [r5, #16]
 80012d2:	4798      	blx	r3
 80012d4:	2808      	cmp	r0, #8
 80012d6:	4604      	mov	r4, r0
 80012d8:	d108      	bne.n	80012ec <__gnu_Unwind_RaiseException+0x54>
 80012da:	4628      	mov	r0, r5
 80012dc:	9910      	ldr	r1, [sp, #64]	; 0x40
 80012de:	f7ff fec7 	bl	8001070 <get_eit_entry>
 80012e2:	2800      	cmp	r0, #0
 80012e4:	d0f2      	beq.n	80012cc <__gnu_Unwind_RaiseException+0x34>
 80012e6:	2009      	movs	r0, #9
 80012e8:	b079      	add	sp, #484	; 0x1e4
 80012ea:	bdf0      	pop	{r4, r5, r6, r7, pc}
 80012ec:	4668      	mov	r0, sp
 80012ee:	f7ff ff0f 	bl	8001110 <restore_non_core_regs>
 80012f2:	2c06      	cmp	r4, #6
 80012f4:	d1f7      	bne.n	80012e6 <__gnu_Unwind_RaiseException+0x4e>
 80012f6:	4631      	mov	r1, r6
 80012f8:	4628      	mov	r0, r5
 80012fa:	f7ff ff3f 	bl	800117c <unwind_phase2>
 80012fe:	bf00      	nop

08001300 <__gnu_Unwind_ForcedUnwind>:
 8001300:	b410      	push	{r4}
 8001302:	4614      	mov	r4, r2
 8001304:	6184      	str	r4, [r0, #24]
 8001306:	6bdc      	ldr	r4, [r3, #60]	; 0x3c
 8001308:	60c1      	str	r1, [r0, #12]
 800130a:	2200      	movs	r2, #0
 800130c:	641c      	str	r4, [r3, #64]	; 0x40
 800130e:	4619      	mov	r1, r3
 8001310:	bc10      	pop	{r4}
 8001312:	e753      	b.n	80011bc <unwind_phase2_forced>

08001314 <__gnu_Unwind_Resume>:
 8001314:	b570      	push	{r4, r5, r6, lr}
 8001316:	6943      	ldr	r3, [r0, #20]
 8001318:	68c6      	ldr	r6, [r0, #12]
 800131a:	640b      	str	r3, [r1, #64]	; 0x40
 800131c:	b9ae      	cbnz	r6, 800134a <__gnu_Unwind_Resume+0x36>
 800131e:	460a      	mov	r2, r1
 8001320:	6903      	ldr	r3, [r0, #16]
 8001322:	4604      	mov	r4, r0
 8001324:	460d      	mov	r5, r1
 8001326:	4601      	mov	r1, r0
 8001328:	2002      	movs	r0, #2
 800132a:	4798      	blx	r3
 800132c:	2807      	cmp	r0, #7
 800132e:	d005      	beq.n	800133c <__gnu_Unwind_Resume+0x28>
 8001330:	2808      	cmp	r0, #8
 8001332:	d10f      	bne.n	8001354 <__gnu_Unwind_Resume+0x40>
 8001334:	4629      	mov	r1, r5
 8001336:	4620      	mov	r0, r4
 8001338:	f7ff ff20 	bl	800117c <unwind_phase2>
 800133c:	4630      	mov	r0, r6
 800133e:	6c29      	ldr	r1, [r5, #64]	; 0x40
 8001340:	f7ff ff1a 	bl	8001178 <_Unwind_DebugHook>
 8001344:	1d28      	adds	r0, r5, #4
 8001346:	f000 fb37 	bl	80019b8 <__restore_core_regs>
 800134a:	2201      	movs	r2, #1
 800134c:	f7ff ff36 	bl	80011bc <unwind_phase2_forced>
 8001350:	f005 fc5a 	bl	8006c08 <abort>
 8001354:	f005 fc58 	bl	8006c08 <abort>

08001358 <__gnu_Unwind_Resume_or_Rethrow>:
 8001358:	68c2      	ldr	r2, [r0, #12]
 800135a:	b12a      	cbz	r2, 8001368 <__gnu_Unwind_Resume_or_Rethrow+0x10>
 800135c:	f8d1 c03c 	ldr.w	ip, [r1, #60]	; 0x3c
 8001360:	2200      	movs	r2, #0
 8001362:	f8c1 c040 	str.w	ip, [r1, #64]	; 0x40
 8001366:	e729      	b.n	80011bc <unwind_phase2_forced>
 8001368:	e796      	b.n	8001298 <__gnu_Unwind_RaiseException>
 800136a:	bf00      	nop

0800136c <_Unwind_Complete>:
 800136c:	4770      	bx	lr
 800136e:	bf00      	nop

08001370 <_Unwind_DeleteException>:
 8001370:	6883      	ldr	r3, [r0, #8]
 8001372:	4601      	mov	r1, r0
 8001374:	b10b      	cbz	r3, 800137a <_Unwind_DeleteException+0xa>
 8001376:	2001      	movs	r0, #1
 8001378:	4718      	bx	r3
 800137a:	4770      	bx	lr

0800137c <_Unwind_VRS_Get>:
 800137c:	2901      	cmp	r1, #1
 800137e:	d012      	beq.n	80013a6 <_Unwind_VRS_Get+0x2a>
 8001380:	d809      	bhi.n	8001396 <_Unwind_VRS_Get+0x1a>
 8001382:	b973      	cbnz	r3, 80013a2 <_Unwind_VRS_Get+0x26>
 8001384:	2a0f      	cmp	r2, #15
 8001386:	d80c      	bhi.n	80013a2 <_Unwind_VRS_Get+0x26>
 8001388:	eb00 0082 	add.w	r0, r0, r2, lsl #2
 800138c:	6842      	ldr	r2, [r0, #4]
 800138e:	4618      	mov	r0, r3
 8001390:	9b00      	ldr	r3, [sp, #0]
 8001392:	601a      	str	r2, [r3, #0]
 8001394:	4770      	bx	lr
 8001396:	3903      	subs	r1, #3
 8001398:	2901      	cmp	r1, #1
 800139a:	bf94      	ite	ls
 800139c:	2001      	movls	r0, #1
 800139e:	2002      	movhi	r0, #2
 80013a0:	4770      	bx	lr
 80013a2:	2002      	movs	r0, #2
 80013a4:	4770      	bx	lr
 80013a6:	4608      	mov	r0, r1
 80013a8:	4770      	bx	lr
 80013aa:	bf00      	nop

080013ac <_Unwind_GetGR>:
 80013ac:	2300      	movs	r3, #0
 80013ae:	b500      	push	{lr}
 80013b0:	b085      	sub	sp, #20
 80013b2:	460a      	mov	r2, r1
 80013b4:	a903      	add	r1, sp, #12
 80013b6:	9100      	str	r1, [sp, #0]
 80013b8:	4619      	mov	r1, r3
 80013ba:	f7ff ffdf 	bl	800137c <_Unwind_VRS_Get>
 80013be:	9803      	ldr	r0, [sp, #12]
 80013c0:	b005      	add	sp, #20
 80013c2:	f85d fb04 	ldr.w	pc, [sp], #4
 80013c6:	bf00      	nop

080013c8 <_Unwind_VRS_Set>:
 80013c8:	2901      	cmp	r1, #1
 80013ca:	d012      	beq.n	80013f2 <_Unwind_VRS_Set+0x2a>
 80013cc:	d809      	bhi.n	80013e2 <_Unwind_VRS_Set+0x1a>
 80013ce:	b973      	cbnz	r3, 80013ee <_Unwind_VRS_Set+0x26>
 80013d0:	2a0f      	cmp	r2, #15
 80013d2:	d80c      	bhi.n	80013ee <_Unwind_VRS_Set+0x26>
 80013d4:	9900      	ldr	r1, [sp, #0]
 80013d6:	eb00 0282 	add.w	r2, r0, r2, lsl #2
 80013da:	6809      	ldr	r1, [r1, #0]
 80013dc:	4618      	mov	r0, r3
 80013de:	6051      	str	r1, [r2, #4]
 80013e0:	4770      	bx	lr
 80013e2:	3903      	subs	r1, #3
 80013e4:	2901      	cmp	r1, #1
 80013e6:	bf94      	ite	ls
 80013e8:	2001      	movls	r0, #1
 80013ea:	2002      	movhi	r0, #2
 80013ec:	4770      	bx	lr
 80013ee:	2002      	movs	r0, #2
 80013f0:	4770      	bx	lr
 80013f2:	4608      	mov	r0, r1
 80013f4:	4770      	bx	lr
 80013f6:	bf00      	nop

080013f8 <_Unwind_SetGR>:
 80013f8:	2300      	movs	r3, #0
 80013fa:	b510      	push	{r4, lr}
 80013fc:	b084      	sub	sp, #16
 80013fe:	ac03      	add	r4, sp, #12
 8001400:	9203      	str	r2, [sp, #12]
 8001402:	9400      	str	r4, [sp, #0]
 8001404:	460a      	mov	r2, r1
 8001406:	4619      	mov	r1, r3
 8001408:	f7ff ffde 	bl	80013c8 <_Unwind_VRS_Set>
 800140c:	b004      	add	sp, #16
 800140e:	bd10      	pop	{r4, pc}

08001410 <__gnu_Unwind_Backtrace>:
 8001410:	b570      	push	{r4, r5, r6, lr}
 8001412:	f04f 36ff 	mov.w	r6, #4294967295
 8001416:	6bd3      	ldr	r3, [r2, #60]	; 0x3c
 8001418:	f5ad 7d0e 	sub.w	sp, sp, #568	; 0x238
 800141c:	6413      	str	r3, [r2, #64]	; 0x40
 800141e:	f10d 0e5c 	add.w	lr, sp, #92	; 0x5c
 8001422:	f102 0c04 	add.w	ip, r2, #4
 8001426:	4605      	mov	r5, r0
 8001428:	460c      	mov	r4, r1
 800142a:	e8bc 000f 	ldmia.w	ip!, {r0, r1, r2, r3}
 800142e:	e8ae 000f 	stmia.w	lr!, {r0, r1, r2, r3}
 8001432:	e8bc 000f 	ldmia.w	ip!, {r0, r1, r2, r3}
 8001436:	e8ae 000f 	stmia.w	lr!, {r0, r1, r2, r3}
 800143a:	e8bc 000f 	ldmia.w	ip!, {r0, r1, r2, r3}
 800143e:	e8ae 000f 	stmia.w	lr!, {r0, r1, r2, r3}
 8001442:	e89c 000f 	ldmia.w	ip, {r0, r1, r2, r3}
 8001446:	e88e 000f 	stmia.w	lr, {r0, r1, r2, r3}
 800144a:	9616      	str	r6, [sp, #88]	; 0x58
 800144c:	e012      	b.n	8001474 <__gnu_Unwind_Backtrace+0x64>
 800144e:	210c      	movs	r1, #12
 8001450:	a816      	add	r0, sp, #88	; 0x58
 8001452:	466a      	mov	r2, sp
 8001454:	f7ff ffd0 	bl	80013f8 <_Unwind_SetGR>
 8001458:	4621      	mov	r1, r4
 800145a:	a816      	add	r0, sp, #88	; 0x58
 800145c:	47a8      	blx	r5
 800145e:	b978      	cbnz	r0, 8001480 <__gnu_Unwind_Backtrace+0x70>
 8001460:	4669      	mov	r1, sp
 8001462:	2008      	movs	r0, #8
 8001464:	9b04      	ldr	r3, [sp, #16]
 8001466:	aa16      	add	r2, sp, #88	; 0x58
 8001468:	4798      	blx	r3
 800146a:	2805      	cmp	r0, #5
 800146c:	4606      	mov	r6, r0
 800146e:	d008      	beq.n	8001482 <__gnu_Unwind_Backtrace+0x72>
 8001470:	2809      	cmp	r0, #9
 8001472:	d005      	beq.n	8001480 <__gnu_Unwind_Backtrace+0x70>
 8001474:	4668      	mov	r0, sp
 8001476:	9926      	ldr	r1, [sp, #152]	; 0x98
 8001478:	f7ff fdfa 	bl	8001070 <get_eit_entry>
 800147c:	2800      	cmp	r0, #0
 800147e:	d0e6      	beq.n	800144e <__gnu_Unwind_Backtrace+0x3e>
 8001480:	2609      	movs	r6, #9
 8001482:	a816      	add	r0, sp, #88	; 0x58
 8001484:	f7ff fe44 	bl	8001110 <restore_non_core_regs>
 8001488:	4630      	mov	r0, r6
 800148a:	f50d 7d0e 	add.w	sp, sp, #568	; 0x238
 800148e:	bd70      	pop	{r4, r5, r6, pc}

08001490 <__gnu_unwind_pr_common>:
 8001490:	e92d 4ff0 	stmdb	sp!, {r4, r5, r6, r7, r8, r9, sl, fp, lr}
 8001494:	461e      	mov	r6, r3
 8001496:	6ccc      	ldr	r4, [r1, #76]	; 0x4c
 8001498:	b089      	sub	sp, #36	; 0x24
 800149a:	f854 3b04 	ldr.w	r3, [r4], #4
 800149e:	460d      	mov	r5, r1
 80014a0:	4617      	mov	r7, r2
 80014a2:	f000 0803 	and.w	r8, r0, #3
 80014a6:	9406      	str	r4, [sp, #24]
 80014a8:	2e00      	cmp	r6, #0
 80014aa:	d079      	beq.n	80015a0 <__gnu_unwind_pr_common+0x110>
 80014ac:	2202      	movs	r2, #2
 80014ae:	f88d 201c 	strb.w	r2, [sp, #28]
 80014b2:	0c1a      	lsrs	r2, r3, #16
 80014b4:	f88d 201d 	strb.w	r2, [sp, #29]
 80014b8:	041b      	lsls	r3, r3, #16
 80014ba:	b2d2      	uxtb	r2, r2
 80014bc:	9305      	str	r3, [sp, #20]
 80014be:	eb04 0482 	add.w	r4, r4, r2, lsl #2
 80014c2:	6d2b      	ldr	r3, [r5, #80]	; 0x50
 80014c4:	f1b8 0f02 	cmp.w	r8, #2
 80014c8:	bf08      	it	eq
 80014ca:	6bac      	ldreq	r4, [r5, #56]	; 0x38
 80014cc:	f013 0301 	ands.w	r3, r3, #1
 80014d0:	d00c      	beq.n	80014ec <__gnu_unwind_pr_common+0x5c>
 80014d2:	4638      	mov	r0, r7
 80014d4:	a905      	add	r1, sp, #20
 80014d6:	f000 fb71 	bl	8001bbc <__gnu_unwind_execute>
 80014da:	b918      	cbnz	r0, 80014e4 <__gnu_unwind_pr_common+0x54>
 80014dc:	2008      	movs	r0, #8
 80014de:	b009      	add	sp, #36	; 0x24
 80014e0:	e8bd 8ff0 	ldmia.w	sp!, {r4, r5, r6, r7, r8, r9, sl, fp, pc}
 80014e4:	2009      	movs	r0, #9
 80014e6:	b009      	add	sp, #36	; 0x24
 80014e8:	e8bd 8ff0 	ldmia.w	sp!, {r4, r5, r6, r7, r8, r9, sl, fp, pc}
 80014ec:	f8d4 a000 	ldr.w	sl, [r4]
 80014f0:	f1ba 0f00 	cmp.w	sl, #0
 80014f4:	d0ed      	beq.n	80014d2 <__gnu_unwind_pr_common+0x42>
 80014f6:	9301      	str	r3, [sp, #4]
 80014f8:	f000 0308 	and.w	r3, r0, #8
 80014fc:	9302      	str	r3, [sp, #8]
 80014fe:	2e02      	cmp	r6, #2
 8001500:	d04a      	beq.n	8001598 <__gnu_unwind_pr_common+0x108>
 8001502:	f8b4 a000 	ldrh.w	sl, [r4]
 8001506:	f8b4 9002 	ldrh.w	r9, [r4, #2]
 800150a:	3404      	adds	r4, #4
 800150c:	6caa      	ldr	r2, [r5, #72]	; 0x48
 800150e:	210f      	movs	r1, #15
 8001510:	4638      	mov	r0, r7
 8001512:	f029 0b01 	bic.w	fp, r9, #1
 8001516:	4493      	add	fp, r2
 8001518:	f7ff ff48 	bl	80013ac <_Unwind_GetGR>
 800151c:	4583      	cmp	fp, r0
 800151e:	d839      	bhi.n	8001594 <__gnu_unwind_pr_common+0x104>
 8001520:	f02a 0201 	bic.w	r2, sl, #1
 8001524:	445a      	add	r2, fp
 8001526:	4282      	cmp	r2, r0
 8001528:	bf94      	ite	ls
 800152a:	2000      	movls	r0, #0
 800152c:	2001      	movhi	r0, #1
 800152e:	ea4f 0349 	mov.w	r3, r9, lsl #1
 8001532:	f003 0302 	and.w	r3, r3, #2
 8001536:	f00a 0a01 	and.w	sl, sl, #1
 800153a:	ea43 030a 	orr.w	r3, r3, sl
 800153e:	2b01      	cmp	r3, #1
 8001540:	d049      	beq.n	80015d6 <__gnu_unwind_pr_common+0x146>
 8001542:	2b02      	cmp	r3, #2
 8001544:	d032      	beq.n	80015ac <__gnu_unwind_pr_common+0x11c>
 8001546:	2b00      	cmp	r3, #0
 8001548:	d1cc      	bne.n	80014e4 <__gnu_unwind_pr_common+0x54>
 800154a:	f1b8 0f00 	cmp.w	r8, #0
 800154e:	d002      	beq.n	8001556 <__gnu_unwind_pr_common+0xc6>
 8001550:	2800      	cmp	r0, #0
 8001552:	f040 80ce 	bne.w	80016f2 <__gnu_unwind_pr_common+0x262>
 8001556:	3404      	adds	r4, #4
 8001558:	f8d4 a000 	ldr.w	sl, [r4]
 800155c:	f1ba 0f00 	cmp.w	sl, #0
 8001560:	d1cd      	bne.n	80014fe <__gnu_unwind_pr_common+0x6e>
 8001562:	4638      	mov	r0, r7
 8001564:	a905      	add	r1, sp, #20
 8001566:	f000 fb29 	bl	8001bbc <__gnu_unwind_execute>
 800156a:	2800      	cmp	r0, #0
 800156c:	d1ba      	bne.n	80014e4 <__gnu_unwind_pr_common+0x54>
 800156e:	9b01      	ldr	r3, [sp, #4]
 8001570:	2b00      	cmp	r3, #0
 8001572:	d0b3      	beq.n	80014dc <__gnu_unwind_pr_common+0x4c>
 8001574:	210f      	movs	r1, #15
 8001576:	4638      	mov	r0, r7
 8001578:	f7ff ff18 	bl	80013ac <_Unwind_GetGR>
 800157c:	210e      	movs	r1, #14
 800157e:	4602      	mov	r2, r0
 8001580:	4638      	mov	r0, r7
 8001582:	f7ff ff39 	bl	80013f8 <_Unwind_SetGR>
 8001586:	4638      	mov	r0, r7
 8001588:	210f      	movs	r1, #15
 800158a:	4a6a      	ldr	r2, [pc, #424]	; (8001734 <__gnu_unwind_pr_common+0x2a4>)
 800158c:	f7ff ff34 	bl	80013f8 <_Unwind_SetGR>
 8001590:	2007      	movs	r0, #7
 8001592:	e7a8      	b.n	80014e6 <__gnu_unwind_pr_common+0x56>
 8001594:	2000      	movs	r0, #0
 8001596:	e7ca      	b.n	800152e <__gnu_unwind_pr_common+0x9e>
 8001598:	f8d4 9004 	ldr.w	r9, [r4, #4]
 800159c:	3408      	adds	r4, #8
 800159e:	e7b5      	b.n	800150c <__gnu_unwind_pr_common+0x7c>
 80015a0:	021b      	lsls	r3, r3, #8
 80015a2:	9305      	str	r3, [sp, #20]
 80015a4:	2303      	movs	r3, #3
 80015a6:	f8ad 301c 	strh.w	r3, [sp, #28]
 80015aa:	e78a      	b.n	80014c2 <__gnu_unwind_pr_common+0x32>
 80015ac:	6823      	ldr	r3, [r4, #0]
 80015ae:	f023 4b00 	bic.w	fp, r3, #2147483648	; 0x80000000
 80015b2:	f1b8 0f00 	cmp.w	r8, #0
 80015b6:	d145      	bne.n	8001644 <__gnu_unwind_pr_common+0x1b4>
 80015b8:	b128      	cbz	r0, 80015c6 <__gnu_unwind_pr_common+0x136>
 80015ba:	9a02      	ldr	r2, [sp, #8]
 80015bc:	2a00      	cmp	r2, #0
 80015be:	d05c      	beq.n	800167a <__gnu_unwind_pr_common+0x1ea>
 80015c0:	f1bb 0f00 	cmp.w	fp, #0
 80015c4:	d074      	beq.n	80016b0 <__gnu_unwind_pr_common+0x220>
 80015c6:	2b00      	cmp	r3, #0
 80015c8:	da00      	bge.n	80015cc <__gnu_unwind_pr_common+0x13c>
 80015ca:	3404      	adds	r4, #4
 80015cc:	f10b 0b01 	add.w	fp, fp, #1
 80015d0:	eb04 048b 	add.w	r4, r4, fp, lsl #2
 80015d4:	e7c0      	b.n	8001558 <__gnu_unwind_pr_common+0xc8>
 80015d6:	f1b8 0f00 	cmp.w	r8, #0
 80015da:	d119      	bne.n	8001610 <__gnu_unwind_pr_common+0x180>
 80015dc:	b1b0      	cbz	r0, 800160c <__gnu_unwind_pr_common+0x17c>
 80015de:	6863      	ldr	r3, [r4, #4]
 80015e0:	6822      	ldr	r2, [r4, #0]
 80015e2:	1c99      	adds	r1, r3, #2
 80015e4:	ea4f 72d2 	mov.w	r2, r2, lsr #31
 80015e8:	f43f af7c 	beq.w	80014e4 <__gnu_unwind_pr_common+0x54>
 80015ec:	f105 0158 	add.w	r1, r5, #88	; 0x58
 80015f0:	3301      	adds	r3, #1
 80015f2:	9104      	str	r1, [sp, #16]
 80015f4:	f000 8091 	beq.w	800171a <__gnu_unwind_pr_common+0x28a>
 80015f8:	1d20      	adds	r0, r4, #4
 80015fa:	f7ff fdb7 	bl	800116c <_Unwind_decode_typeinfo_ptr.constprop.0>
 80015fe:	ab04      	add	r3, sp, #16
 8001600:	4601      	mov	r1, r0
 8001602:	4628      	mov	r0, r5
 8001604:	f004 fc4c 	bl	8005ea0 <__cxa_type_match>
 8001608:	2800      	cmp	r0, #0
 800160a:	d15c      	bne.n	80016c6 <__gnu_unwind_pr_common+0x236>
 800160c:	3408      	adds	r4, #8
 800160e:	e7a3      	b.n	8001558 <__gnu_unwind_pr_common+0xc8>
 8001610:	210d      	movs	r1, #13
 8001612:	4638      	mov	r0, r7
 8001614:	f8d5 9020 	ldr.w	r9, [r5, #32]
 8001618:	f7ff fec8 	bl	80013ac <_Unwind_GetGR>
 800161c:	4581      	cmp	r9, r0
 800161e:	d1f5      	bne.n	800160c <__gnu_unwind_pr_common+0x17c>
 8001620:	6aab      	ldr	r3, [r5, #40]	; 0x28
 8001622:	429c      	cmp	r4, r3
 8001624:	d1f2      	bne.n	800160c <__gnu_unwind_pr_common+0x17c>
 8001626:	4620      	mov	r0, r4
 8001628:	f7ff fcd4 	bl	8000fd4 <selfrel_offset31>
 800162c:	210f      	movs	r1, #15
 800162e:	4602      	mov	r2, r0
 8001630:	4638      	mov	r0, r7
 8001632:	f7ff fee1 	bl	80013f8 <_Unwind_SetGR>
 8001636:	4638      	mov	r0, r7
 8001638:	462a      	mov	r2, r5
 800163a:	2100      	movs	r1, #0
 800163c:	f7ff fedc 	bl	80013f8 <_Unwind_SetGR>
 8001640:	2007      	movs	r0, #7
 8001642:	e750      	b.n	80014e6 <__gnu_unwind_pr_common+0x56>
 8001644:	210d      	movs	r1, #13
 8001646:	4638      	mov	r0, r7
 8001648:	f8d5 9020 	ldr.w	r9, [r5, #32]
 800164c:	f7ff feae 	bl	80013ac <_Unwind_GetGR>
 8001650:	4581      	cmp	r9, r0
 8001652:	d001      	beq.n	8001658 <__gnu_unwind_pr_common+0x1c8>
 8001654:	6823      	ldr	r3, [r4, #0]
 8001656:	e7b6      	b.n	80015c6 <__gnu_unwind_pr_common+0x136>
 8001658:	6aab      	ldr	r3, [r5, #40]	; 0x28
 800165a:	429c      	cmp	r4, r3
 800165c:	d1fa      	bne.n	8001654 <__gnu_unwind_pr_common+0x1c4>
 800165e:	2304      	movs	r3, #4
 8001660:	2200      	movs	r2, #0
 8001662:	e9c5 230b 	strd	r2, r3, [r5, #44]	; 0x2c
 8001666:	18e3      	adds	r3, r4, r3
 8001668:	f8c5 b028 	str.w	fp, [r5, #40]	; 0x28
 800166c:	636b      	str	r3, [r5, #52]	; 0x34
 800166e:	6823      	ldr	r3, [r4, #0]
 8001670:	2b00      	cmp	r3, #0
 8001672:	db5a      	blt.n	800172a <__gnu_unwind_pr_common+0x29a>
 8001674:	2301      	movs	r3, #1
 8001676:	9301      	str	r3, [sp, #4]
 8001678:	e7a8      	b.n	80015cc <__gnu_unwind_pr_common+0x13c>
 800167a:	f105 0358 	add.w	r3, r5, #88	; 0x58
 800167e:	f8cd 800c 	str.w	r8, [sp, #12]
 8001682:	4691      	mov	r9, r2
 8001684:	46b0      	mov	r8, r6
 8001686:	f104 0a04 	add.w	sl, r4, #4
 800168a:	461e      	mov	r6, r3
 800168c:	e00e      	b.n	80016ac <__gnu_unwind_pr_common+0x21c>
 800168e:	4650      	mov	r0, sl
 8001690:	9604      	str	r6, [sp, #16]
 8001692:	f7ff fd6b 	bl	800116c <_Unwind_decode_typeinfo_ptr.constprop.0>
 8001696:	2200      	movs	r2, #0
 8001698:	4601      	mov	r1, r0
 800169a:	ab04      	add	r3, sp, #16
 800169c:	4628      	mov	r0, r5
 800169e:	f109 0901 	add.w	r9, r9, #1
 80016a2:	f10a 0a04 	add.w	sl, sl, #4
 80016a6:	f004 fbfb 	bl	8005ea0 <__cxa_type_match>
 80016aa:	b9e8      	cbnz	r0, 80016e8 <__gnu_unwind_pr_common+0x258>
 80016ac:	45d9      	cmp	r9, fp
 80016ae:	d1ee      	bne.n	800168e <__gnu_unwind_pr_common+0x1fe>
 80016b0:	210d      	movs	r1, #13
 80016b2:	4638      	mov	r0, r7
 80016b4:	f7ff fe7a 	bl	80013ac <_Unwind_GetGR>
 80016b8:	4603      	mov	r3, r0
 80016ba:	9a04      	ldr	r2, [sp, #16]
 80016bc:	2006      	movs	r0, #6
 80016be:	e9c5 2409 	strd	r2, r4, [r5, #36]	; 0x24
 80016c2:	622b      	str	r3, [r5, #32]
 80016c4:	e70f      	b.n	80014e6 <__gnu_unwind_pr_common+0x56>
 80016c6:	4681      	mov	r9, r0
 80016c8:	210d      	movs	r1, #13
 80016ca:	4638      	mov	r0, r7
 80016cc:	f7ff fe6e 	bl	80013ac <_Unwind_GetGR>
 80016d0:	f1b9 0f02 	cmp.w	r9, #2
 80016d4:	6228      	str	r0, [r5, #32]
 80016d6:	d125      	bne.n	8001724 <__gnu_unwind_pr_common+0x294>
 80016d8:	462b      	mov	r3, r5
 80016da:	9a04      	ldr	r2, [sp, #16]
 80016dc:	f843 2f2c 	str.w	r2, [r3, #44]!
 80016e0:	626b      	str	r3, [r5, #36]	; 0x24
 80016e2:	2006      	movs	r0, #6
 80016e4:	62ac      	str	r4, [r5, #40]	; 0x28
 80016e6:	e6fe      	b.n	80014e6 <__gnu_unwind_pr_common+0x56>
 80016e8:	4646      	mov	r6, r8
 80016ea:	6823      	ldr	r3, [r4, #0]
 80016ec:	f8dd 800c 	ldr.w	r8, [sp, #12]
 80016f0:	e769      	b.n	80015c6 <__gnu_unwind_pr_common+0x136>
 80016f2:	4620      	mov	r0, r4
 80016f4:	f7ff fc6e 	bl	8000fd4 <selfrel_offset31>
 80016f8:	4602      	mov	r2, r0
 80016fa:	3404      	adds	r4, #4
 80016fc:	63ac      	str	r4, [r5, #56]	; 0x38
 80016fe:	4628      	mov	r0, r5
 8001700:	4614      	mov	r4, r2
 8001702:	f004 fc2b 	bl	8005f5c <__cxa_begin_cleanup>
 8001706:	2800      	cmp	r0, #0
 8001708:	f43f aeec 	beq.w	80014e4 <__gnu_unwind_pr_common+0x54>
 800170c:	4638      	mov	r0, r7
 800170e:	4622      	mov	r2, r4
 8001710:	210f      	movs	r1, #15
 8001712:	f7ff fe71 	bl	80013f8 <_Unwind_SetGR>
 8001716:	2007      	movs	r0, #7
 8001718:	e6e5      	b.n	80014e6 <__gnu_unwind_pr_common+0x56>
 800171a:	210d      	movs	r1, #13
 800171c:	4638      	mov	r0, r7
 800171e:	f7ff fe45 	bl	80013ac <_Unwind_GetGR>
 8001722:	6228      	str	r0, [r5, #32]
 8001724:	9b04      	ldr	r3, [sp, #16]
 8001726:	626b      	str	r3, [r5, #36]	; 0x24
 8001728:	e7db      	b.n	80016e2 <__gnu_unwind_pr_common+0x252>
 800172a:	f10b 0001 	add.w	r0, fp, #1
 800172e:	eb04 0080 	add.w	r0, r4, r0, lsl #2
 8001732:	e779      	b.n	8001628 <__gnu_unwind_pr_common+0x198>
 8001734:	08006b43 	.word	0x08006b43

08001738 <__aeabi_unwind_cpp_pr0>:
 8001738:	2300      	movs	r3, #0
 800173a:	e6a9      	b.n	8001490 <__gnu_unwind_pr_common>

0800173c <__aeabi_unwind_cpp_pr1>:
 800173c:	2301      	movs	r3, #1
 800173e:	e6a7      	b.n	8001490 <__gnu_unwind_pr_common>

08001740 <__aeabi_unwind_cpp_pr2>:
 8001740:	2302      	movs	r3, #2
 8001742:	e6a5      	b.n	8001490 <__gnu_unwind_pr_common>

08001744 <_Unwind_VRS_Pop>:
 8001744:	e92d 43f0 	stmdb	sp!, {r4, r5, r6, r7, r8, r9, lr}
 8001748:	4606      	mov	r6, r0
 800174a:	4615      	mov	r5, r2
 800174c:	461c      	mov	r4, r3
 800174e:	b0c3      	sub	sp, #268	; 0x10c
 8001750:	2904      	cmp	r1, #4
 8001752:	f200 80b8 	bhi.w	80018c6 <_Unwind_VRS_Pop+0x182>
 8001756:	e8df f001 	tbb	[pc, r1]
 800175a:	569c      	.short	0x569c
 800175c:	2db6      	.short	0x2db6
 800175e:	03          	.byte	0x03
 800175f:	00          	.byte	0x00
 8001760:	2c00      	cmp	r4, #0
 8001762:	f040 80b0 	bne.w	80018c6 <_Unwind_VRS_Pop+0x182>
 8001766:	2a10      	cmp	r2, #16
 8001768:	f200 80ad 	bhi.w	80018c6 <_Unwind_VRS_Pop+0x182>
 800176c:	6803      	ldr	r3, [r0, #0]
 800176e:	06d8      	lsls	r0, r3, #27
 8001770:	f100 80f1 	bmi.w	8001956 <_Unwind_VRS_Pop+0x212>
 8001774:	af20      	add	r7, sp, #128	; 0x80
 8001776:	4638      	mov	r0, r7
 8001778:	f000 f990 	bl	8001a9c <__gnu_Unwind_Save_WMMXC>
 800177c:	2401      	movs	r4, #1
 800177e:	4638      	mov	r0, r7
 8001780:	2300      	movs	r3, #0
 8001782:	6bb1      	ldr	r1, [r6, #56]	; 0x38
 8001784:	fa04 f203 	lsl.w	r2, r4, r3
 8001788:	422a      	tst	r2, r5
 800178a:	f103 0301 	add.w	r3, r3, #1
 800178e:	d005      	beq.n	800179c <_Unwind_VRS_Pop+0x58>
 8001790:	460a      	mov	r2, r1
 8001792:	f852 cb04 	ldr.w	ip, [r2], #4
 8001796:	4611      	mov	r1, r2
 8001798:	f8c0 c000 	str.w	ip, [r0]
 800179c:	2b04      	cmp	r3, #4
 800179e:	f100 0004 	add.w	r0, r0, #4
 80017a2:	d1ef      	bne.n	8001784 <_Unwind_VRS_Pop+0x40>
 80017a4:	4638      	mov	r0, r7
 80017a6:	63b1      	str	r1, [r6, #56]	; 0x38
 80017a8:	f000 f96e 	bl	8001a88 <__gnu_Unwind_Restore_WMMXC>
 80017ac:	2000      	movs	r0, #0
 80017ae:	b043      	add	sp, #268	; 0x10c
 80017b0:	e8bd 83f0 	ldmia.w	sp!, {r4, r5, r6, r7, r8, r9, pc}
 80017b4:	2c03      	cmp	r4, #3
 80017b6:	f040 8086 	bne.w	80018c6 <_Unwind_VRS_Pop+0x182>
 80017ba:	b294      	uxth	r4, r2
 80017bc:	eb04 4312 	add.w	r3, r4, r2, lsr #16
 80017c0:	2b10      	cmp	r3, #16
 80017c2:	ea4f 4512 	mov.w	r5, r2, lsr #16
 80017c6:	d87e      	bhi.n	80018c6 <_Unwind_VRS_Pop+0x182>
 80017c8:	6803      	ldr	r3, [r0, #0]
 80017ca:	071f      	lsls	r7, r3, #28
 80017cc:	f100 80cb 	bmi.w	8001966 <_Unwind_VRS_Pop+0x222>
 80017d0:	af20      	add	r7, sp, #128	; 0x80
 80017d2:	4638      	mov	r0, r7
 80017d4:	f000 f936 	bl	8001a44 <__gnu_Unwind_Save_WMMXD>
 80017d8:	6bb2      	ldr	r2, [r6, #56]	; 0x38
 80017da:	eb07 01c5 	add.w	r1, r7, r5, lsl #3
 80017de:	b154      	cbz	r4, 80017f6 <_Unwind_VRS_Pop+0xb2>
 80017e0:	460b      	mov	r3, r1
 80017e2:	eb01 01c4 	add.w	r1, r1, r4, lsl #3
 80017e6:	1ad0      	subs	r0, r2, r3
 80017e8:	00e4      	lsls	r4, r4, #3
 80017ea:	581d      	ldr	r5, [r3, r0]
 80017ec:	f843 5b04 	str.w	r5, [r3], #4
 80017f0:	428b      	cmp	r3, r1
 80017f2:	d1fa      	bne.n	80017ea <_Unwind_VRS_Pop+0xa6>
 80017f4:	4422      	add	r2, r4
 80017f6:	4638      	mov	r0, r7
 80017f8:	63b2      	str	r2, [r6, #56]	; 0x38
 80017fa:	f000 f901 	bl	8001a00 <__gnu_Unwind_Restore_WMMXD>
 80017fe:	2000      	movs	r0, #0
 8001800:	b043      	add	sp, #268	; 0x10c
 8001802:	e8bd 83f0 	ldmia.w	sp!, {r4, r5, r6, r7, r8, r9, pc}
 8001806:	2c01      	cmp	r4, #1
 8001808:	ea4f 4812 	mov.w	r8, r2, lsr #16
 800180c:	b295      	uxth	r5, r2
 800180e:	d056      	beq.n	80018be <_Unwind_VRS_Pop+0x17a>
 8001810:	2c05      	cmp	r4, #5
 8001812:	d158      	bne.n	80018c6 <_Unwind_VRS_Pop+0x182>
 8001814:	eb08 0905 	add.w	r9, r8, r5
 8001818:	f1b9 0f20 	cmp.w	r9, #32
 800181c:	d853      	bhi.n	80018c6 <_Unwind_VRS_Pop+0x182>
 800181e:	f1b8 0f0f 	cmp.w	r8, #15
 8001822:	d973      	bls.n	800190c <_Unwind_VRS_Pop+0x1c8>
 8001824:	46a9      	mov	r9, r5
 8001826:	2d00      	cmp	r5, #0
 8001828:	f040 8084 	bne.w	8001934 <_Unwind_VRS_Pop+0x1f0>
 800182c:	6bb3      	ldr	r3, [r6, #56]	; 0x38
 800182e:	b365      	cbz	r5, 800188a <_Unwind_VRS_Pop+0x146>
 8001830:	af20      	add	r7, sp, #128	; 0x80
 8001832:	f04f 0900 	mov.w	r9, #0
 8001836:	eb07 07c8 	add.w	r7, r7, r8, lsl #3
 800183a:	3f04      	subs	r7, #4
 800183c:	eb03 05c5 	add.w	r5, r3, r5, lsl #3
 8001840:	f853 1b04 	ldr.w	r1, [r3], #4
 8001844:	42ab      	cmp	r3, r5
 8001846:	f847 1f04 	str.w	r1, [r7, #4]!
 800184a:	d1f9      	bne.n	8001840 <_Unwind_VRS_Pop+0xfc>
 800184c:	f1b9 0f00 	cmp.w	r9, #0
 8001850:	d00f      	beq.n	8001872 <_Unwind_VRS_Pop+0x12e>
 8001852:	466f      	mov	r7, sp
 8001854:	4641      	mov	r1, r8
 8001856:	2910      	cmp	r1, #16
 8001858:	bf38      	it	cc
 800185a:	2110      	movcc	r1, #16
 800185c:	eb07 01c1 	add.w	r1, r7, r1, lsl #3
 8001860:	3984      	subs	r1, #132	; 0x84
 8001862:	eb03 05c9 	add.w	r5, r3, r9, lsl #3
 8001866:	f853 0b04 	ldr.w	r0, [r3], #4
 800186a:	42ab      	cmp	r3, r5
 800186c:	f841 0f04 	str.w	r0, [r1, #4]!
 8001870:	d1f9      	bne.n	8001866 <_Unwind_VRS_Pop+0x122>
 8001872:	2c01      	cmp	r4, #1
 8001874:	d07f      	beq.n	8001976 <_Unwind_VRS_Pop+0x232>
 8001876:	f1b8 0f0f 	cmp.w	r8, #15
 800187a:	63b5      	str	r5, [r6, #56]	; 0x38
 800187c:	d942      	bls.n	8001904 <_Unwind_VRS_Pop+0x1c0>
 800187e:	f1b9 0f00 	cmp.w	r9, #0
 8001882:	d002      	beq.n	800188a <_Unwind_VRS_Pop+0x146>
 8001884:	4668      	mov	r0, sp
 8001886:	f000 f8b3 	bl	80019f0 <__gnu_Unwind_Restore_VFP_D_16_to_31>
 800188a:	2000      	movs	r0, #0
 800188c:	b043      	add	sp, #268	; 0x10c
 800188e:	e8bd 83f0 	ldmia.w	sp!, {r4, r5, r6, r7, r8, r9, pc}
 8001892:	b9c4      	cbnz	r4, 80018c6 <_Unwind_VRS_Pop+0x182>
 8001894:	4623      	mov	r3, r4
 8001896:	2401      	movs	r4, #1
 8001898:	6b82      	ldr	r2, [r0, #56]	; 0x38
 800189a:	1d37      	adds	r7, r6, #4
 800189c:	b2a8      	uxth	r0, r5
 800189e:	fa04 f103 	lsl.w	r1, r4, r3
 80018a2:	4201      	tst	r1, r0
 80018a4:	bf1c      	itt	ne
 80018a6:	f852 1b04 	ldrne.w	r1, [r2], #4
 80018aa:	f847 1023 	strne.w	r1, [r7, r3, lsl #2]
 80018ae:	3301      	adds	r3, #1
 80018b0:	2b10      	cmp	r3, #16
 80018b2:	d1f4      	bne.n	800189e <_Unwind_VRS_Pop+0x15a>
 80018b4:	f415 5000 	ands.w	r0, r5, #8192	; 0x2000
 80018b8:	d1e7      	bne.n	800188a <_Unwind_VRS_Pop+0x146>
 80018ba:	63b2      	str	r2, [r6, #56]	; 0x38
 80018bc:	e004      	b.n	80018c8 <_Unwind_VRS_Pop+0x184>
 80018be:	eb08 0305 	add.w	r3, r8, r5
 80018c2:	2b10      	cmp	r3, #16
 80018c4:	d903      	bls.n	80018ce <_Unwind_VRS_Pop+0x18a>
 80018c6:	2002      	movs	r0, #2
 80018c8:	b043      	add	sp, #268	; 0x10c
 80018ca:	e8bd 83f0 	ldmia.w	sp!, {r4, r5, r6, r7, r8, r9, pc}
 80018ce:	f1b8 0f0f 	cmp.w	r8, #15
 80018d2:	d8f8      	bhi.n	80018c6 <_Unwind_VRS_Pop+0x182>
 80018d4:	6833      	ldr	r3, [r6, #0]
 80018d6:	07da      	lsls	r2, r3, #31
 80018d8:	d506      	bpl.n	80018e8 <_Unwind_VRS_Pop+0x1a4>
 80018da:	4630      	mov	r0, r6
 80018dc:	f023 0303 	bic.w	r3, r3, #3
 80018e0:	f840 3b48 	str.w	r3, [r0], #72
 80018e4:	f000 f878 	bl	80019d8 <__gnu_Unwind_Save_VFP>
 80018e8:	af20      	add	r7, sp, #128	; 0x80
 80018ea:	4638      	mov	r0, r7
 80018ec:	f000 f874 	bl	80019d8 <__gnu_Unwind_Save_VFP>
 80018f0:	6bb3      	ldr	r3, [r6, #56]	; 0x38
 80018f2:	2d00      	cmp	r5, #0
 80018f4:	d19d      	bne.n	8001832 <_Unwind_VRS_Pop+0xee>
 80018f6:	461d      	mov	r5, r3
 80018f8:	3504      	adds	r5, #4
 80018fa:	4638      	mov	r0, r7
 80018fc:	63b5      	str	r5, [r6, #56]	; 0x38
 80018fe:	f000 f867 	bl	80019d0 <__gnu_Unwind_Restore_VFP>
 8001902:	e7c2      	b.n	800188a <_Unwind_VRS_Pop+0x146>
 8001904:	a820      	add	r0, sp, #128	; 0x80
 8001906:	f000 f86b 	bl	80019e0 <__gnu_Unwind_Restore_VFP_D>
 800190a:	e7b8      	b.n	800187e <_Unwind_VRS_Pop+0x13a>
 800190c:	f1b9 0f10 	cmp.w	r9, #16
 8001910:	d93f      	bls.n	8001992 <_Unwind_VRS_Pop+0x24e>
 8001912:	f1a9 0910 	sub.w	r9, r9, #16
 8001916:	6833      	ldr	r3, [r6, #0]
 8001918:	07d9      	lsls	r1, r3, #31
 800191a:	d508      	bpl.n	800192e <_Unwind_VRS_Pop+0x1ea>
 800191c:	4630      	mov	r0, r6
 800191e:	f023 0301 	bic.w	r3, r3, #1
 8001922:	f043 0302 	orr.w	r3, r3, #2
 8001926:	f840 3b48 	str.w	r3, [r0], #72
 800192a:	f000 f85d 	bl	80019e8 <__gnu_Unwind_Save_VFP_D>
 800192e:	f1b9 0f00 	cmp.w	r9, #0
 8001932:	d031      	beq.n	8001998 <_Unwind_VRS_Pop+0x254>
 8001934:	6833      	ldr	r3, [r6, #0]
 8001936:	075a      	lsls	r2, r3, #29
 8001938:	d41f      	bmi.n	800197a <_Unwind_VRS_Pop+0x236>
 800193a:	f1b8 0f0f 	cmp.w	r8, #15
 800193e:	d924      	bls.n	800198a <_Unwind_VRS_Pop+0x246>
 8001940:	466f      	mov	r7, sp
 8001942:	f1c8 0510 	rsb	r5, r8, #16
 8001946:	4638      	mov	r0, r7
 8001948:	f000 f856 	bl	80019f8 <__gnu_Unwind_Save_VFP_D_16_to_31>
 800194c:	2d00      	cmp	r5, #0
 800194e:	6bb3      	ldr	r3, [r6, #56]	; 0x38
 8001950:	dd80      	ble.n	8001854 <_Unwind_VRS_Pop+0x110>
 8001952:	af20      	add	r7, sp, #128	; 0x80
 8001954:	e76f      	b.n	8001836 <_Unwind_VRS_Pop+0xf2>
 8001956:	f023 0310 	bic.w	r3, r3, #16
 800195a:	6033      	str	r3, [r6, #0]
 800195c:	f506 70e8 	add.w	r0, r6, #464	; 0x1d0
 8001960:	f000 f89c 	bl	8001a9c <__gnu_Unwind_Save_WMMXC>
 8001964:	e706      	b.n	8001774 <_Unwind_VRS_Pop+0x30>
 8001966:	f023 0308 	bic.w	r3, r3, #8
 800196a:	6003      	str	r3, [r0, #0]
 800196c:	f500 70a8 	add.w	r0, r0, #336	; 0x150
 8001970:	f000 f868 	bl	8001a44 <__gnu_Unwind_Save_WMMXD>
 8001974:	e72c      	b.n	80017d0 <_Unwind_VRS_Pop+0x8c>
 8001976:	af20      	add	r7, sp, #128	; 0x80
 8001978:	e7be      	b.n	80018f8 <_Unwind_VRS_Pop+0x1b4>
 800197a:	4630      	mov	r0, r6
 800197c:	f023 0304 	bic.w	r3, r3, #4
 8001980:	f840 3bd0 	str.w	r3, [r0], #208
 8001984:	f000 f838 	bl	80019f8 <__gnu_Unwind_Save_VFP_D_16_to_31>
 8001988:	e7d7      	b.n	800193a <_Unwind_VRS_Pop+0x1f6>
 800198a:	a820      	add	r0, sp, #128	; 0x80
 800198c:	f000 f82c 	bl	80019e8 <__gnu_Unwind_Save_VFP_D>
 8001990:	e7d6      	b.n	8001940 <_Unwind_VRS_Pop+0x1fc>
 8001992:	f04f 0900 	mov.w	r9, #0
 8001996:	e7be      	b.n	8001916 <_Unwind_VRS_Pop+0x1d2>
 8001998:	f1b8 0f0f 	cmp.w	r8, #15
 800199c:	f63f af46 	bhi.w	800182c <_Unwind_VRS_Pop+0xe8>
 80019a0:	af20      	add	r7, sp, #128	; 0x80
 80019a2:	4638      	mov	r0, r7
 80019a4:	f000 f820 	bl	80019e8 <__gnu_Unwind_Save_VFP_D>
 80019a8:	6bb3      	ldr	r3, [r6, #56]	; 0x38
 80019aa:	2d00      	cmp	r5, #0
 80019ac:	f47f af41 	bne.w	8001832 <_Unwind_VRS_Pop+0xee>
 80019b0:	4638      	mov	r0, r7
 80019b2:	f000 f815 	bl	80019e0 <__gnu_Unwind_Restore_VFP_D>
 80019b6:	e768      	b.n	800188a <_Unwind_VRS_Pop+0x146>

080019b8 <__restore_core_regs>:
 80019b8:	f100 0134 	add.w	r1, r0, #52	; 0x34
 80019bc:	e891 0038 	ldmia.w	r1, {r3, r4, r5}
 80019c0:	469c      	mov	ip, r3
 80019c2:	46a6      	mov	lr, r4
 80019c4:	f84c 5d04 	str.w	r5, [ip, #-4]!
 80019c8:	e890 0fff 	ldmia.w	r0, {r0, r1, r2, r3, r4, r5, r6, r7, r8, r9, sl, fp}
 80019cc:	46e5      	mov	sp, ip
 80019ce:	bd00      	pop	{pc}

080019d0 <__gnu_Unwind_Restore_VFP>:
 80019d0:	ec90 0b21 	fldmiax	r0, {d0-d15}	;@ Deprecated
 80019d4:	4770      	bx	lr
 80019d6:	bf00      	nop

080019d8 <__gnu_Unwind_Save_VFP>:
 80019d8:	ec80 0b21 	fstmiax	r0, {d0-d15}	;@ Deprecated
 80019dc:	4770      	bx	lr
 80019de:	bf00      	nop

080019e0 <__gnu_Unwind_Restore_VFP_D>:
 80019e0:	ec90 0b20 	vldmia	r0, {d0-d15}
 80019e4:	4770      	bx	lr
 80019e6:	bf00      	nop

080019e8 <__gnu_Unwind_Save_VFP_D>:
 80019e8:	ec80 0b20 	vstmia	r0, {d0-d15}
 80019ec:	4770      	bx	lr
 80019ee:	bf00      	nop

080019f0 <__gnu_Unwind_Restore_VFP_D_16_to_31>:
 80019f0:	ecd0 0b20 	vldmia	r0, {d16-d31}
 80019f4:	4770      	bx	lr
 80019f6:	bf00      	nop

080019f8 <__gnu_Unwind_Save_VFP_D_16_to_31>:
 80019f8:	ecc0 0b20 	vstmia	r0, {d16-d31}
 80019fc:	4770      	bx	lr
 80019fe:	bf00      	nop

08001a00 <__gnu_Unwind_Restore_WMMXD>:
 8001a00:	ecf0 0102 	ldfe	f0, [r0], #8
 8001a04:	ecf0 1102 	ldfe	f1, [r0], #8
 8001a08:	ecf0 2102 	ldfe	f2, [r0], #8
 8001a0c:	ecf0 3102 	ldfe	f3, [r0], #8
 8001a10:	ecf0 4102 	ldfe	f4, [r0], #8
 8001a14:	ecf0 5102 	ldfe	f5, [r0], #8
 8001a18:	ecf0 6102 	ldfe	f6, [r0], #8
 8001a1c:	ecf0 7102 	ldfe	f7, [r0], #8
 8001a20:	ecf0 8102 	ldfp	f0, [r0], #8
 8001a24:	ecf0 9102 	ldfp	f1, [r0], #8
 8001a28:	ecf0 a102 	ldfp	f2, [r0], #8
 8001a2c:	ecf0 b102 	ldfp	f3, [r0], #8
 8001a30:	ecf0 c102 	ldfp	f4, [r0], #8
 8001a34:	ecf0 d102 	ldfp	f5, [r0], #8
 8001a38:	ecf0 e102 	ldfp	f6, [r0], #8
 8001a3c:	ecf0 f102 	ldfp	f7, [r0], #8
 8001a40:	4770      	bx	lr
 8001a42:	bf00      	nop

08001a44 <__gnu_Unwind_Save_WMMXD>:
 8001a44:	ece0 0102 	stfe	f0, [r0], #8
 8001a48:	ece0 1102 	stfe	f1, [r0], #8
 8001a4c:	ece0 2102 	stfe	f2, [r0], #8
 8001a50:	ece0 3102 	stfe	f3, [r0], #8
 8001a54:	ece0 4102 	stfe	f4, [r0], #8
 8001a58:	ece0 5102 	stfe	f5, [r0], #8
 8001a5c:	ece0 6102 	stfe	f6, [r0], #8
 8001a60:	ece0 7102 	stfe	f7, [r0], #8
 8001a64:	ece0 8102 	stfp	f0, [r0], #8
 8001a68:	ece0 9102 	stfp	f1, [r0], #8
 8001a6c:	ece0 a102 	stfp	f2, [r0], #8
 8001a70:	ece0 b102 	stfp	f3, [r0], #8
 8001a74:	ece0 c102 	stfp	f4, [r0], #8
 8001a78:	ece0 d102 	stfp	f5, [r0], #8
 8001a7c:	ece0 e102 	stfp	f6, [r0], #8
 8001a80:	ece0 f102 	stfp	f7, [r0], #8
 8001a84:	4770      	bx	lr
 8001a86:	bf00      	nop

08001a88 <__gnu_Unwind_Restore_WMMXC>:
 8001a88:	fcb0 8101 	ldc2	1, cr8, [r0], #4
 8001a8c:	fcb0 9101 	ldc2	1, cr9, [r0], #4
 8001a90:	fcb0 a101 	ldc2	1, cr10, [r0], #4
 8001a94:	fcb0 b101 	ldc2	1, cr11, [r0], #4
 8001a98:	4770      	bx	lr
 8001a9a:	bf00      	nop

08001a9c <__gnu_Unwind_Save_WMMXC>:
 8001a9c:	fca0 8101 	stc2	1, cr8, [r0], #4
 8001aa0:	fca0 9101 	stc2	1, cr9, [r0], #4
 8001aa4:	fca0 a101 	stc2	1, cr10, [r0], #4
 8001aa8:	fca0 b101 	stc2	1, cr11, [r0], #4
 8001aac:	4770      	bx	lr
 8001aae:	bf00      	nop

08001ab0 <_Unwind_RaiseException>:
 8001ab0:	46ec      	mov	ip, sp
 8001ab2:	b500      	push	{lr}
 8001ab4:	e92d 5000 	stmdb	sp!, {ip, lr}
 8001ab8:	e92d 1fff 	stmdb	sp!, {r0, r1, r2, r3, r4, r5, r6, r7, r8, r9, sl, fp, ip}
 8001abc:	f04f 0300 	mov.w	r3, #0
 8001ac0:	e92d 000c 	stmdb	sp!, {r2, r3}
 8001ac4:	a901      	add	r1, sp, #4
 8001ac6:	f7ff fbe7 	bl	8001298 <__gnu_Unwind_RaiseException>
 8001aca:	f8dd e040 	ldr.w	lr, [sp, #64]	; 0x40
 8001ace:	b012      	add	sp, #72	; 0x48
 8001ad0:	4770      	bx	lr
 8001ad2:	bf00      	nop

08001ad4 <_Unwind_Resume>:
 8001ad4:	46ec      	mov	ip, sp
 8001ad6:	b500      	push	{lr}
 8001ad8:	e92d 5000 	stmdb	sp!, {ip, lr}
 8001adc:	e92d 1fff 	stmdb	sp!, {r0, r1, r2, r3, r4, r5, r6, r7, r8, r9, sl, fp, ip}
 8001ae0:	f04f 0300 	mov.w	r3, #0
 8001ae4:	e92d 000c 	stmdb	sp!, {r2, r3}
 8001ae8:	a901      	add	r1, sp, #4
 8001aea:	f7ff fc13 	bl	8001314 <__gnu_Unwind_Resume>
 8001aee:	f8dd e040 	ldr.w	lr, [sp, #64]	; 0x40
 8001af2:	b012      	add	sp, #72	; 0x48
 8001af4:	4770      	bx	lr
 8001af6:	bf00      	nop

08001af8 <_Unwind_Resume_or_Rethrow>:
 8001af8:	46ec      	mov	ip, sp
 8001afa:	b500      	push	{lr}
 8001afc:	e92d 5000 	stmdb	sp!, {ip, lr}
 8001b00:	e92d 1fff 	stmdb	sp!, {r0, r1, r2, r3, r4, r5, r6, r7, r8, r9, sl, fp, ip}
 8001b04:	f04f 0300 	mov.w	r3, #0
 8001b08:	e92d 000c 	stmdb	sp!, {r2, r3}
 8001b0c:	a901      	add	r1, sp, #4
 8001b0e:	f7ff fc23 	bl	8001358 <__gnu_Unwind_Resume_or_Rethrow>
 8001b12:	f8dd e040 	ldr.w	lr, [sp, #64]	; 0x40
 8001b16:	b012      	add	sp, #72	; 0x48
 8001b18:	4770      	bx	lr
 8001b1a:	bf00      	nop

08001b1c <_Unwind_ForcedUnwind>:
 8001b1c:	46ec      	mov	ip, sp
 8001b1e:	b500      	push	{lr}
 8001b20:	e92d 5000 	stmdb	sp!, {ip, lr}
 8001b24:	e92d 1fff 	stmdb	sp!, {r0, r1, r2, r3, r4, r5, r6, r7, r8, r9, sl, fp, ip}
 8001b28:	f04f 0300 	mov.w	r3, #0
 8001b2c:	e92d 000c 	stmdb	sp!, {r2, r3}
 8001b30:	ab01      	add	r3, sp, #4
 8001b32:	f7ff fbe5 	bl	8001300 <__gnu_Unwind_ForcedUnwind>
 8001b36:	f8dd e040 	ldr.w	lr, [sp, #64]	; 0x40
 8001b3a:	b012      	add	sp, #72	; 0x48
 8001b3c:	4770      	bx	lr
 8001b3e:	bf00      	nop

08001b40 <_Unwind_Backtrace>:
 8001b40:	46ec      	mov	ip, sp
 8001b42:	b500      	push	{lr}
 8001b44:	e92d 5000 	stmdb	sp!, {ip, lr}
 8001b48:	e92d 1fff 	stmdb	sp!, {r0, r1, r2, r3, r4, r5, r6, r7, r8, r9, sl, fp, ip}
 8001b4c:	f04f 0300 	mov.w	r3, #0
 8001b50:	e92d 000c 	stmdb	sp!, {r2, r3}
 8001b54:	aa01      	add	r2, sp, #4
 8001b56:	f7ff fc5b 	bl	8001410 <__gnu_Unwind_Backtrace>
 8001b5a:	f8dd e040 	ldr.w	lr, [sp, #64]	; 0x40
 8001b5e:	b012      	add	sp, #72	; 0x48
 8001b60:	4770      	bx	lr
 8001b62:	bf00      	nop

08001b64 <next_unwind_byte>:
 8001b64:	7a02      	ldrb	r2, [r0, #8]
 8001b66:	4603      	mov	r3, r0
 8001b68:	b97a      	cbnz	r2, 8001b8a <next_unwind_byte+0x26>
 8001b6a:	7a42      	ldrb	r2, [r0, #9]
 8001b6c:	b1a2      	cbz	r2, 8001b98 <next_unwind_byte+0x34>
 8001b6e:	f04f 0c03 	mov.w	ip, #3
 8001b72:	6841      	ldr	r1, [r0, #4]
 8001b74:	3a01      	subs	r2, #1
 8001b76:	7242      	strb	r2, [r0, #9]
 8001b78:	6808      	ldr	r0, [r1, #0]
 8001b7a:	1d0a      	adds	r2, r1, #4
 8001b7c:	605a      	str	r2, [r3, #4]
 8001b7e:	0202      	lsls	r2, r0, #8
 8001b80:	f883 c008 	strb.w	ip, [r3, #8]
 8001b84:	0e00      	lsrs	r0, r0, #24
 8001b86:	601a      	str	r2, [r3, #0]
 8001b88:	4770      	bx	lr
 8001b8a:	6800      	ldr	r0, [r0, #0]
 8001b8c:	3a01      	subs	r2, #1
 8001b8e:	721a      	strb	r2, [r3, #8]
 8001b90:	0202      	lsls	r2, r0, #8
 8001b92:	601a      	str	r2, [r3, #0]
 8001b94:	0e00      	lsrs	r0, r0, #24
 8001b96:	4770      	bx	lr
 8001b98:	20b0      	movs	r0, #176	; 0xb0
 8001b9a:	4770      	bx	lr

08001b9c <_Unwind_GetGR.constprop.0>:
 8001b9c:	2300      	movs	r3, #0
 8001b9e:	b500      	push	{lr}
 8001ba0:	b085      	sub	sp, #20
 8001ba2:	a903      	add	r1, sp, #12
 8001ba4:	9100      	str	r1, [sp, #0]
 8001ba6:	220c      	movs	r2, #12
 8001ba8:	4619      	mov	r1, r3
 8001baa:	f7ff fbe7 	bl	800137c <_Unwind_VRS_Get>
 8001bae:	9803      	ldr	r0, [sp, #12]
 8001bb0:	b005      	add	sp, #20
 8001bb2:	f85d fb04 	ldr.w	pc, [sp], #4
 8001bb6:	bf00      	nop

08001bb8 <unwind_UCB_from_context>:
 8001bb8:	e7f0      	b.n	8001b9c <_Unwind_GetGR.constprop.0>
 8001bba:	bf00      	nop

08001bbc <__gnu_unwind_execute>:
 8001bbc:	e92d 43f0 	stmdb	sp!, {r4, r5, r6, r7, r8, r9, lr}
 8001bc0:	f04f 0800 	mov.w	r8, #0
 8001bc4:	4605      	mov	r5, r0
 8001bc6:	460e      	mov	r6, r1
 8001bc8:	b085      	sub	sp, #20
 8001bca:	4630      	mov	r0, r6
 8001bcc:	f7ff ffca 	bl	8001b64 <next_unwind_byte>
 8001bd0:	28b0      	cmp	r0, #176	; 0xb0
 8001bd2:	4604      	mov	r4, r0
 8001bd4:	f000 80ba 	beq.w	8001d4c <__gnu_unwind_execute+0x190>
 8001bd8:	0607      	lsls	r7, r0, #24
 8001bda:	d520      	bpl.n	8001c1e <__gnu_unwind_execute+0x62>
 8001bdc:	f000 03f0 	and.w	r3, r0, #240	; 0xf0
 8001be0:	2b80      	cmp	r3, #128	; 0x80
 8001be2:	d04d      	beq.n	8001c80 <__gnu_unwind_execute+0xc4>
 8001be4:	2b90      	cmp	r3, #144	; 0x90
 8001be6:	d036      	beq.n	8001c56 <__gnu_unwind_execute+0x9a>
 8001be8:	2ba0      	cmp	r3, #160	; 0xa0
 8001bea:	d060      	beq.n	8001cae <__gnu_unwind_execute+0xf2>
 8001bec:	2bb0      	cmp	r3, #176	; 0xb0
 8001bee:	d073      	beq.n	8001cd8 <__gnu_unwind_execute+0x11c>
 8001bf0:	2bc0      	cmp	r3, #192	; 0xc0
 8001bf2:	f000 808a 	beq.w	8001d0a <__gnu_unwind_execute+0x14e>
 8001bf6:	f000 03f8 	and.w	r3, r0, #248	; 0xf8
 8001bfa:	2bd0      	cmp	r3, #208	; 0xd0
 8001bfc:	d10b      	bne.n	8001c16 <__gnu_unwind_execute+0x5a>
 8001bfe:	f000 0207 	and.w	r2, r0, #7
 8001c02:	3201      	adds	r2, #1
 8001c04:	2305      	movs	r3, #5
 8001c06:	2101      	movs	r1, #1
 8001c08:	4628      	mov	r0, r5
 8001c0a:	f442 2200 	orr.w	r2, r2, #524288	; 0x80000
 8001c0e:	f7ff fd99 	bl	8001744 <_Unwind_VRS_Pop>
 8001c12:	2800      	cmp	r0, #0
 8001c14:	d0d9      	beq.n	8001bca <__gnu_unwind_execute+0xe>
 8001c16:	2009      	movs	r0, #9
 8001c18:	b005      	add	sp, #20
 8001c1a:	e8bd 83f0 	ldmia.w	sp!, {r4, r5, r6, r7, r8, r9, pc}
 8001c1e:	0083      	lsls	r3, r0, #2
 8001c20:	b2db      	uxtb	r3, r3
 8001c22:	1d1f      	adds	r7, r3, #4
 8001c24:	2300      	movs	r3, #0
 8001c26:	f10d 090c 	add.w	r9, sp, #12
 8001c2a:	4619      	mov	r1, r3
 8001c2c:	220d      	movs	r2, #13
 8001c2e:	4628      	mov	r0, r5
 8001c30:	f8cd 9000 	str.w	r9, [sp]
 8001c34:	f7ff fba2 	bl	800137c <_Unwind_VRS_Get>
 8001c38:	9b03      	ldr	r3, [sp, #12]
 8001c3a:	0660      	lsls	r0, r4, #25
 8001c3c:	bf4c      	ite	mi
 8001c3e:	1bdf      	submi	r7, r3, r7
 8001c40:	18ff      	addpl	r7, r7, r3
 8001c42:	2300      	movs	r3, #0
 8001c44:	220d      	movs	r2, #13
 8001c46:	4628      	mov	r0, r5
 8001c48:	4619      	mov	r1, r3
 8001c4a:	f8cd 9000 	str.w	r9, [sp]
 8001c4e:	9703      	str	r7, [sp, #12]
 8001c50:	f7ff fbba 	bl	80013c8 <_Unwind_VRS_Set>
 8001c54:	e7b9      	b.n	8001bca <__gnu_unwind_execute+0xe>
 8001c56:	f000 030d 	and.w	r3, r0, #13
 8001c5a:	2b0d      	cmp	r3, #13
 8001c5c:	d0db      	beq.n	8001c16 <__gnu_unwind_execute+0x5a>
 8001c5e:	2300      	movs	r3, #0
 8001c60:	af03      	add	r7, sp, #12
 8001c62:	4619      	mov	r1, r3
 8001c64:	f000 020f 	and.w	r2, r0, #15
 8001c68:	9700      	str	r7, [sp, #0]
 8001c6a:	4628      	mov	r0, r5
 8001c6c:	f7ff fb86 	bl	800137c <_Unwind_VRS_Get>
 8001c70:	2300      	movs	r3, #0
 8001c72:	220d      	movs	r2, #13
 8001c74:	4628      	mov	r0, r5
 8001c76:	4619      	mov	r1, r3
 8001c78:	9700      	str	r7, [sp, #0]
 8001c7a:	f7ff fba5 	bl	80013c8 <_Unwind_VRS_Set>
 8001c7e:	e7a4      	b.n	8001bca <__gnu_unwind_execute+0xe>
 8001c80:	4630      	mov	r0, r6
 8001c82:	f7ff ff6f 	bl	8001b64 <next_unwind_byte>
 8001c86:	0224      	lsls	r4, r4, #8
 8001c88:	4320      	orrs	r0, r4
 8001c8a:	f5b0 4f00 	cmp.w	r0, #32768	; 0x8000
 8001c8e:	d0c2      	beq.n	8001c16 <__gnu_unwind_execute+0x5a>
 8001c90:	2300      	movs	r3, #0
 8001c92:	0104      	lsls	r4, r0, #4
 8001c94:	4619      	mov	r1, r3
 8001c96:	4628      	mov	r0, r5
 8001c98:	b2a2      	uxth	r2, r4
 8001c9a:	f7ff fd53 	bl	8001744 <_Unwind_VRS_Pop>
 8001c9e:	2800      	cmp	r0, #0
 8001ca0:	d1b9      	bne.n	8001c16 <__gnu_unwind_execute+0x5a>
 8001ca2:	f414 4f00 	tst.w	r4, #32768	; 0x8000
 8001ca6:	bf18      	it	ne
 8001ca8:	f04f 0801 	movne.w	r8, #1
 8001cac:	e78d      	b.n	8001bca <__gnu_unwind_execute+0xe>
 8001cae:	43c3      	mvns	r3, r0
 8001cb0:	f44f 627f 	mov.w	r2, #4080	; 0xff0
 8001cb4:	f003 0307 	and.w	r3, r3, #7
 8001cb8:	411a      	asrs	r2, r3
 8001cba:	2300      	movs	r3, #0
 8001cbc:	0701      	lsls	r1, r0, #28
 8001cbe:	f402 627f 	and.w	r2, r2, #4080	; 0xff0
 8001cc2:	bf48      	it	mi
 8001cc4:	f442 4280 	orrmi.w	r2, r2, #16384	; 0x4000
 8001cc8:	4628      	mov	r0, r5
 8001cca:	4619      	mov	r1, r3
 8001ccc:	f7ff fd3a 	bl	8001744 <_Unwind_VRS_Pop>
 8001cd0:	2800      	cmp	r0, #0
 8001cd2:	f43f af7a 	beq.w	8001bca <__gnu_unwind_execute+0xe>
 8001cd6:	e79e      	b.n	8001c16 <__gnu_unwind_execute+0x5a>
 8001cd8:	28b1      	cmp	r0, #177	; 0xb1
 8001cda:	d03c      	beq.n	8001d56 <__gnu_unwind_execute+0x19a>
 8001cdc:	28b2      	cmp	r0, #178	; 0xb2
 8001cde:	f000 80b0 	beq.w	8001e42 <__gnu_unwind_execute+0x286>
 8001ce2:	28b3      	cmp	r0, #179	; 0xb3
 8001ce4:	d04a      	beq.n	8001d7c <__gnu_unwind_execute+0x1c0>
 8001ce6:	f000 03fc 	and.w	r3, r0, #252	; 0xfc
 8001cea:	2bb4      	cmp	r3, #180	; 0xb4
 8001cec:	d093      	beq.n	8001c16 <__gnu_unwind_execute+0x5a>
 8001cee:	2301      	movs	r3, #1
 8001cf0:	f000 0207 	and.w	r2, r0, #7
 8001cf4:	441a      	add	r2, r3
 8001cf6:	4628      	mov	r0, r5
 8001cf8:	4619      	mov	r1, r3
 8001cfa:	f442 2200 	orr.w	r2, r2, #524288	; 0x80000
 8001cfe:	f7ff fd21 	bl	8001744 <_Unwind_VRS_Pop>
 8001d02:	2800      	cmp	r0, #0
 8001d04:	f43f af61 	beq.w	8001bca <__gnu_unwind_execute+0xe>
 8001d08:	e785      	b.n	8001c16 <__gnu_unwind_execute+0x5a>
 8001d0a:	28c6      	cmp	r0, #198	; 0xc6
 8001d0c:	d04f      	beq.n	8001dae <__gnu_unwind_execute+0x1f2>
 8001d0e:	28c7      	cmp	r0, #199	; 0xc7
 8001d10:	d061      	beq.n	8001dd6 <__gnu_unwind_execute+0x21a>
 8001d12:	f000 03f8 	and.w	r3, r0, #248	; 0xf8
 8001d16:	2bc0      	cmp	r3, #192	; 0xc0
 8001d18:	d070      	beq.n	8001dfc <__gnu_unwind_execute+0x240>
 8001d1a:	28c8      	cmp	r0, #200	; 0xc8
 8001d1c:	d07c      	beq.n	8001e18 <__gnu_unwind_execute+0x25c>
 8001d1e:	28c9      	cmp	r0, #201	; 0xc9
 8001d20:	f47f af79 	bne.w	8001c16 <__gnu_unwind_execute+0x5a>
 8001d24:	4630      	mov	r0, r6
 8001d26:	f7ff ff1d 	bl	8001b64 <next_unwind_byte>
 8001d2a:	2305      	movs	r3, #5
 8001d2c:	4602      	mov	r2, r0
 8001d2e:	2101      	movs	r1, #1
 8001d30:	4628      	mov	r0, r5
 8001d32:	0314      	lsls	r4, r2, #12
 8001d34:	f002 020f 	and.w	r2, r2, #15
 8001d38:	f404 2470 	and.w	r4, r4, #983040	; 0xf0000
 8001d3c:	440a      	add	r2, r1
 8001d3e:	4322      	orrs	r2, r4
 8001d40:	f7ff fd00 	bl	8001744 <_Unwind_VRS_Pop>
 8001d44:	2800      	cmp	r0, #0
 8001d46:	f43f af40 	beq.w	8001bca <__gnu_unwind_execute+0xe>
 8001d4a:	e764      	b.n	8001c16 <__gnu_unwind_execute+0x5a>
 8001d4c:	f1b8 0f00 	cmp.w	r8, #0
 8001d50:	d01c      	beq.n	8001d8c <__gnu_unwind_execute+0x1d0>
 8001d52:	2000      	movs	r0, #0
 8001d54:	e760      	b.n	8001c18 <__gnu_unwind_execute+0x5c>
 8001d56:	4630      	mov	r0, r6
 8001d58:	f7ff ff04 	bl	8001b64 <next_unwind_byte>
 8001d5c:	4602      	mov	r2, r0
 8001d5e:	2800      	cmp	r0, #0
 8001d60:	f43f af59 	beq.w	8001c16 <__gnu_unwind_execute+0x5a>
 8001d64:	f010 03f0 	ands.w	r3, r0, #240	; 0xf0
 8001d68:	f47f af55 	bne.w	8001c16 <__gnu_unwind_execute+0x5a>
 8001d6c:	4619      	mov	r1, r3
 8001d6e:	4628      	mov	r0, r5
 8001d70:	f7ff fce8 	bl	8001744 <_Unwind_VRS_Pop>
 8001d74:	2800      	cmp	r0, #0
 8001d76:	f43f af28 	beq.w	8001bca <__gnu_unwind_execute+0xe>
 8001d7a:	e74c      	b.n	8001c16 <__gnu_unwind_execute+0x5a>
 8001d7c:	4630      	mov	r0, r6
 8001d7e:	f7ff fef1 	bl	8001b64 <next_unwind_byte>
 8001d82:	2301      	movs	r3, #1
 8001d84:	4602      	mov	r2, r0
 8001d86:	4619      	mov	r1, r3
 8001d88:	4628      	mov	r0, r5
 8001d8a:	e7d2      	b.n	8001d32 <__gnu_unwind_execute+0x176>
 8001d8c:	ac03      	add	r4, sp, #12
 8001d8e:	4643      	mov	r3, r8
 8001d90:	220e      	movs	r2, #14
 8001d92:	4641      	mov	r1, r8
 8001d94:	4628      	mov	r0, r5
 8001d96:	9400      	str	r4, [sp, #0]
 8001d98:	f7ff faf0 	bl	800137c <_Unwind_VRS_Get>
 8001d9c:	4643      	mov	r3, r8
 8001d9e:	220f      	movs	r2, #15
 8001da0:	4628      	mov	r0, r5
 8001da2:	4641      	mov	r1, r8
 8001da4:	9400      	str	r4, [sp, #0]
 8001da6:	f7ff fb0f 	bl	80013c8 <_Unwind_VRS_Set>
 8001daa:	4640      	mov	r0, r8
 8001dac:	e734      	b.n	8001c18 <__gnu_unwind_execute+0x5c>
 8001dae:	4630      	mov	r0, r6
 8001db0:	f7ff fed8 	bl	8001b64 <next_unwind_byte>
 8001db4:	4602      	mov	r2, r0
 8001db6:	2303      	movs	r3, #3
 8001db8:	0314      	lsls	r4, r2, #12
 8001dba:	f002 020f 	and.w	r2, r2, #15
 8001dbe:	f404 2470 	and.w	r4, r4, #983040	; 0xf0000
 8001dc2:	3201      	adds	r2, #1
 8001dc4:	4628      	mov	r0, r5
 8001dc6:	4619      	mov	r1, r3
 8001dc8:	4322      	orrs	r2, r4
 8001dca:	f7ff fcbb 	bl	8001744 <_Unwind_VRS_Pop>
 8001dce:	2800      	cmp	r0, #0
 8001dd0:	f43f aefb 	beq.w	8001bca <__gnu_unwind_execute+0xe>
 8001dd4:	e71f      	b.n	8001c16 <__gnu_unwind_execute+0x5a>
 8001dd6:	4630      	mov	r0, r6
 8001dd8:	f7ff fec4 	bl	8001b64 <next_unwind_byte>
 8001ddc:	4602      	mov	r2, r0
 8001dde:	2800      	cmp	r0, #0
 8001de0:	f43f af19 	beq.w	8001c16 <__gnu_unwind_execute+0x5a>
 8001de4:	f010 03f0 	ands.w	r3, r0, #240	; 0xf0
 8001de8:	f47f af15 	bne.w	8001c16 <__gnu_unwind_execute+0x5a>
 8001dec:	2104      	movs	r1, #4
 8001dee:	4628      	mov	r0, r5
 8001df0:	f7ff fca8 	bl	8001744 <_Unwind_VRS_Pop>
 8001df4:	2800      	cmp	r0, #0
 8001df6:	f43f aee8 	beq.w	8001bca <__gnu_unwind_execute+0xe>
 8001dfa:	e70c      	b.n	8001c16 <__gnu_unwind_execute+0x5a>
 8001dfc:	2303      	movs	r3, #3
 8001dfe:	f000 020f 	and.w	r2, r0, #15
 8001e02:	3201      	adds	r2, #1
 8001e04:	4628      	mov	r0, r5
 8001e06:	4619      	mov	r1, r3
 8001e08:	f442 2220 	orr.w	r2, r2, #655360	; 0xa0000
 8001e0c:	f7ff fc9a 	bl	8001744 <_Unwind_VRS_Pop>
 8001e10:	2800      	cmp	r0, #0
 8001e12:	f43f aeda 	beq.w	8001bca <__gnu_unwind_execute+0xe>
 8001e16:	e6fe      	b.n	8001c16 <__gnu_unwind_execute+0x5a>
 8001e18:	4630      	mov	r0, r6
 8001e1a:	f7ff fea3 	bl	8001b64 <next_unwind_byte>
 8001e1e:	4602      	mov	r2, r0
 8001e20:	2101      	movs	r1, #1
 8001e22:	f002 04f0 	and.w	r4, r2, #240	; 0xf0
 8001e26:	f002 020f 	and.w	r2, r2, #15
 8001e2a:	3410      	adds	r4, #16
 8001e2c:	440a      	add	r2, r1
 8001e2e:	2305      	movs	r3, #5
 8001e30:	4628      	mov	r0, r5
 8001e32:	ea42 3204 	orr.w	r2, r2, r4, lsl #12
 8001e36:	f7ff fc85 	bl	8001744 <_Unwind_VRS_Pop>
 8001e3a:	2800      	cmp	r0, #0
 8001e3c:	f43f aec5 	beq.w	8001bca <__gnu_unwind_execute+0xe>
 8001e40:	e6e9      	b.n	8001c16 <__gnu_unwind_execute+0x5a>
 8001e42:	2300      	movs	r3, #0
 8001e44:	f10d 090c 	add.w	r9, sp, #12
 8001e48:	220d      	movs	r2, #13
 8001e4a:	4619      	mov	r1, r3
 8001e4c:	4628      	mov	r0, r5
 8001e4e:	f8cd 9000 	str.w	r9, [sp]
 8001e52:	f7ff fa93 	bl	800137c <_Unwind_VRS_Get>
 8001e56:	4630      	mov	r0, r6
 8001e58:	f7ff fe84 	bl	8001b64 <next_unwind_byte>
 8001e5c:	0602      	lsls	r2, r0, #24
 8001e5e:	f04f 0402 	mov.w	r4, #2
 8001e62:	d50c      	bpl.n	8001e7e <__gnu_unwind_execute+0x2c2>
 8001e64:	9b03      	ldr	r3, [sp, #12]
 8001e66:	f000 007f 	and.w	r0, r0, #127	; 0x7f
 8001e6a:	40a0      	lsls	r0, r4
 8001e6c:	4418      	add	r0, r3
 8001e6e:	9003      	str	r0, [sp, #12]
 8001e70:	4630      	mov	r0, r6
 8001e72:	f7ff fe77 	bl	8001b64 <next_unwind_byte>
 8001e76:	0603      	lsls	r3, r0, #24
 8001e78:	f104 0407 	add.w	r4, r4, #7
 8001e7c:	d4f2      	bmi.n	8001e64 <__gnu_unwind_execute+0x2a8>
 8001e7e:	9b03      	ldr	r3, [sp, #12]
 8001e80:	f000 027f 	and.w	r2, r0, #127	; 0x7f
 8001e84:	40a2      	lsls	r2, r4
 8001e86:	f503 7301 	add.w	r3, r3, #516	; 0x204
 8001e8a:	441a      	add	r2, r3
 8001e8c:	2300      	movs	r3, #0
 8001e8e:	9203      	str	r2, [sp, #12]
 8001e90:	4628      	mov	r0, r5
 8001e92:	220d      	movs	r2, #13
 8001e94:	4619      	mov	r1, r3
 8001e96:	f8cd 9000 	str.w	r9, [sp]
 8001e9a:	f7ff fa95 	bl	80013c8 <_Unwind_VRS_Set>
 8001e9e:	e694      	b.n	8001bca <__gnu_unwind_execute+0xe>

08001ea0 <__gnu_unwind_frame>:
 8001ea0:	460b      	mov	r3, r1
 8001ea2:	f04f 0c03 	mov.w	ip, #3
 8001ea6:	b500      	push	{lr}
 8001ea8:	6cc2      	ldr	r2, [r0, #76]	; 0x4c
 8001eaa:	4618      	mov	r0, r3
 8001eac:	6853      	ldr	r3, [r2, #4]
 8001eae:	b085      	sub	sp, #20
 8001eb0:	3208      	adds	r2, #8
 8001eb2:	9202      	str	r2, [sp, #8]
 8001eb4:	a901      	add	r1, sp, #4
 8001eb6:	0e1a      	lsrs	r2, r3, #24
 8001eb8:	021b      	lsls	r3, r3, #8
 8001eba:	f88d c00c 	strb.w	ip, [sp, #12]
 8001ebe:	9301      	str	r3, [sp, #4]
 8001ec0:	f88d 200d 	strb.w	r2, [sp, #13]
 8001ec4:	f7ff fe7a 	bl	8001bbc <__gnu_unwind_execute>
 8001ec8:	b005      	add	sp, #20
 8001eca:	f85d fb04 	ldr.w	pc, [sp], #4
 8001ece:	bf00      	nop

08001ed0 <_Unwind_GetRegionStart>:
 8001ed0:	b508      	push	{r3, lr}
 8001ed2:	f7ff fe71 	bl	8001bb8 <unwind_UCB_from_context>
 8001ed6:	6c80      	ldr	r0, [r0, #72]	; 0x48
 8001ed8:	bd08      	pop	{r3, pc}
 8001eda:	bf00      	nop

08001edc <_Unwind_GetLanguageSpecificData>:
 8001edc:	b508      	push	{r3, lr}
 8001ede:	f7ff fe6b 	bl	8001bb8 <unwind_UCB_from_context>
 8001ee2:	6cc0      	ldr	r0, [r0, #76]	; 0x4c
 8001ee4:	79c3      	ldrb	r3, [r0, #7]
 8001ee6:	3302      	adds	r3, #2
 8001ee8:	eb00 0083 	add.w	r0, r0, r3, lsl #2
 8001eec:	bd08      	pop	{r3, pc}
 8001eee:	bf00      	nop

08001ef0 <_ZSt13move_backwardIPhS0_ET0_T_S2_S1_.isra.0>:
   *  that the start of the output range may overlap [first,last).
  */
  template<typename _BI1, typename _BI2>
    _GLIBCXX20_CONSTEXPR
    inline _BI2
    move_backward(_BI1 __first, _BI1 __last, _BI2 __result)
 8001ef0:	4613      	mov	r3, r2
	  if (_Num)
 8001ef2:	1a0a      	subs	r2, r1, r0
 8001ef4:	d003      	beq.n	8001efe <_ZSt13move_backwardIPhS0_ET0_T_S2_S1_.isra.0+0xe>
	    __builtin_memmove(__result - _Num, __first, sizeof(_Tp) * _Num);
 8001ef6:	4601      	mov	r1, r0
 8001ef8:	1a98      	subs	r0, r3, r2
 8001efa:	f004 bed5 	b.w	8006ca8 <memmove>
      __glibcxx_requires_can_decrement_range(__first, __last, __result);

      return std::__copy_move_backward_a<true>(std::__miter_base(__first),
					       std::__miter_base(__last),
					       __result);
    }
 8001efe:	4770      	bx	lr

08001f00 <_ZN6CRSLib3Can6RM000813FilterManager9Implement16FilterManagerImp19convert_to_priorityILNS0_11FilterWidthE0ELNS0_10FilterModeE1EEEhhhRKNS2_15ConfigFilterArgIXT_EXT0_EEE.isra.0>:
	{
		// priority: {filter_match_index[7:6] | is_can2[:5] | is_fifo1[:4] | is_bit16[:3] | is_mask[:2] : index[1:0]}
		template<FilterWidth filter_width, FilterMode filter_mode>
		constexpr u8 convert_to_priority(const u8 index, const u8 can2_start, const ConfigFilterArg<filter_width, filter_mode>& filter_arg) noexcept
		{
			return (can2_start <= index) << (u8)5 | (filter_arg.fifo == FifoIndex::fifo1) << (u8)4 | (filter_width == FilterWidth::bit16) << (u8)3 | (filter_mode == FilterMode::mask) << (u8)2 | index;
 8001f00:	4281      	cmp	r1, r0
 8001f02:	bf94      	ite	ls
 8001f04:	2120      	movls	r1, #32
 8001f06:	2100      	movhi	r1, #0
 8001f08:	2a01      	cmp	r2, #1
 8001f0a:	bf0c      	ite	eq
 8001f0c:	2310      	moveq	r3, #16
 8001f0e:	2300      	movne	r3, #0
 8001f10:	4308      	orrs	r0, r1
		}
 8001f12:	4318      	orrs	r0, r3
 8001f14:	4770      	bx	lr

08001f16 <_ZSt16__insertion_sortIPhN9__gnu_cxx5__ops15_Iter_comp_iterIZNSt6ranges8__detail16__make_comp_projINS4_4lessESt8identityEEDaRT_RT0_EUlOS9_OSB_E_EEEvS9_S9_SB_>:

  /// This is a helper function for the sort routine.
  template<typename _RandomAccessIterator, typename _Compare>
    _GLIBCXX20_CONSTEXPR
    void
    __insertion_sort(_RandomAccessIterator __first,
 8001f16:	b5f7      	push	{r0, r1, r2, r4, r5, r6, r7, lr}
 8001f18:	460e      	mov	r6, r1
 8001f1a:	a902      	add	r1, sp, #8
		     _RandomAccessIterator __last, _Compare __comp)
    {
      if (__first == __last) return;
 8001f1c:	42b0      	cmp	r0, r6
    __insertion_sort(_RandomAccessIterator __first,
 8001f1e:	4604      	mov	r4, r0
 8001f20:	e901 000c 	stmdb	r1, {r2, r3}
      if (__first == __last) return;
 8001f24:	d018      	beq.n	8001f58 <_ZSt16__insertion_sortIPhN9__gnu_cxx5__ops15_Iter_comp_iterIZNSt6ranges8__detail16__make_comp_projINS4_4lessESt8identityEEDaRT_RT0_EUlOS9_OSB_E_EEEvS9_S9_SB_+0x42>

      for (_RandomAccessIterator __i = __first + 1; __i != __last; ++__i)
 8001f26:	1c41      	adds	r1, r0, #1
 8001f28:	42b1      	cmp	r1, r6
 8001f2a:	d015      	beq.n	8001f58 <_ZSt16__insertion_sortIPhN9__gnu_cxx5__ops15_Iter_comp_iterIZNSt6ranges8__detail16__make_comp_projINS4_4lessESt8identityEEDaRT_RT0_EUlOS9_OSB_E_EEEvS9_S9_SB_+0x42>
	    auto __y = reinterpret_cast<__UINTPTR_TYPE__>(
	      static_cast<const volatile void*>(std::forward<_Up>(__u)));
	    return __x < __y;
	  }
	else
	  return std::forward<_Tp>(__t) < std::forward<_Up>(__u);
 8001f2c:	460d      	mov	r5, r1
	{
	  if (__comp(__i, __first))
 8001f2e:	7823      	ldrb	r3, [r4, #0]
 8001f30:	f815 7b01 	ldrb.w	r7, [r5], #1
 8001f34:	42bb      	cmp	r3, r7
 8001f36:	d906      	bls.n	8001f46 <_ZSt16__insertion_sortIPhN9__gnu_cxx5__ops15_Iter_comp_iterIZNSt6ranges8__detail16__make_comp_projINS4_4lessESt8identityEEDaRT_RT0_EUlOS9_OSB_E_EEEvS9_S9_SB_+0x30>
	    {
	      typename iterator_traits<_RandomAccessIterator>::value_type
		__val = _GLIBCXX_MOVE(*__i);
	      _GLIBCXX_MOVE_BACKWARD3(__first, __i, __i + 1);
 8001f38:	462a      	mov	r2, r5
 8001f3a:	4620      	mov	r0, r4
 8001f3c:	f7ff ffd8 	bl	8001ef0 <_ZSt13move_backwardIPhS0_ET0_T_S2_S1_.isra.0>
	      *__first = _GLIBCXX_MOVE(__val);
 8001f40:	7027      	strb	r7, [r4, #0]
      for (_RandomAccessIterator __i = __first + 1; __i != __last; ++__i)
 8001f42:	4629      	mov	r1, r5
 8001f44:	e7f0      	b.n	8001f28 <_ZSt16__insertion_sortIPhN9__gnu_cxx5__ops15_Iter_comp_iterIZNSt6ranges8__detail16__make_comp_projINS4_4lessESt8identityEEDaRT_RT0_EUlOS9_OSB_E_EEEvS9_S9_SB_+0x12>
 8001f46:	f811 3c01 	ldrb.w	r3, [r1, #-1]
      while (__comp(__val, __next))
 8001f4a:	429f      	cmp	r7, r3
 8001f4c:	d202      	bcs.n	8001f54 <_ZSt16__insertion_sortIPhN9__gnu_cxx5__ops15_Iter_comp_iterIZNSt6ranges8__detail16__make_comp_projINS4_4lessESt8identityEEDaRT_RT0_EUlOS9_OSB_E_EEEvS9_S9_SB_+0x3e>
	  *__last = _GLIBCXX_MOVE(*__next);
 8001f4e:	f801 3901 	strb.w	r3, [r1], #-1
      while (__comp(__val, __next))
 8001f52:	e7f8      	b.n	8001f46 <_ZSt16__insertion_sortIPhN9__gnu_cxx5__ops15_Iter_comp_iterIZNSt6ranges8__detail16__make_comp_projINS4_4lessESt8identityEEDaRT_RT0_EUlOS9_OSB_E_EEEvS9_S9_SB_+0x30>
      *__last = _GLIBCXX_MOVE(__val);
 8001f54:	700f      	strb	r7, [r1, #0]
    }
 8001f56:	e7f4      	b.n	8001f42 <_ZSt16__insertion_sortIPhN9__gnu_cxx5__ops15_Iter_comp_iterIZNSt6ranges8__detail16__make_comp_projINS4_4lessESt8identityEEDaRT_RT0_EUlOS9_OSB_E_EEEvS9_S9_SB_+0x2c>
	    }
	  else
	    std::__unguarded_linear_insert(__i,
				__gnu_cxx::__ops::__val_comp_iter(__comp));
	}
    }
 8001f58:	b003      	add	sp, #12
 8001f5a:	bdf0      	pop	{r4, r5, r6, r7, pc}

08001f5c <_ZSt16__insertion_sortIPhN9__gnu_cxx5__ops15_Iter_comp_iterIZNSt6ranges8__detail16__make_comp_projINS4_4lessEZN6CRSLib3Can6RM000813FilterManager9Implement16FilterManagerImp22set_filter_match_indexIJLNS9_11FilterWidthE0ELSF_0ELSF_0ELSF_0ELSF_0ELSF_0ELSF_0ELSF_0ELSF_0ELSF_0ELSF_0ELSF_0ELSF_0ELSF_0EEJLNS9_10FilterModeE1ELSG_1ELSG_1ELSG_1ELSG_1ELSG_1ELSG_1ELSG_1ELSG_1ELSG_1ELSG_1ELSG_1ELSG_1ELSG_1EEEEvhDpRNSB_15ConfigFilterArgIXT_EXT0_EEEEUlT_E0_EEDaRSL_RT0_EUlOSL_OSO_E_EEEvSL_SL_SO_>:
    __insertion_sort(_RandomAccessIterator __first,
 8001f5c:	b5f7      	push	{r0, r1, r2, r4, r5, r6, r7, lr}
 8001f5e:	460e      	mov	r6, r1
 8001f60:	a902      	add	r1, sp, #8
      if (__first == __last) return;
 8001f62:	42b0      	cmp	r0, r6
    __insertion_sort(_RandomAccessIterator __first,
 8001f64:	4604      	mov	r4, r0
 8001f66:	e901 000c 	stmdb	r1, {r2, r3}
      if (__first == __last) return;
 8001f6a:	d01e      	beq.n	8001faa <_ZSt16__insertion_sortIPhN9__gnu_cxx5__ops15_Iter_comp_iterIZNSt6ranges8__detail16__make_comp_projINS4_4lessEZN6CRSLib3Can6RM000813FilterManager9Implement16FilterManagerImp22set_filter_match_indexIJLNS9_11FilterWidthE0ELSF_0ELSF_0ELSF_0ELSF_0ELSF_0ELSF_0ELSF_0ELSF_0ELSF_0ELSF_0ELSF_0ELSF_0ELSF_0EEJLNS9_10FilterModeE1ELSG_1ELSG_1ELSG_1ELSG_1ELSG_1ELSG_1ELSG_1ELSG_1ELSG_1ELSG_1ELSG_1ELSG_1ELSG_1EEEEvhDpRNSB_15ConfigFilterArgIXT_EXT0_EEEEUlT_E0_EEDaRSL_RT0_EUlOSL_OSO_E_EEEvSL_SL_SO_+0x4e>
      for (_RandomAccessIterator __i = __first + 1; __i != __last; ++__i)
 8001f6c:	1c41      	adds	r1, r0, #1
 8001f6e:	42b1      	cmp	r1, r6
 8001f70:	d01b      	beq.n	8001faa <_ZSt16__insertion_sortIPhN9__gnu_cxx5__ops15_Iter_comp_iterIZNSt6ranges8__detail16__make_comp_projINS4_4lessEZN6CRSLib3Can6RM000813FilterManager9Implement16FilterManagerImp22set_filter_match_indexIJLNS9_11FilterWidthE0ELSF_0ELSF_0ELSF_0ELSF_0ELSF_0ELSF_0ELSF_0ELSF_0ELSF_0ELSF_0ELSF_0ELSF_0ELSF_0EEJLNS9_10FilterModeE1ELSG_1ELSG_1ELSG_1ELSG_1ELSG_1ELSG_1ELSG_1ELSG_1ELSG_1ELSG_1ELSG_1ELSG_1ELSG_1EEEEvhDpRNSB_15ConfigFilterArgIXT_EXT0_EEEEUlT_E0_EEDaRSL_RT0_EUlOSL_OSO_E_EEEvSL_SL_SO_+0x4e>
    { return static_cast<_Up&&>(__t); }

  template<typename _Res, typename _Fn, typename... _Args>
    constexpr _Res
    __invoke_impl(__invoke_other, _Fn&& __f, _Args&&... __args)
    { return std::forward<_Fn>(__f)(std::forward<_Args>(__args)...); }
 8001f72:	460d      	mov	r5, r1
	  if (__comp(__i, __first))
 8001f74:	7823      	ldrb	r3, [r4, #0]
 8001f76:	f815 7b01 	ldrb.w	r7, [r5], #1
 8001f7a:	f003 0303 	and.w	r3, r3, #3
 8001f7e:	f007 0203 	and.w	r2, r7, #3
 8001f82:	429a      	cmp	r2, r3
 8001f84:	d206      	bcs.n	8001f94 <_ZSt16__insertion_sortIPhN9__gnu_cxx5__ops15_Iter_comp_iterIZNSt6ranges8__detail16__make_comp_projINS4_4lessEZN6CRSLib3Can6RM000813FilterManager9Implement16FilterManagerImp22set_filter_match_indexIJLNS9_11FilterWidthE0ELSF_0ELSF_0ELSF_0ELSF_0ELSF_0ELSF_0ELSF_0ELSF_0ELSF_0ELSF_0ELSF_0ELSF_0ELSF_0EEJLNS9_10FilterModeE1ELSG_1ELSG_1ELSG_1ELSG_1ELSG_1ELSG_1ELSG_1ELSG_1ELSG_1ELSG_1ELSG_1ELSG_1ELSG_1EEEEvhDpRNSB_15ConfigFilterArgIXT_EXT0_EEEEUlT_E0_EEDaRSL_RT0_EUlOSL_OSO_E_EEEvSL_SL_SO_+0x38>
	      _GLIBCXX_MOVE_BACKWARD3(__first, __i, __i + 1);
 8001f86:	462a      	mov	r2, r5
 8001f88:	4620      	mov	r0, r4
 8001f8a:	f7ff ffb1 	bl	8001ef0 <_ZSt13move_backwardIPhS0_ET0_T_S2_S1_.isra.0>
	      *__first = _GLIBCXX_MOVE(__val);
 8001f8e:	7027      	strb	r7, [r4, #0]
      for (_RandomAccessIterator __i = __first + 1; __i != __last; ++__i)
 8001f90:	4629      	mov	r1, r5
 8001f92:	e7ec      	b.n	8001f6e <_ZSt16__insertion_sortIPhN9__gnu_cxx5__ops15_Iter_comp_iterIZNSt6ranges8__detail16__make_comp_projINS4_4lessEZN6CRSLib3Can6RM000813FilterManager9Implement16FilterManagerImp22set_filter_match_indexIJLNS9_11FilterWidthE0ELSF_0ELSF_0ELSF_0ELSF_0ELSF_0ELSF_0ELSF_0ELSF_0ELSF_0ELSF_0ELSF_0ELSF_0ELSF_0EEJLNS9_10FilterModeE1ELSG_1ELSG_1ELSG_1ELSG_1ELSG_1ELSG_1ELSG_1ELSG_1ELSG_1ELSG_1ELSG_1ELSG_1ELSG_1EEEEvhDpRNSB_15ConfigFilterArgIXT_EXT0_EEEEUlT_E0_EEDaRSL_RT0_EUlOSL_OSO_E_EEEvSL_SL_SO_+0x12>
 8001f94:	f811 3c01 	ldrb.w	r3, [r1, #-1]
      while (__comp(__val, __next))
 8001f98:	f003 0003 	and.w	r0, r3, #3
 8001f9c:	4282      	cmp	r2, r0
 8001f9e:	d202      	bcs.n	8001fa6 <_ZSt16__insertion_sortIPhN9__gnu_cxx5__ops15_Iter_comp_iterIZNSt6ranges8__detail16__make_comp_projINS4_4lessEZN6CRSLib3Can6RM000813FilterManager9Implement16FilterManagerImp22set_filter_match_indexIJLNS9_11FilterWidthE0ELSF_0ELSF_0ELSF_0ELSF_0ELSF_0ELSF_0ELSF_0ELSF_0ELSF_0ELSF_0ELSF_0ELSF_0ELSF_0EEJLNS9_10FilterModeE1ELSG_1ELSG_1ELSG_1ELSG_1ELSG_1ELSG_1ELSG_1ELSG_1ELSG_1ELSG_1ELSG_1ELSG_1ELSG_1EEEEvhDpRNSB_15ConfigFilterArgIXT_EXT0_EEEEUlT_E0_EEDaRSL_RT0_EUlOSL_OSO_E_EEEvSL_SL_SO_+0x4a>
	  *__last = _GLIBCXX_MOVE(*__next);
 8001fa0:	f801 3901 	strb.w	r3, [r1], #-1
      while (__comp(__val, __next))
 8001fa4:	e7f6      	b.n	8001f94 <_ZSt16__insertion_sortIPhN9__gnu_cxx5__ops15_Iter_comp_iterIZNSt6ranges8__detail16__make_comp_projINS4_4lessEZN6CRSLib3Can6RM000813FilterManager9Implement16FilterManagerImp22set_filter_match_indexIJLNS9_11FilterWidthE0ELSF_0ELSF_0ELSF_0ELSF_0ELSF_0ELSF_0ELSF_0ELSF_0ELSF_0ELSF_0ELSF_0ELSF_0ELSF_0EEJLNS9_10FilterModeE1ELSG_1ELSG_1ELSG_1ELSG_1ELSG_1ELSG_1ELSG_1ELSG_1ELSG_1ELSG_1ELSG_1ELSG_1ELSG_1EEEEvhDpRNSB_15ConfigFilterArgIXT_EXT0_EEEEUlT_E0_EEDaRSL_RT0_EUlOSL_OSO_E_EEEvSL_SL_SO_+0x38>
      *__last = _GLIBCXX_MOVE(__val);
 8001fa6:	700f      	strb	r7, [r1, #0]
    }
 8001fa8:	e7f2      	b.n	8001f90 <_ZSt16__insertion_sortIPhN9__gnu_cxx5__ops15_Iter_comp_iterIZNSt6ranges8__detail16__make_comp_projINS4_4lessEZN6CRSLib3Can6RM000813FilterManager9Implement16FilterManagerImp22set_filter_match_indexIJLNS9_11FilterWidthE0ELSF_0ELSF_0ELSF_0ELSF_0ELSF_0ELSF_0ELSF_0ELSF_0ELSF_0ELSF_0ELSF_0ELSF_0ELSF_0EEJLNS9_10FilterModeE1ELSG_1ELSG_1ELSG_1ELSG_1ELSG_1ELSG_1ELSG_1ELSG_1ELSG_1ELSG_1ELSG_1ELSG_1ELSG_1EEEEvhDpRNSB_15ConfigFilterArgIXT_EXT0_EEEEUlT_E0_EEDaRSL_RT0_EUlOSL_OSO_E_EEEvSL_SL_SO_+0x34>
    }
 8001faa:	b003      	add	sp, #12
 8001fac:	bdf0      	pop	{r4, r5, r6, r7, pc}

08001fae <_ZSt13__adjust_heapIPhihN9__gnu_cxx5__ops15_Iter_comp_iterIZNSt6ranges8__detail16__make_comp_projINS4_4lessESt8identityEEDaRT_RT0_EUlOS9_OSB_E_EEEvS9_SB_SB_T1_T2_>:

  template<typename _RandomAccessIterator, typename _Distance,
	   typename _Tp, typename _Compare>
    _GLIBCXX20_CONSTEXPR
    void
    __adjust_heap(_RandomAccessIterator __first, _Distance __holeIndex,
 8001fae:	b5f0      	push	{r4, r5, r6, r7, lr}
		  _Distance __len, _Tp __value, _Compare __comp)
    {
      const _Distance __topIndex = __holeIndex;
      _Distance __secondChild = __holeIndex;
      while (__secondChild < (__len - 1) / 2)
 8001fb0:	1e54      	subs	r4, r2, #1
 8001fb2:	eb04 74d4 	add.w	r4, r4, r4, lsr #31
 8001fb6:	1065      	asrs	r5, r4, #1
 8001fb8:	460c      	mov	r4, r1
 8001fba:	42a5      	cmp	r5, r4
 8001fbc:	dd0f      	ble.n	8001fde <_ZSt13__adjust_heapIPhihN9__gnu_cxx5__ops15_Iter_comp_iterIZNSt6ranges8__detail16__make_comp_projINS4_4lessESt8identityEEDaRT_RT0_EUlOS9_OSB_E_EEEvS9_SB_SB_T1_T2_+0x30>
	{
	  __secondChild = 2 * (__secondChild + 1);
 8001fbe:	1c67      	adds	r7, r4, #1
 8001fc0:	eb00 0c47 	add.w	ip, r0, r7, lsl #1
 8001fc4:	007e      	lsls	r6, r7, #1
	  if (__comp(__first + __secondChild,
 8001fc6:	f81c cc01 	ldrb.w	ip, [ip, #-1]
 8001fca:	f810 7017 	ldrb.w	r7, [r0, r7, lsl #1]
 8001fce:	45bc      	cmp	ip, r7
		     __first + (__secondChild - 1)))
	    __secondChild--;
 8001fd0:	bf88      	it	hi
 8001fd2:	f106 36ff 	addhi.w	r6, r6, #4294967295
	  *(__first + __holeIndex) = _GLIBCXX_MOVE(*(__first + __secondChild));
 8001fd6:	5d87      	ldrb	r7, [r0, r6]
 8001fd8:	5507      	strb	r7, [r0, r4]
	  __holeIndex = __secondChild;
 8001fda:	4634      	mov	r4, r6
      while (__secondChild < (__len - 1) / 2)
 8001fdc:	e7ed      	b.n	8001fba <_ZSt13__adjust_heapIPhihN9__gnu_cxx5__ops15_Iter_comp_iterIZNSt6ranges8__detail16__make_comp_projINS4_4lessESt8identityEEDaRT_RT0_EUlOS9_OSB_E_EEEvS9_SB_SB_T1_T2_+0xc>
	}
      if ((__len & 1) == 0 && __secondChild == (__len - 2) / 2)
 8001fde:	07d5      	lsls	r5, r2, #31
 8001fe0:	d40d      	bmi.n	8001ffe <_ZSt13__adjust_heapIPhihN9__gnu_cxx5__ops15_Iter_comp_iterIZNSt6ranges8__detail16__make_comp_projINS4_4lessESt8identityEEDaRT_RT0_EUlOS9_OSB_E_EEEvS9_SB_SB_T1_T2_+0x50>
 8001fe2:	3a02      	subs	r2, #2
 8001fe4:	eb02 72d2 	add.w	r2, r2, r2, lsr #31
 8001fe8:	ebb4 0f62 	cmp.w	r4, r2, asr #1
 8001fec:	d107      	bne.n	8001ffe <_ZSt13__adjust_heapIPhihN9__gnu_cxx5__ops15_Iter_comp_iterIZNSt6ranges8__detail16__make_comp_projINS4_4lessESt8identityEEDaRT_RT0_EUlOS9_OSB_E_EEEvS9_SB_SB_T1_T2_+0x50>
	{
	  __secondChild = 2 * (__secondChild + 1);
 8001fee:	1c62      	adds	r2, r4, #1
 8001ff0:	0055      	lsls	r5, r2, #1
	  *(__first + __holeIndex) = _GLIBCXX_MOVE(*(__first
 8001ff2:	eb00 0242 	add.w	r2, r0, r2, lsl #1
 8001ff6:	f812 2c01 	ldrb.w	r2, [r2, #-1]
 8001ffa:	5502      	strb	r2, [r0, r4]
						     + (__secondChild - 1)));
	  __holeIndex = __secondChild - 1;
 8001ffc:	1e6c      	subs	r4, r5, #1
      _Distance __parent = (__holeIndex - 1) / 2;
 8001ffe:	1e62      	subs	r2, r4, #1
 8002000:	eb02 72d2 	add.w	r2, r2, r2, lsr #31
 8002004:	1052      	asrs	r2, r2, #1
      while (__holeIndex > __topIndex && __comp(__first + __parent, __value))
 8002006:	42a1      	cmp	r1, r4
	  *(__first + __holeIndex) = _GLIBCXX_MOVE(*(__first + __parent));
 8002008:	eb00 0504 	add.w	r5, r0, r4
      while (__holeIndex > __topIndex && __comp(__first + __parent, __value))
 800200c:	da09      	bge.n	8002022 <_ZSt13__adjust_heapIPhihN9__gnu_cxx5__ops15_Iter_comp_iterIZNSt6ranges8__detail16__make_comp_projINS4_4lessESt8identityEEDaRT_RT0_EUlOS9_OSB_E_EEEvS9_SB_SB_T1_T2_+0x74>
 800200e:	5c84      	ldrb	r4, [r0, r2]
 8002010:	42a3      	cmp	r3, r4
 8002012:	d906      	bls.n	8002022 <_ZSt13__adjust_heapIPhihN9__gnu_cxx5__ops15_Iter_comp_iterIZNSt6ranges8__detail16__make_comp_projINS4_4lessESt8identityEEDaRT_RT0_EUlOS9_OSB_E_EEEvS9_SB_SB_T1_T2_+0x74>
	  *(__first + __holeIndex) = _GLIBCXX_MOVE(*(__first + __parent));
 8002014:	702c      	strb	r4, [r5, #0]
	  __parent = (__holeIndex - 1) / 2;
 8002016:	1e54      	subs	r4, r2, #1
 8002018:	eb04 75d4 	add.w	r5, r4, r4, lsr #31
	  __holeIndex = __parent;
 800201c:	4614      	mov	r4, r2
	  __parent = (__holeIndex - 1) / 2;
 800201e:	106a      	asrs	r2, r5, #1
      while (__holeIndex > __topIndex && __comp(__first + __parent, __value))
 8002020:	e7f1      	b.n	8002006 <_ZSt13__adjust_heapIPhihN9__gnu_cxx5__ops15_Iter_comp_iterIZNSt6ranges8__detail16__make_comp_projINS4_4lessESt8identityEEDaRT_RT0_EUlOS9_OSB_E_EEEvS9_SB_SB_T1_T2_+0x58>
      *(__first + __holeIndex) = _GLIBCXX_MOVE(__value);
 8002022:	702b      	strb	r3, [r5, #0]
	}
      __decltype(__gnu_cxx::__ops::__iter_comp_val(_GLIBCXX_MOVE(__comp)))
	__cmp(_GLIBCXX_MOVE(__comp));
      std::__push_heap(__first, __holeIndex, __topIndex,
		       _GLIBCXX_MOVE(__value), __cmp);
    }
 8002024:	bdf0      	pop	{r4, r5, r6, r7, pc}

08002026 <_ZSt16__introsort_loopIPhiN9__gnu_cxx5__ops15_Iter_comp_iterIZNSt6ranges8__detail16__make_comp_projINS4_4lessESt8identityEEDaRT_RT0_EUlOS9_OSB_E_EEEvS9_S9_SB_T1_>:

  /// This is a helper function for the sort routine.
  template<typename _RandomAccessIterator, typename _Size, typename _Compare>
    _GLIBCXX20_CONSTEXPR
    void
    __introsort_loop(_RandomAccessIterator __first,
 8002026:	b082      	sub	sp, #8
 8002028:	e92d 43f0 	stmdb	sp!, {r4, r5, r6, r7, r8, r9, lr}
 800202c:	4604      	mov	r4, r0
 800202e:	460d      	mov	r5, r1
 8002030:	4617      	mov	r7, r2
 8002032:	b087      	sub	sp, #28
 8002034:	930f      	str	r3, [sp, #60]	; 0x3c
      std::__move_median_to_first(__first, __first + 1, __mid, __last - 1,
 8002036:	f100 0801 	add.w	r8, r0, #1
		     _RandomAccessIterator __last,
		     _Size __depth_limit, _Compare __comp)
    {
      while (__last - __first > int(_S_threshold))
 800203a:	1b2e      	subs	r6, r5, r4
 800203c:	2e10      	cmp	r6, #16
 800203e:	dd29      	ble.n	8002094 <_ZSt16__introsort_loopIPhiN9__gnu_cxx5__ops15_Iter_comp_iterIZNSt6ranges8__detail16__make_comp_projINS4_4lessESt8identityEEDaRT_RT0_EUlOS9_OSB_E_EEEvS9_S9_SB_T1_+0x6e>
	{
	  if (__depth_limit == 0)
 8002040:	bb6f      	cbnz	r7, 800209e <_ZSt16__introsort_loopIPhiN9__gnu_cxx5__ops15_Iter_comp_iterIZNSt6ranges8__detail16__make_comp_projINS4_4lessESt8identityEEDaRT_RT0_EUlOS9_OSB_E_EEEvS9_S9_SB_T1_+0x78>
 8002042:	e9dd 010f 	ldrd	r0, r1, [sp, #60]	; 0x3c
 8002046:	f10d 0808 	add.w	r8, sp, #8
 800204a:	f10d 0910 	add.w	r9, sp, #16
 800204e:	e888 0003 	stmia.w	r8, {r0, r1}
    __partial_sort(_RandomAccessIterator __first,
 8002052:	e889 0003 	stmia.w	r9, {r0, r1}

      if (__last - __first < 2)
	return;

      const _DistanceType __len = __last - __first;
      _DistanceType __parent = (__len - 2) / 2;
 8002056:	1eb7      	subs	r7, r6, #2
 8002058:	107f      	asrs	r7, r7, #1
      while (true)
	{
	  _ValueType __value = _GLIBCXX_MOVE(*(__first + __parent));
	  std::__adjust_heap(__first, __parent, __len, _GLIBCXX_MOVE(__value),
 800205a:	e899 0003 	ldmia.w	r9, {r0, r1}
 800205e:	4632      	mov	r2, r6
 8002060:	e88d 0003 	stmia.w	sp, {r0, r1}
 8002064:	5de3      	ldrb	r3, [r4, r7]
 8002066:	4639      	mov	r1, r7
 8002068:	4620      	mov	r0, r4
 800206a:	f7ff ffa0 	bl	8001fae <_ZSt13__adjust_heapIPhihN9__gnu_cxx5__ops15_Iter_comp_iterIZNSt6ranges8__detail16__make_comp_projINS4_4lessESt8identityEEDaRT_RT0_EUlOS9_OSB_E_EEEvS9_SB_SB_T1_T2_>
			     __comp);
	  if (__parent == 0)
 800206e:	b10f      	cbz	r7, 8002074 <_ZSt16__introsort_loopIPhiN9__gnu_cxx5__ops15_Iter_comp_iterIZNSt6ranges8__detail16__make_comp_projINS4_4lessESt8identityEEDaRT_RT0_EUlOS9_OSB_E_EEEvS9_S9_SB_T1_+0x4e>
	    return;
	  __parent--;
 8002070:	3f01      	subs	r7, #1
      while (true)
 8002072:	e7f2      	b.n	800205a <_ZSt16__introsort_loopIPhiN9__gnu_cxx5__ops15_Iter_comp_iterIZNSt6ranges8__detail16__make_comp_projINS4_4lessESt8identityEEDaRT_RT0_EUlOS9_OSB_E_EEEvS9_S9_SB_T1_+0x34>
      _ValueType __value = _GLIBCXX_MOVE(*__result);
 8002074:	f815 3d01 	ldrb.w	r3, [r5, #-1]!
      *__result = _GLIBCXX_MOVE(*__first);
 8002078:	7822      	ldrb	r2, [r4, #0]
			 _DistanceType(__last - __first),
 800207a:	1b2e      	subs	r6, r5, r4
      std::__adjust_heap(__first, _DistanceType(0),
 800207c:	e898 0003 	ldmia.w	r8, {r0, r1}
      *__result = _GLIBCXX_MOVE(*__first);
 8002080:	702a      	strb	r2, [r5, #0]
      std::__adjust_heap(__first, _DistanceType(0),
 8002082:	e88d 0003 	stmia.w	sp, {r0, r1}
 8002086:	4632      	mov	r2, r6
 8002088:	2100      	movs	r1, #0
 800208a:	4620      	mov	r0, r4
 800208c:	f7ff ff8f 	bl	8001fae <_ZSt13__adjust_heapIPhihN9__gnu_cxx5__ops15_Iter_comp_iterIZNSt6ranges8__detail16__make_comp_projINS4_4lessESt8identityEEDaRT_RT0_EUlOS9_OSB_E_EEEvS9_SB_SB_T1_T2_>
    _GLIBCXX20_CONSTEXPR
    void
    __sort_heap(_RandomAccessIterator __first, _RandomAccessIterator __last,
		_Compare& __comp)
    {
      while (__last - __first > 1)
 8002090:	2e01      	cmp	r6, #1
 8002092:	dcef      	bgt.n	8002074 <_ZSt16__introsort_loopIPhiN9__gnu_cxx5__ops15_Iter_comp_iterIZNSt6ranges8__detail16__make_comp_projINS4_4lessESt8identityEEDaRT_RT0_EUlOS9_OSB_E_EEEvS9_S9_SB_T1_+0x4e>
	  _RandomAccessIterator __cut =
	    std::__unguarded_partition_pivot(__first, __last, __comp);
	  std::__introsort_loop(__cut, __last, __depth_limit, __comp);
	  __last = __cut;
	}
    }
 8002094:	b007      	add	sp, #28
 8002096:	e8bd 43f0 	ldmia.w	sp!, {r4, r5, r6, r7, r8, r9, lr}
 800209a:	b002      	add	sp, #8
 800209c:	4770      	bx	lr
      _RandomAccessIterator __mid = __first + (__last - __first) / 2;
 800209e:	1076      	asrs	r6, r6, #1
 80020a0:	7860      	ldrb	r0, [r4, #1]
 80020a2:	5da1      	ldrb	r1, [r4, r6]
 80020a4:	f815 2c01 	ldrb.w	r2, [r5, #-1]
      if (__comp(__a, __b))
 80020a8:	4288      	cmp	r0, r1
    {
#if __cplusplus < 201103L
      // concept requirements
      __glibcxx_function_requires(_SGIAssignableConcept<_Tp>)
#endif
      _Tp __tmp = _GLIBCXX_MOVE(__a);
 80020aa:	7823      	ldrb	r3, [r4, #0]
	  --__depth_limit;
 80020ac:	f107 37ff 	add.w	r7, r7, #4294967295
      if (__comp(__a, __b))
 80020b0:	d224      	bcs.n	80020fc <_ZSt16__introsort_loopIPhiN9__gnu_cxx5__ops15_Iter_comp_iterIZNSt6ranges8__detail16__make_comp_projINS4_4lessESt8identityEEDaRT_RT0_EUlOS9_OSB_E_EEEvS9_S9_SB_T1_+0xd6>
	  if (__comp(__b, __c))
 80020b2:	428a      	cmp	r2, r1
 80020b4:	d91c      	bls.n	80020f0 <_ZSt16__introsort_loopIPhiN9__gnu_cxx5__ops15_Iter_comp_iterIZNSt6ranges8__detail16__make_comp_projINS4_4lessESt8identityEEDaRT_RT0_EUlOS9_OSB_E_EEEvS9_S9_SB_T1_+0xca>
      __a = _GLIBCXX_MOVE(__b);
 80020b6:	7021      	strb	r1, [r4, #0]
      __b = _GLIBCXX_MOVE(__tmp);
 80020b8:	55a3      	strb	r3, [r4, r6]
 80020ba:	4642      	mov	r2, r8
      while (__last - __first > int(_S_threshold))
 80020bc:	462b      	mov	r3, r5
 80020be:	4616      	mov	r6, r2
 80020c0:	f894 e000 	ldrb.w	lr, [r4]
 80020c4:	f812 0b01 	ldrb.w	r0, [r2], #1
	  while (__comp(__first, __pivot))
 80020c8:	4570      	cmp	r0, lr
 80020ca:	d3f8      	bcc.n	80020be <_ZSt16__introsort_loopIPhiN9__gnu_cxx5__ops15_Iter_comp_iterIZNSt6ranges8__detail16__make_comp_projINS4_4lessESt8identityEEDaRT_RT0_EUlOS9_OSB_E_EEEvS9_S9_SB_T1_+0x98>
	  --__last;
 80020cc:	1e59      	subs	r1, r3, #1
 80020ce:	460b      	mov	r3, r1
 80020d0:	f811 c901 	ldrb.w	ip, [r1], #-1
	  while (__comp(__pivot, __last))
 80020d4:	45e6      	cmp	lr, ip
 80020d6:	d3fa      	bcc.n	80020ce <_ZSt16__introsort_loopIPhiN9__gnu_cxx5__ops15_Iter_comp_iterIZNSt6ranges8__detail16__make_comp_projINS4_4lessESt8identityEEDaRT_RT0_EUlOS9_OSB_E_EEEvS9_S9_SB_T1_+0xa8>
	  if (!(__first < __last))
 80020d8:	429e      	cmp	r6, r3
 80020da:	d317      	bcc.n	800210c <_ZSt16__introsort_loopIPhiN9__gnu_cxx5__ops15_Iter_comp_iterIZNSt6ranges8__detail16__make_comp_projINS4_4lessESt8identityEEDaRT_RT0_EUlOS9_OSB_E_EEEvS9_S9_SB_T1_+0xe6>
	  std::__introsort_loop(__cut, __last, __depth_limit, __comp);
 80020dc:	9b10      	ldr	r3, [sp, #64]	; 0x40
 80020de:	4629      	mov	r1, r5
 80020e0:	9300      	str	r3, [sp, #0]
 80020e2:	463a      	mov	r2, r7
 80020e4:	4630      	mov	r0, r6
 80020e6:	9b0f      	ldr	r3, [sp, #60]	; 0x3c
 80020e8:	f7ff ff9d 	bl	8002026 <_ZSt16__introsort_loopIPhiN9__gnu_cxx5__ops15_Iter_comp_iterIZNSt6ranges8__detail16__make_comp_projINS4_4lessESt8identityEEDaRT_RT0_EUlOS9_OSB_E_EEEvS9_S9_SB_T1_>
      while (__last - __first > int(_S_threshold))
 80020ec:	4635      	mov	r5, r6
 80020ee:	e7a4      	b.n	800203a <_ZSt16__introsort_loopIPhiN9__gnu_cxx5__ops15_Iter_comp_iterIZNSt6ranges8__detail16__make_comp_projINS4_4lessESt8identityEEDaRT_RT0_EUlOS9_OSB_E_EEEvS9_S9_SB_T1_+0x14>
	  else if (__comp(__a, __c))
 80020f0:	4282      	cmp	r2, r0
 80020f2:	d905      	bls.n	8002100 <_ZSt16__introsort_loopIPhiN9__gnu_cxx5__ops15_Iter_comp_iterIZNSt6ranges8__detail16__make_comp_projINS4_4lessESt8identityEEDaRT_RT0_EUlOS9_OSB_E_EEEvS9_S9_SB_T1_+0xda>
      __a = _GLIBCXX_MOVE(__b);
 80020f4:	7022      	strb	r2, [r4, #0]
      __b = _GLIBCXX_MOVE(__tmp);
 80020f6:	f805 3c01 	strb.w	r3, [r5, #-1]
    }
 80020fa:	e7de      	b.n	80020ba <_ZSt16__introsort_loopIPhiN9__gnu_cxx5__ops15_Iter_comp_iterIZNSt6ranges8__detail16__make_comp_projINS4_4lessESt8identityEEDaRT_RT0_EUlOS9_OSB_E_EEEvS9_S9_SB_T1_+0x94>
      else if (__comp(__a, __c))
 80020fc:	4282      	cmp	r2, r0
 80020fe:	d902      	bls.n	8002106 <_ZSt16__introsort_loopIPhiN9__gnu_cxx5__ops15_Iter_comp_iterIZNSt6ranges8__detail16__make_comp_projINS4_4lessESt8identityEEDaRT_RT0_EUlOS9_OSB_E_EEEvS9_S9_SB_T1_+0xe0>
      __a = _GLIBCXX_MOVE(__b);
 8002100:	7020      	strb	r0, [r4, #0]
      __b = _GLIBCXX_MOVE(__tmp);
 8002102:	7063      	strb	r3, [r4, #1]
 8002104:	e7d9      	b.n	80020ba <_ZSt16__introsort_loopIPhiN9__gnu_cxx5__ops15_Iter_comp_iterIZNSt6ranges8__detail16__make_comp_projINS4_4lessESt8identityEEDaRT_RT0_EUlOS9_OSB_E_EEEvS9_S9_SB_T1_+0x94>
      else if (__comp(__b, __c))
 8002106:	428a      	cmp	r2, r1
 8002108:	d9d5      	bls.n	80020b6 <_ZSt16__introsort_loopIPhiN9__gnu_cxx5__ops15_Iter_comp_iterIZNSt6ranges8__detail16__make_comp_projINS4_4lessESt8identityEEDaRT_RT0_EUlOS9_OSB_E_EEEvS9_S9_SB_T1_+0x90>
 800210a:	e7f3      	b.n	80020f4 <_ZSt16__introsort_loopIPhiN9__gnu_cxx5__ops15_Iter_comp_iterIZNSt6ranges8__detail16__make_comp_projINS4_4lessESt8identityEEDaRT_RT0_EUlOS9_OSB_E_EEEvS9_S9_SB_T1_+0xce>
      __a = _GLIBCXX_MOVE(__b);
 800210c:	f802 cc01 	strb.w	ip, [r2, #-1]
      __b = _GLIBCXX_MOVE(__tmp);
 8002110:	7018      	strb	r0, [r3, #0]
	  while (__comp(__first, __pivot))
 8002112:	e7d4      	b.n	80020be <_ZSt16__introsort_loopIPhiN9__gnu_cxx5__ops15_Iter_comp_iterIZNSt6ranges8__detail16__make_comp_projINS4_4lessESt8identityEEDaRT_RT0_EUlOS9_OSB_E_EEEvS9_S9_SB_T1_+0x98>

08002114 <_ZSt6__sortIPhN9__gnu_cxx5__ops15_Iter_comp_iterIZNSt6ranges8__detail16__make_comp_projINS4_4lessESt8identityEEDaRT_RT0_EUlOS9_OSB_E_EEEvS9_S9_SB_>:
  // sort

  template<typename _RandomAccessIterator, typename _Compare>
    _GLIBCXX20_CONSTEXPR
    inline void
    __sort(_RandomAccessIterator __first, _RandomAccessIterator __last,
 8002114:	b5f0      	push	{r4, r5, r6, r7, lr}
 8002116:	b087      	sub	sp, #28
 8002118:	ae02      	add	r6, sp, #8
	   _Compare __comp)
    {
      if (__first != __last)
 800211a:	4288      	cmp	r0, r1
    __sort(_RandomAccessIterator __first, _RandomAccessIterator __last,
 800211c:	4604      	mov	r4, r0
 800211e:	460d      	mov	r5, r1
 8002120:	e886 000c 	stmia.w	r6, {r2, r3}
      if (__first != __last)
 8002124:	d02a      	beq.n	800217c <_ZSt6__sortIPhN9__gnu_cxx5__ops15_Iter_comp_iterIZNSt6ranges8__detail16__make_comp_projINS4_4lessESt8identityEEDaRT_RT0_EUlOS9_OSB_E_EEEvS9_S9_SB_+0x68>
	{
	  std::__introsort_loop(__first, __last,
				std::__lg(__last - __first) * 2,
 8002126:	1a0f      	subs	r7, r1, r0

  /// This is a helper function for the sort routines and for random.tcc.
  //  Precondition: __n > 0.
  inline _GLIBCXX_CONSTEXPR int
  __lg(int __n)
  { return (int)sizeof(int) * __CHAR_BIT__  - 1 - __builtin_clz(__n); }
 8002128:	fab7 f287 	clz	r2, r7
 800212c:	f1c2 021f 	rsb	r2, r2, #31
	  std::__introsort_loop(__first, __last,
 8002130:	9300      	str	r3, [sp, #0]
 8002132:	0052      	lsls	r2, r2, #1
 8002134:	9b02      	ldr	r3, [sp, #8]
 8002136:	f7ff ff76 	bl	8002026 <_ZSt16__introsort_loopIPhiN9__gnu_cxx5__ops15_Iter_comp_iterIZNSt6ranges8__detail16__make_comp_projINS4_4lessESt8identityEEDaRT_RT0_EUlOS9_OSB_E_EEEvS9_S9_SB_T1_>
 800213a:	e896 0003 	ldmia.w	r6, {r0, r1}
 800213e:	ab04      	add	r3, sp, #16
      if (__last - __first > int(_S_threshold))
 8002140:	2f10      	cmp	r7, #16
 8002142:	e883 0003 	stmia.w	r3, {r0, r1}
 8002146:	dd14      	ble.n	8002172 <_ZSt6__sortIPhN9__gnu_cxx5__ops15_Iter_comp_iterIZNSt6ranges8__detail16__make_comp_projINS4_4lessESt8identityEEDaRT_RT0_EUlOS9_OSB_E_EEEvS9_S9_SB_+0x5e>
	  std::__insertion_sort(__first, __first + int(_S_threshold), __comp);
 8002148:	cb0c      	ldmia	r3, {r2, r3}
 800214a:	f104 0610 	add.w	r6, r4, #16
 800214e:	4631      	mov	r1, r6
 8002150:	4620      	mov	r0, r4
 8002152:	f7ff fee0 	bl	8001f16 <_ZSt16__insertion_sortIPhN9__gnu_cxx5__ops15_Iter_comp_iterIZNSt6ranges8__detail16__make_comp_projINS4_4lessESt8identityEEDaRT_RT0_EUlOS9_OSB_E_EEEvS9_S9_SB_>
      for (_RandomAccessIterator __i = __first; __i != __last; ++__i)
 8002156:	42b5      	cmp	r5, r6
 8002158:	d010      	beq.n	800217c <_ZSt6__sortIPhN9__gnu_cxx5__ops15_Iter_comp_iterIZNSt6ranges8__detail16__make_comp_projINS4_4lessESt8identityEEDaRT_RT0_EUlOS9_OSB_E_EEEvS9_S9_SB_+0x68>
    __unguarded_linear_insert(_RandomAccessIterator __last,
 800215a:	4633      	mov	r3, r6
	__val = _GLIBCXX_MOVE(*__last);
 800215c:	7832      	ldrb	r2, [r6, #0]
 800215e:	f813 1c01 	ldrb.w	r1, [r3, #-1]
      while (__comp(__val, __next))
 8002162:	428a      	cmp	r2, r1
 8002164:	d202      	bcs.n	800216c <_ZSt6__sortIPhN9__gnu_cxx5__ops15_Iter_comp_iterIZNSt6ranges8__detail16__make_comp_projINS4_4lessESt8identityEEDaRT_RT0_EUlOS9_OSB_E_EEEvS9_S9_SB_+0x58>
	  *__last = _GLIBCXX_MOVE(*__next);
 8002166:	f803 1901 	strb.w	r1, [r3], #-1
      while (__comp(__val, __next))
 800216a:	e7f8      	b.n	800215e <_ZSt6__sortIPhN9__gnu_cxx5__ops15_Iter_comp_iterIZNSt6ranges8__detail16__make_comp_projINS4_4lessESt8identityEEDaRT_RT0_EUlOS9_OSB_E_EEEvS9_S9_SB_+0x4a>
      *__last = _GLIBCXX_MOVE(__val);
 800216c:	701a      	strb	r2, [r3, #0]
      for (_RandomAccessIterator __i = __first; __i != __last; ++__i)
 800216e:	3601      	adds	r6, #1
 8002170:	e7f1      	b.n	8002156 <_ZSt6__sortIPhN9__gnu_cxx5__ops15_Iter_comp_iterIZNSt6ranges8__detail16__make_comp_projINS4_4lessESt8identityEEDaRT_RT0_EUlOS9_OSB_E_EEEvS9_S9_SB_+0x42>
	std::__insertion_sort(__first, __last, __comp);
 8002172:	4629      	mov	r1, r5
 8002174:	cb0c      	ldmia	r3, {r2, r3}
 8002176:	4620      	mov	r0, r4
 8002178:	f7ff fecd 	bl	8001f16 <_ZSt16__insertion_sortIPhN9__gnu_cxx5__ops15_Iter_comp_iterIZNSt6ranges8__detail16__make_comp_projINS4_4lessESt8identityEEDaRT_RT0_EUlOS9_OSB_E_EEEvS9_S9_SB_>
				__comp);
	  std::__final_insertion_sort(__first, __last, __comp);
	}
    }
 800217c:	b007      	add	sp, #28
 800217e:	bdf0      	pop	{r4, r5, r6, r7, pc}

08002180 <_ZSt13__adjust_heapIPhihN9__gnu_cxx5__ops15_Iter_comp_iterIZNSt6ranges8__detail16__make_comp_projINS4_4lessEZN6CRSLib3Can6RM000813FilterManager9Implement16FilterManagerImp22set_filter_match_indexIJLNS9_11FilterWidthE0ELSF_0ELSF_0ELSF_0ELSF_0ELSF_0ELSF_0ELSF_0ELSF_0ELSF_0ELSF_0ELSF_0ELSF_0ELSF_0EEJLNS9_10FilterModeE1ELSG_1ELSG_1ELSG_1ELSG_1ELSG_1ELSG_1ELSG_1ELSG_1ELSG_1ELSG_1ELSG_1ELSG_1ELSG_1EEEEvhDpRNSB_15ConfigFilterArgIXT_EXT0_EEEEUlT_E0_EEDaRSL_RT0_EUlOSL_OSO_E_EEEvSL_SO_SO_T1_T2_>:
    __adjust_heap(_RandomAccessIterator __first, _Distance __holeIndex,
 8002180:	b5f0      	push	{r4, r5, r6, r7, lr}
      while (__secondChild < (__len - 1) / 2)
 8002182:	1e54      	subs	r4, r2, #1
 8002184:	eb04 74d4 	add.w	r4, r4, r4, lsr #31
 8002188:	1065      	asrs	r5, r4, #1
 800218a:	460c      	mov	r4, r1
 800218c:	42a5      	cmp	r5, r4
 800218e:	dd13      	ble.n	80021b8 <_ZSt13__adjust_heapIPhihN9__gnu_cxx5__ops15_Iter_comp_iterIZNSt6ranges8__detail16__make_comp_projINS4_4lessEZN6CRSLib3Can6RM000813FilterManager9Implement16FilterManagerImp22set_filter_match_indexIJLNS9_11FilterWidthE0ELSF_0ELSF_0ELSF_0ELSF_0ELSF_0ELSF_0ELSF_0ELSF_0ELSF_0ELSF_0ELSF_0ELSF_0ELSF_0EEJLNS9_10FilterModeE1ELSG_1ELSG_1ELSG_1ELSG_1ELSG_1ELSG_1ELSG_1ELSG_1ELSG_1ELSG_1ELSG_1ELSG_1ELSG_1EEEEvhDpRNSB_15ConfigFilterArgIXT_EXT0_EEEEUlT_E0_EEDaRSL_RT0_EUlOSL_OSO_E_EEEvSL_SO_SO_T1_T2_+0x38>
	  __secondChild = 2 * (__secondChild + 1);
 8002190:	1c67      	adds	r7, r4, #1
 8002192:	eb00 0c47 	add.w	ip, r0, r7, lsl #1
 8002196:	007e      	lsls	r6, r7, #1
	  if (__comp(__first + __secondChild,
 8002198:	f81c cc01 	ldrb.w	ip, [ip, #-1]
 800219c:	f810 7017 	ldrb.w	r7, [r0, r7, lsl #1]
 80021a0:	f00c 0c03 	and.w	ip, ip, #3
 80021a4:	f007 0703 	and.w	r7, r7, #3
 80021a8:	45bc      	cmp	ip, r7
	    __secondChild--;
 80021aa:	bf88      	it	hi
 80021ac:	f106 36ff 	addhi.w	r6, r6, #4294967295
	  *(__first + __holeIndex) = _GLIBCXX_MOVE(*(__first + __secondChild));
 80021b0:	5d87      	ldrb	r7, [r0, r6]
 80021b2:	5507      	strb	r7, [r0, r4]
	  __holeIndex = __secondChild;
 80021b4:	4634      	mov	r4, r6
      while (__secondChild < (__len - 1) / 2)
 80021b6:	e7e9      	b.n	800218c <_ZSt13__adjust_heapIPhihN9__gnu_cxx5__ops15_Iter_comp_iterIZNSt6ranges8__detail16__make_comp_projINS4_4lessEZN6CRSLib3Can6RM000813FilterManager9Implement16FilterManagerImp22set_filter_match_indexIJLNS9_11FilterWidthE0ELSF_0ELSF_0ELSF_0ELSF_0ELSF_0ELSF_0ELSF_0ELSF_0ELSF_0ELSF_0ELSF_0ELSF_0ELSF_0EEJLNS9_10FilterModeE1ELSG_1ELSG_1ELSG_1ELSG_1ELSG_1ELSG_1ELSG_1ELSG_1ELSG_1ELSG_1ELSG_1ELSG_1ELSG_1EEEEvhDpRNSB_15ConfigFilterArgIXT_EXT0_EEEEUlT_E0_EEDaRSL_RT0_EUlOSL_OSO_E_EEEvSL_SO_SO_T1_T2_+0xc>
      if ((__len & 1) == 0 && __secondChild == (__len - 2) / 2)
 80021b8:	07d5      	lsls	r5, r2, #31
 80021ba:	d40d      	bmi.n	80021d8 <_ZSt13__adjust_heapIPhihN9__gnu_cxx5__ops15_Iter_comp_iterIZNSt6ranges8__detail16__make_comp_projINS4_4lessEZN6CRSLib3Can6RM000813FilterManager9Implement16FilterManagerImp22set_filter_match_indexIJLNS9_11FilterWidthE0ELSF_0ELSF_0ELSF_0ELSF_0ELSF_0ELSF_0ELSF_0ELSF_0ELSF_0ELSF_0ELSF_0ELSF_0ELSF_0EEJLNS9_10FilterModeE1ELSG_1ELSG_1ELSG_1ELSG_1ELSG_1ELSG_1ELSG_1ELSG_1ELSG_1ELSG_1ELSG_1ELSG_1ELSG_1EEEEvhDpRNSB_15ConfigFilterArgIXT_EXT0_EEEEUlT_E0_EEDaRSL_RT0_EUlOSL_OSO_E_EEEvSL_SO_SO_T1_T2_+0x58>
 80021bc:	3a02      	subs	r2, #2
 80021be:	eb02 72d2 	add.w	r2, r2, r2, lsr #31
 80021c2:	ebb4 0f62 	cmp.w	r4, r2, asr #1
 80021c6:	d107      	bne.n	80021d8 <_ZSt13__adjust_heapIPhihN9__gnu_cxx5__ops15_Iter_comp_iterIZNSt6ranges8__detail16__make_comp_projINS4_4lessEZN6CRSLib3Can6RM000813FilterManager9Implement16FilterManagerImp22set_filter_match_indexIJLNS9_11FilterWidthE0ELSF_0ELSF_0ELSF_0ELSF_0ELSF_0ELSF_0ELSF_0ELSF_0ELSF_0ELSF_0ELSF_0ELSF_0ELSF_0EEJLNS9_10FilterModeE1ELSG_1ELSG_1ELSG_1ELSG_1ELSG_1ELSG_1ELSG_1ELSG_1ELSG_1ELSG_1ELSG_1ELSG_1ELSG_1EEEEvhDpRNSB_15ConfigFilterArgIXT_EXT0_EEEEUlT_E0_EEDaRSL_RT0_EUlOSL_OSO_E_EEEvSL_SO_SO_T1_T2_+0x58>
	  __secondChild = 2 * (__secondChild + 1);
 80021c8:	1c62      	adds	r2, r4, #1
 80021ca:	0055      	lsls	r5, r2, #1
	  *(__first + __holeIndex) = _GLIBCXX_MOVE(*(__first
 80021cc:	eb00 0242 	add.w	r2, r0, r2, lsl #1
 80021d0:	f812 2c01 	ldrb.w	r2, [r2, #-1]
 80021d4:	5502      	strb	r2, [r0, r4]
	  __holeIndex = __secondChild - 1;
 80021d6:	1e6c      	subs	r4, r5, #1
      _Distance __parent = (__holeIndex - 1) / 2;
 80021d8:	1e62      	subs	r2, r4, #1
 80021da:	eb02 72d2 	add.w	r2, r2, r2, lsr #31
 80021de:	1052      	asrs	r2, r2, #1
      while (__holeIndex > __topIndex && __comp(__first + __parent, __value))
 80021e0:	f003 0603 	and.w	r6, r3, #3
 80021e4:	42a1      	cmp	r1, r4
	  *(__first + __holeIndex) = _GLIBCXX_MOVE(*(__first + __parent));
 80021e6:	eb00 0504 	add.w	r5, r0, r4
      while (__holeIndex > __topIndex && __comp(__first + __parent, __value))
 80021ea:	da0b      	bge.n	8002204 <_ZSt13__adjust_heapIPhihN9__gnu_cxx5__ops15_Iter_comp_iterIZNSt6ranges8__detail16__make_comp_projINS4_4lessEZN6CRSLib3Can6RM000813FilterManager9Implement16FilterManagerImp22set_filter_match_indexIJLNS9_11FilterWidthE0ELSF_0ELSF_0ELSF_0ELSF_0ELSF_0ELSF_0ELSF_0ELSF_0ELSF_0ELSF_0ELSF_0ELSF_0ELSF_0EEJLNS9_10FilterModeE1ELSG_1ELSG_1ELSG_1ELSG_1ELSG_1ELSG_1ELSG_1ELSG_1ELSG_1ELSG_1ELSG_1ELSG_1ELSG_1EEEEvhDpRNSB_15ConfigFilterArgIXT_EXT0_EEEEUlT_E0_EEDaRSL_RT0_EUlOSL_OSO_E_EEEvSL_SO_SO_T1_T2_+0x84>
 80021ec:	5c84      	ldrb	r4, [r0, r2]
 80021ee:	f004 0703 	and.w	r7, r4, #3
 80021f2:	42b7      	cmp	r7, r6
 80021f4:	d206      	bcs.n	8002204 <_ZSt13__adjust_heapIPhihN9__gnu_cxx5__ops15_Iter_comp_iterIZNSt6ranges8__detail16__make_comp_projINS4_4lessEZN6CRSLib3Can6RM000813FilterManager9Implement16FilterManagerImp22set_filter_match_indexIJLNS9_11FilterWidthE0ELSF_0ELSF_0ELSF_0ELSF_0ELSF_0ELSF_0ELSF_0ELSF_0ELSF_0ELSF_0ELSF_0ELSF_0ELSF_0EEJLNS9_10FilterModeE1ELSG_1ELSG_1ELSG_1ELSG_1ELSG_1ELSG_1ELSG_1ELSG_1ELSG_1ELSG_1ELSG_1ELSG_1ELSG_1EEEEvhDpRNSB_15ConfigFilterArgIXT_EXT0_EEEEUlT_E0_EEDaRSL_RT0_EUlOSL_OSO_E_EEEvSL_SO_SO_T1_T2_+0x84>
	  *(__first + __holeIndex) = _GLIBCXX_MOVE(*(__first + __parent));
 80021f6:	702c      	strb	r4, [r5, #0]
	  __parent = (__holeIndex - 1) / 2;
 80021f8:	1e54      	subs	r4, r2, #1
 80021fa:	eb04 75d4 	add.w	r5, r4, r4, lsr #31
	  __holeIndex = __parent;
 80021fe:	4614      	mov	r4, r2
	  __parent = (__holeIndex - 1) / 2;
 8002200:	106a      	asrs	r2, r5, #1
      while (__holeIndex > __topIndex && __comp(__first + __parent, __value))
 8002202:	e7ef      	b.n	80021e4 <_ZSt13__adjust_heapIPhihN9__gnu_cxx5__ops15_Iter_comp_iterIZNSt6ranges8__detail16__make_comp_projINS4_4lessEZN6CRSLib3Can6RM000813FilterManager9Implement16FilterManagerImp22set_filter_match_indexIJLNS9_11FilterWidthE0ELSF_0ELSF_0ELSF_0ELSF_0ELSF_0ELSF_0ELSF_0ELSF_0ELSF_0ELSF_0ELSF_0ELSF_0ELSF_0EEJLNS9_10FilterModeE1ELSG_1ELSG_1ELSG_1ELSG_1ELSG_1ELSG_1ELSG_1ELSG_1ELSG_1ELSG_1ELSG_1ELSG_1ELSG_1EEEEvhDpRNSB_15ConfigFilterArgIXT_EXT0_EEEEUlT_E0_EEDaRSL_RT0_EUlOSL_OSO_E_EEEvSL_SO_SO_T1_T2_+0x64>
      *(__first + __holeIndex) = _GLIBCXX_MOVE(__value);
 8002204:	702b      	strb	r3, [r5, #0]
    }
 8002206:	bdf0      	pop	{r4, r5, r6, r7, pc}

08002208 <_ZSt16__introsort_loopIPhiN9__gnu_cxx5__ops15_Iter_comp_iterIZNSt6ranges8__detail16__make_comp_projINS4_4lessEZN6CRSLib3Can6RM000813FilterManager9Implement16FilterManagerImp22set_filter_match_indexIJLNS9_11FilterWidthE0ELSF_0ELSF_0ELSF_0ELSF_0ELSF_0ELSF_0ELSF_0ELSF_0ELSF_0ELSF_0ELSF_0ELSF_0ELSF_0EEJLNS9_10FilterModeE1ELSG_1ELSG_1ELSG_1ELSG_1ELSG_1ELSG_1ELSG_1ELSG_1ELSG_1ELSG_1ELSG_1ELSG_1ELSG_1EEEEvhDpRNSB_15ConfigFilterArgIXT_EXT0_EEEEUlT_E0_EEDaRSL_RT0_EUlOSL_OSO_E_EEEvSL_SL_SO_T1_>:
    __introsort_loop(_RandomAccessIterator __first,
 8002208:	b082      	sub	sp, #8
 800220a:	e92d 43f0 	stmdb	sp!, {r4, r5, r6, r7, r8, r9, lr}
 800220e:	4604      	mov	r4, r0
 8002210:	460d      	mov	r5, r1
 8002212:	4617      	mov	r7, r2
 8002214:	b087      	sub	sp, #28
 8002216:	930f      	str	r3, [sp, #60]	; 0x3c
      std::__move_median_to_first(__first, __first + 1, __mid, __last - 1,
 8002218:	f100 0801 	add.w	r8, r0, #1
      while (__last - __first > int(_S_threshold))
 800221c:	1b2e      	subs	r6, r5, r4
 800221e:	2e10      	cmp	r6, #16
 8002220:	dd29      	ble.n	8002276 <_ZSt16__introsort_loopIPhiN9__gnu_cxx5__ops15_Iter_comp_iterIZNSt6ranges8__detail16__make_comp_projINS4_4lessEZN6CRSLib3Can6RM000813FilterManager9Implement16FilterManagerImp22set_filter_match_indexIJLNS9_11FilterWidthE0ELSF_0ELSF_0ELSF_0ELSF_0ELSF_0ELSF_0ELSF_0ELSF_0ELSF_0ELSF_0ELSF_0ELSF_0ELSF_0EEJLNS9_10FilterModeE1ELSG_1ELSG_1ELSG_1ELSG_1ELSG_1ELSG_1ELSG_1ELSG_1ELSG_1ELSG_1ELSG_1ELSG_1ELSG_1EEEEvhDpRNSB_15ConfigFilterArgIXT_EXT0_EEEEUlT_E0_EEDaRSL_RT0_EUlOSL_OSO_E_EEEvSL_SL_SO_T1_+0x6e>
	  if (__depth_limit == 0)
 8002222:	bb6f      	cbnz	r7, 8002280 <_ZSt16__introsort_loopIPhiN9__gnu_cxx5__ops15_Iter_comp_iterIZNSt6ranges8__detail16__make_comp_projINS4_4lessEZN6CRSLib3Can6RM000813FilterManager9Implement16FilterManagerImp22set_filter_match_indexIJLNS9_11FilterWidthE0ELSF_0ELSF_0ELSF_0ELSF_0ELSF_0ELSF_0ELSF_0ELSF_0ELSF_0ELSF_0ELSF_0ELSF_0ELSF_0EEJLNS9_10FilterModeE1ELSG_1ELSG_1ELSG_1ELSG_1ELSG_1ELSG_1ELSG_1ELSG_1ELSG_1ELSG_1ELSG_1ELSG_1ELSG_1EEEEvhDpRNSB_15ConfigFilterArgIXT_EXT0_EEEEUlT_E0_EEDaRSL_RT0_EUlOSL_OSO_E_EEEvSL_SL_SO_T1_+0x78>
 8002224:	e9dd 010f 	ldrd	r0, r1, [sp, #60]	; 0x3c
 8002228:	f10d 0808 	add.w	r8, sp, #8
 800222c:	f10d 0910 	add.w	r9, sp, #16
 8002230:	e888 0003 	stmia.w	r8, {r0, r1}
    __partial_sort(_RandomAccessIterator __first,
 8002234:	e889 0003 	stmia.w	r9, {r0, r1}
      _DistanceType __parent = (__len - 2) / 2;
 8002238:	1eb7      	subs	r7, r6, #2
 800223a:	107f      	asrs	r7, r7, #1
	  std::__adjust_heap(__first, __parent, __len, _GLIBCXX_MOVE(__value),
 800223c:	e899 0003 	ldmia.w	r9, {r0, r1}
 8002240:	4632      	mov	r2, r6
 8002242:	e88d 0003 	stmia.w	sp, {r0, r1}
 8002246:	5de3      	ldrb	r3, [r4, r7]
 8002248:	4639      	mov	r1, r7
 800224a:	4620      	mov	r0, r4
 800224c:	f7ff ff98 	bl	8002180 <_ZSt13__adjust_heapIPhihN9__gnu_cxx5__ops15_Iter_comp_iterIZNSt6ranges8__detail16__make_comp_projINS4_4lessEZN6CRSLib3Can6RM000813FilterManager9Implement16FilterManagerImp22set_filter_match_indexIJLNS9_11FilterWidthE0ELSF_0ELSF_0ELSF_0ELSF_0ELSF_0ELSF_0ELSF_0ELSF_0ELSF_0ELSF_0ELSF_0ELSF_0ELSF_0EEJLNS9_10FilterModeE1ELSG_1ELSG_1ELSG_1ELSG_1ELSG_1ELSG_1ELSG_1ELSG_1ELSG_1ELSG_1ELSG_1ELSG_1ELSG_1EEEEvhDpRNSB_15ConfigFilterArgIXT_EXT0_EEEEUlT_E0_EEDaRSL_RT0_EUlOSL_OSO_E_EEEvSL_SO_SO_T1_T2_>
	  if (__parent == 0)
 8002250:	b10f      	cbz	r7, 8002256 <_ZSt16__introsort_loopIPhiN9__gnu_cxx5__ops15_Iter_comp_iterIZNSt6ranges8__detail16__make_comp_projINS4_4lessEZN6CRSLib3Can6RM000813FilterManager9Implement16FilterManagerImp22set_filter_match_indexIJLNS9_11FilterWidthE0ELSF_0ELSF_0ELSF_0ELSF_0ELSF_0ELSF_0ELSF_0ELSF_0ELSF_0ELSF_0ELSF_0ELSF_0ELSF_0EEJLNS9_10FilterModeE1ELSG_1ELSG_1ELSG_1ELSG_1ELSG_1ELSG_1ELSG_1ELSG_1ELSG_1ELSG_1ELSG_1ELSG_1ELSG_1EEEEvhDpRNSB_15ConfigFilterArgIXT_EXT0_EEEEUlT_E0_EEDaRSL_RT0_EUlOSL_OSO_E_EEEvSL_SL_SO_T1_+0x4e>
	  __parent--;
 8002252:	3f01      	subs	r7, #1
      while (true)
 8002254:	e7f2      	b.n	800223c <_ZSt16__introsort_loopIPhiN9__gnu_cxx5__ops15_Iter_comp_iterIZNSt6ranges8__detail16__make_comp_projINS4_4lessEZN6CRSLib3Can6RM000813FilterManager9Implement16FilterManagerImp22set_filter_match_indexIJLNS9_11FilterWidthE0ELSF_0ELSF_0ELSF_0ELSF_0ELSF_0ELSF_0ELSF_0ELSF_0ELSF_0ELSF_0ELSF_0ELSF_0ELSF_0EEJLNS9_10FilterModeE1ELSG_1ELSG_1ELSG_1ELSG_1ELSG_1ELSG_1ELSG_1ELSG_1ELSG_1ELSG_1ELSG_1ELSG_1ELSG_1EEEEvhDpRNSB_15ConfigFilterArgIXT_EXT0_EEEEUlT_E0_EEDaRSL_RT0_EUlOSL_OSO_E_EEEvSL_SL_SO_T1_+0x34>
      _ValueType __value = _GLIBCXX_MOVE(*__result);
 8002256:	f815 3d01 	ldrb.w	r3, [r5, #-1]!
      *__result = _GLIBCXX_MOVE(*__first);
 800225a:	7822      	ldrb	r2, [r4, #0]
			 _DistanceType(__last - __first),
 800225c:	1b2e      	subs	r6, r5, r4
      std::__adjust_heap(__first, _DistanceType(0),
 800225e:	e898 0003 	ldmia.w	r8, {r0, r1}
      *__result = _GLIBCXX_MOVE(*__first);
 8002262:	702a      	strb	r2, [r5, #0]
      std::__adjust_heap(__first, _DistanceType(0),
 8002264:	e88d 0003 	stmia.w	sp, {r0, r1}
 8002268:	4632      	mov	r2, r6
 800226a:	2100      	movs	r1, #0
 800226c:	4620      	mov	r0, r4
 800226e:	f7ff ff87 	bl	8002180 <_ZSt13__adjust_heapIPhihN9__gnu_cxx5__ops15_Iter_comp_iterIZNSt6ranges8__detail16__make_comp_projINS4_4lessEZN6CRSLib3Can6RM000813FilterManager9Implement16FilterManagerImp22set_filter_match_indexIJLNS9_11FilterWidthE0ELSF_0ELSF_0ELSF_0ELSF_0ELSF_0ELSF_0ELSF_0ELSF_0ELSF_0ELSF_0ELSF_0ELSF_0ELSF_0EEJLNS9_10FilterModeE1ELSG_1ELSG_1ELSG_1ELSG_1ELSG_1ELSG_1ELSG_1ELSG_1ELSG_1ELSG_1ELSG_1ELSG_1ELSG_1EEEEvhDpRNSB_15ConfigFilterArgIXT_EXT0_EEEEUlT_E0_EEDaRSL_RT0_EUlOSL_OSO_E_EEEvSL_SO_SO_T1_T2_>
      while (__last - __first > 1)
 8002272:	2e01      	cmp	r6, #1
 8002274:	dcef      	bgt.n	8002256 <_ZSt16__introsort_loopIPhiN9__gnu_cxx5__ops15_Iter_comp_iterIZNSt6ranges8__detail16__make_comp_projINS4_4lessEZN6CRSLib3Can6RM000813FilterManager9Implement16FilterManagerImp22set_filter_match_indexIJLNS9_11FilterWidthE0ELSF_0ELSF_0ELSF_0ELSF_0ELSF_0ELSF_0ELSF_0ELSF_0ELSF_0ELSF_0ELSF_0ELSF_0ELSF_0EEJLNS9_10FilterModeE1ELSG_1ELSG_1ELSG_1ELSG_1ELSG_1ELSG_1ELSG_1ELSG_1ELSG_1ELSG_1ELSG_1ELSG_1ELSG_1EEEEvhDpRNSB_15ConfigFilterArgIXT_EXT0_EEEEUlT_E0_EEDaRSL_RT0_EUlOSL_OSO_E_EEEvSL_SL_SO_T1_+0x4e>
    }
 8002276:	b007      	add	sp, #28
 8002278:	e8bd 43f0 	ldmia.w	sp!, {r4, r5, r6, r7, r8, r9, lr}
 800227c:	b002      	add	sp, #8
 800227e:	4770      	bx	lr
      _RandomAccessIterator __mid = __first + (__last - __first) / 2;
 8002280:	1076      	asrs	r6, r6, #1
 8002282:	f894 e001 	ldrb.w	lr, [r4, #1]
 8002286:	5da1      	ldrb	r1, [r4, r6]
 8002288:	f815 0c01 	ldrb.w	r0, [r5, #-1]
 800228c:	f00e 0903 	and.w	r9, lr, #3
 8002290:	f001 0c03 	and.w	ip, r1, #3
      if (__comp(__a, __b))
 8002294:	45e1      	cmp	r9, ip
      _Tp __tmp = _GLIBCXX_MOVE(__a);
 8002296:	7823      	ldrb	r3, [r4, #0]
	  --__depth_limit;
 8002298:	f107 37ff 	add.w	r7, r7, #4294967295
    __invoke_impl(__invoke_other, _Fn&& __f, _Args&&... __args)
 800229c:	f000 0203 	and.w	r2, r0, #3
      if (__comp(__a, __b))
 80022a0:	d229      	bcs.n	80022f6 <_ZSt16__introsort_loopIPhiN9__gnu_cxx5__ops15_Iter_comp_iterIZNSt6ranges8__detail16__make_comp_projINS4_4lessEZN6CRSLib3Can6RM000813FilterManager9Implement16FilterManagerImp22set_filter_match_indexIJLNS9_11FilterWidthE0ELSF_0ELSF_0ELSF_0ELSF_0ELSF_0ELSF_0ELSF_0ELSF_0ELSF_0ELSF_0ELSF_0ELSF_0ELSF_0EEJLNS9_10FilterModeE1ELSG_1ELSG_1ELSG_1ELSG_1ELSG_1ELSG_1ELSG_1ELSG_1ELSG_1ELSG_1ELSG_1ELSG_1ELSG_1EEEEvhDpRNSB_15ConfigFilterArgIXT_EXT0_EEEEUlT_E0_EEDaRSL_RT0_EUlOSL_OSO_E_EEEvSL_SL_SO_T1_+0xee>
	  if (__comp(__b, __c))
 80022a2:	4594      	cmp	ip, r2
 80022a4:	d221      	bcs.n	80022ea <_ZSt16__introsort_loopIPhiN9__gnu_cxx5__ops15_Iter_comp_iterIZNSt6ranges8__detail16__make_comp_projINS4_4lessEZN6CRSLib3Can6RM000813FilterManager9Implement16FilterManagerImp22set_filter_match_indexIJLNS9_11FilterWidthE0ELSF_0ELSF_0ELSF_0ELSF_0ELSF_0ELSF_0ELSF_0ELSF_0ELSF_0ELSF_0ELSF_0ELSF_0ELSF_0EEJLNS9_10FilterModeE1ELSG_1ELSG_1ELSG_1ELSG_1ELSG_1ELSG_1ELSG_1ELSG_1ELSG_1ELSG_1ELSG_1ELSG_1ELSG_1EEEEvhDpRNSB_15ConfigFilterArgIXT_EXT0_EEEEUlT_E0_EEDaRSL_RT0_EUlOSL_OSO_E_EEEvSL_SL_SO_T1_+0xe2>
      __a = _GLIBCXX_MOVE(__b);
 80022a6:	7021      	strb	r1, [r4, #0]
      __b = _GLIBCXX_MOVE(__tmp);
 80022a8:	55a3      	strb	r3, [r4, r6]
 80022aa:	4642      	mov	r2, r8
      while (__last - __first > int(_S_threshold))
 80022ac:	462b      	mov	r3, r5
 80022ae:	4616      	mov	r6, r2
 80022b0:	7821      	ldrb	r1, [r4, #0]
    { return std::forward<_Fn>(__f)(std::forward<_Args>(__args)...); }
 80022b2:	f812 cb01 	ldrb.w	ip, [r2], #1
    __invoke_impl(__invoke_other, _Fn&& __f, _Args&&... __args)
 80022b6:	f001 0103 	and.w	r1, r1, #3
	  while (__comp(__first, __pivot))
 80022ba:	f00c 0003 	and.w	r0, ip, #3
 80022be:	4288      	cmp	r0, r1
 80022c0:	d3f5      	bcc.n	80022ae <_ZSt16__introsort_loopIPhiN9__gnu_cxx5__ops15_Iter_comp_iterIZNSt6ranges8__detail16__make_comp_projINS4_4lessEZN6CRSLib3Can6RM000813FilterManager9Implement16FilterManagerImp22set_filter_match_indexIJLNS9_11FilterWidthE0ELSF_0ELSF_0ELSF_0ELSF_0ELSF_0ELSF_0ELSF_0ELSF_0ELSF_0ELSF_0ELSF_0ELSF_0ELSF_0EEJLNS9_10FilterModeE1ELSG_1ELSG_1ELSG_1ELSG_1ELSG_1ELSG_1ELSG_1ELSG_1ELSG_1ELSG_1ELSG_1ELSG_1ELSG_1EEEEvhDpRNSB_15ConfigFilterArgIXT_EXT0_EEEEUlT_E0_EEDaRSL_RT0_EUlOSL_OSO_E_EEEvSL_SL_SO_T1_+0xa6>
	  --__last;
 80022c2:	1e58      	subs	r0, r3, #1
 80022c4:	4603      	mov	r3, r0
    { return std::forward<_Fn>(__f)(std::forward<_Args>(__args)...); }
 80022c6:	f810 e901 	ldrb.w	lr, [r0], #-1
	  while (__comp(__pivot, __last))
 80022ca:	f00e 0903 	and.w	r9, lr, #3
 80022ce:	4549      	cmp	r1, r9
 80022d0:	d3f8      	bcc.n	80022c4 <_ZSt16__introsort_loopIPhiN9__gnu_cxx5__ops15_Iter_comp_iterIZNSt6ranges8__detail16__make_comp_projINS4_4lessEZN6CRSLib3Can6RM000813FilterManager9Implement16FilterManagerImp22set_filter_match_indexIJLNS9_11FilterWidthE0ELSF_0ELSF_0ELSF_0ELSF_0ELSF_0ELSF_0ELSF_0ELSF_0ELSF_0ELSF_0ELSF_0ELSF_0ELSF_0EEJLNS9_10FilterModeE1ELSG_1ELSG_1ELSG_1ELSG_1ELSG_1ELSG_1ELSG_1ELSG_1ELSG_1ELSG_1ELSG_1ELSG_1ELSG_1EEEEvhDpRNSB_15ConfigFilterArgIXT_EXT0_EEEEUlT_E0_EEDaRSL_RT0_EUlOSL_OSO_E_EEEvSL_SL_SO_T1_+0xbc>
	  if (!(__first < __last))
 80022d2:	429e      	cmp	r6, r3
 80022d4:	d318      	bcc.n	8002308 <_ZSt16__introsort_loopIPhiN9__gnu_cxx5__ops15_Iter_comp_iterIZNSt6ranges8__detail16__make_comp_projINS4_4lessEZN6CRSLib3Can6RM000813FilterManager9Implement16FilterManagerImp22set_filter_match_indexIJLNS9_11FilterWidthE0ELSF_0ELSF_0ELSF_0ELSF_0ELSF_0ELSF_0ELSF_0ELSF_0ELSF_0ELSF_0ELSF_0ELSF_0ELSF_0EEJLNS9_10FilterModeE1ELSG_1ELSG_1ELSG_1ELSG_1ELSG_1ELSG_1ELSG_1ELSG_1ELSG_1ELSG_1ELSG_1ELSG_1ELSG_1EEEEvhDpRNSB_15ConfigFilterArgIXT_EXT0_EEEEUlT_E0_EEDaRSL_RT0_EUlOSL_OSO_E_EEEvSL_SL_SO_T1_+0x100>
	  std::__introsort_loop(__cut, __last, __depth_limit, __comp);
 80022d6:	9b10      	ldr	r3, [sp, #64]	; 0x40
 80022d8:	4629      	mov	r1, r5
 80022da:	9300      	str	r3, [sp, #0]
 80022dc:	463a      	mov	r2, r7
 80022de:	4630      	mov	r0, r6
 80022e0:	9b0f      	ldr	r3, [sp, #60]	; 0x3c
 80022e2:	f7ff ff91 	bl	8002208 <_ZSt16__introsort_loopIPhiN9__gnu_cxx5__ops15_Iter_comp_iterIZNSt6ranges8__detail16__make_comp_projINS4_4lessEZN6CRSLib3Can6RM000813FilterManager9Implement16FilterManagerImp22set_filter_match_indexIJLNS9_11FilterWidthE0ELSF_0ELSF_0ELSF_0ELSF_0ELSF_0ELSF_0ELSF_0ELSF_0ELSF_0ELSF_0ELSF_0ELSF_0ELSF_0EEJLNS9_10FilterModeE1ELSG_1ELSG_1ELSG_1ELSG_1ELSG_1ELSG_1ELSG_1ELSG_1ELSG_1ELSG_1ELSG_1ELSG_1ELSG_1EEEEvhDpRNSB_15ConfigFilterArgIXT_EXT0_EEEEUlT_E0_EEDaRSL_RT0_EUlOSL_OSO_E_EEEvSL_SL_SO_T1_>
      while (__last - __first > int(_S_threshold))
 80022e6:	4635      	mov	r5, r6
 80022e8:	e798      	b.n	800221c <_ZSt16__introsort_loopIPhiN9__gnu_cxx5__ops15_Iter_comp_iterIZNSt6ranges8__detail16__make_comp_projINS4_4lessEZN6CRSLib3Can6RM000813FilterManager9Implement16FilterManagerImp22set_filter_match_indexIJLNS9_11FilterWidthE0ELSF_0ELSF_0ELSF_0ELSF_0ELSF_0ELSF_0ELSF_0ELSF_0ELSF_0ELSF_0ELSF_0ELSF_0ELSF_0EEJLNS9_10FilterModeE1ELSG_1ELSG_1ELSG_1ELSG_1ELSG_1ELSG_1ELSG_1ELSG_1ELSG_1ELSG_1ELSG_1ELSG_1ELSG_1EEEEvhDpRNSB_15ConfigFilterArgIXT_EXT0_EEEEUlT_E0_EEDaRSL_RT0_EUlOSL_OSO_E_EEEvSL_SL_SO_T1_+0x14>
	  else if (__comp(__a, __c))
 80022ea:	4591      	cmp	r9, r2
 80022ec:	d205      	bcs.n	80022fa <_ZSt16__introsort_loopIPhiN9__gnu_cxx5__ops15_Iter_comp_iterIZNSt6ranges8__detail16__make_comp_projINS4_4lessEZN6CRSLib3Can6RM000813FilterManager9Implement16FilterManagerImp22set_filter_match_indexIJLNS9_11FilterWidthE0ELSF_0ELSF_0ELSF_0ELSF_0ELSF_0ELSF_0ELSF_0ELSF_0ELSF_0ELSF_0ELSF_0ELSF_0ELSF_0EEJLNS9_10FilterModeE1ELSG_1ELSG_1ELSG_1ELSG_1ELSG_1ELSG_1ELSG_1ELSG_1ELSG_1ELSG_1ELSG_1ELSG_1ELSG_1EEEEvhDpRNSB_15ConfigFilterArgIXT_EXT0_EEEEUlT_E0_EEDaRSL_RT0_EUlOSL_OSO_E_EEEvSL_SL_SO_T1_+0xf2>
      __a = _GLIBCXX_MOVE(__b);
 80022ee:	7020      	strb	r0, [r4, #0]
      __b = _GLIBCXX_MOVE(__tmp);
 80022f0:	f805 3c01 	strb.w	r3, [r5, #-1]
    }
 80022f4:	e7d9      	b.n	80022aa <_ZSt16__introsort_loopIPhiN9__gnu_cxx5__ops15_Iter_comp_iterIZNSt6ranges8__detail16__make_comp_projINS4_4lessEZN6CRSLib3Can6RM000813FilterManager9Implement16FilterManagerImp22set_filter_match_indexIJLNS9_11FilterWidthE0ELSF_0ELSF_0ELSF_0ELSF_0ELSF_0ELSF_0ELSF_0ELSF_0ELSF_0ELSF_0ELSF_0ELSF_0ELSF_0EEJLNS9_10FilterModeE1ELSG_1ELSG_1ELSG_1ELSG_1ELSG_1ELSG_1ELSG_1ELSG_1ELSG_1ELSG_1ELSG_1ELSG_1ELSG_1EEEEvhDpRNSB_15ConfigFilterArgIXT_EXT0_EEEEUlT_E0_EEDaRSL_RT0_EUlOSL_OSO_E_EEEvSL_SL_SO_T1_+0xa2>
      else if (__comp(__a, __c))
 80022f6:	4591      	cmp	r9, r2
 80022f8:	d203      	bcs.n	8002302 <_ZSt16__introsort_loopIPhiN9__gnu_cxx5__ops15_Iter_comp_iterIZNSt6ranges8__detail16__make_comp_projINS4_4lessEZN6CRSLib3Can6RM000813FilterManager9Implement16FilterManagerImp22set_filter_match_indexIJLNS9_11FilterWidthE0ELSF_0ELSF_0ELSF_0ELSF_0ELSF_0ELSF_0ELSF_0ELSF_0ELSF_0ELSF_0ELSF_0ELSF_0ELSF_0EEJLNS9_10FilterModeE1ELSG_1ELSG_1ELSG_1ELSG_1ELSG_1ELSG_1ELSG_1ELSG_1ELSG_1ELSG_1ELSG_1ELSG_1ELSG_1EEEEvhDpRNSB_15ConfigFilterArgIXT_EXT0_EEEEUlT_E0_EEDaRSL_RT0_EUlOSL_OSO_E_EEEvSL_SL_SO_T1_+0xfa>
      __a = _GLIBCXX_MOVE(__b);
 80022fa:	f884 e000 	strb.w	lr, [r4]
      __b = _GLIBCXX_MOVE(__tmp);
 80022fe:	7063      	strb	r3, [r4, #1]
 8002300:	e7d3      	b.n	80022aa <_ZSt16__introsort_loopIPhiN9__gnu_cxx5__ops15_Iter_comp_iterIZNSt6ranges8__detail16__make_comp_projINS4_4lessEZN6CRSLib3Can6RM000813FilterManager9Implement16FilterManagerImp22set_filter_match_indexIJLNS9_11FilterWidthE0ELSF_0ELSF_0ELSF_0ELSF_0ELSF_0ELSF_0ELSF_0ELSF_0ELSF_0ELSF_0ELSF_0ELSF_0ELSF_0EEJLNS9_10FilterModeE1ELSG_1ELSG_1ELSG_1ELSG_1ELSG_1ELSG_1ELSG_1ELSG_1ELSG_1ELSG_1ELSG_1ELSG_1ELSG_1EEEEvhDpRNSB_15ConfigFilterArgIXT_EXT0_EEEEUlT_E0_EEDaRSL_RT0_EUlOSL_OSO_E_EEEvSL_SL_SO_T1_+0xa2>
      else if (__comp(__b, __c))
 8002302:	4594      	cmp	ip, r2
 8002304:	d2cf      	bcs.n	80022a6 <_ZSt16__introsort_loopIPhiN9__gnu_cxx5__ops15_Iter_comp_iterIZNSt6ranges8__detail16__make_comp_projINS4_4lessEZN6CRSLib3Can6RM000813FilterManager9Implement16FilterManagerImp22set_filter_match_indexIJLNS9_11FilterWidthE0ELSF_0ELSF_0ELSF_0ELSF_0ELSF_0ELSF_0ELSF_0ELSF_0ELSF_0ELSF_0ELSF_0ELSF_0ELSF_0EEJLNS9_10FilterModeE1ELSG_1ELSG_1ELSG_1ELSG_1ELSG_1ELSG_1ELSG_1ELSG_1ELSG_1ELSG_1ELSG_1ELSG_1ELSG_1EEEEvhDpRNSB_15ConfigFilterArgIXT_EXT0_EEEEUlT_E0_EEDaRSL_RT0_EUlOSL_OSO_E_EEEvSL_SL_SO_T1_+0x9e>
 8002306:	e7f2      	b.n	80022ee <_ZSt16__introsort_loopIPhiN9__gnu_cxx5__ops15_Iter_comp_iterIZNSt6ranges8__detail16__make_comp_projINS4_4lessEZN6CRSLib3Can6RM000813FilterManager9Implement16FilterManagerImp22set_filter_match_indexIJLNS9_11FilterWidthE0ELSF_0ELSF_0ELSF_0ELSF_0ELSF_0ELSF_0ELSF_0ELSF_0ELSF_0ELSF_0ELSF_0ELSF_0ELSF_0EEJLNS9_10FilterModeE1ELSG_1ELSG_1ELSG_1ELSG_1ELSG_1ELSG_1ELSG_1ELSG_1ELSG_1ELSG_1ELSG_1ELSG_1ELSG_1EEEEvhDpRNSB_15ConfigFilterArgIXT_EXT0_EEEEUlT_E0_EEDaRSL_RT0_EUlOSL_OSO_E_EEEvSL_SL_SO_T1_+0xe6>
      __a = _GLIBCXX_MOVE(__b);
 8002308:	f802 ec01 	strb.w	lr, [r2, #-1]
      __b = _GLIBCXX_MOVE(__tmp);
 800230c:	f883 c000 	strb.w	ip, [r3]
	  while (__comp(__first, __pivot))
 8002310:	e7cd      	b.n	80022ae <_ZSt16__introsort_loopIPhiN9__gnu_cxx5__ops15_Iter_comp_iterIZNSt6ranges8__detail16__make_comp_projINS4_4lessEZN6CRSLib3Can6RM000813FilterManager9Implement16FilterManagerImp22set_filter_match_indexIJLNS9_11FilterWidthE0ELSF_0ELSF_0ELSF_0ELSF_0ELSF_0ELSF_0ELSF_0ELSF_0ELSF_0ELSF_0ELSF_0ELSF_0ELSF_0EEJLNS9_10FilterModeE1ELSG_1ELSG_1ELSG_1ELSG_1ELSG_1ELSG_1ELSG_1ELSG_1ELSG_1ELSG_1ELSG_1ELSG_1ELSG_1EEEEvhDpRNSB_15ConfigFilterArgIXT_EXT0_EEEEUlT_E0_EEDaRSL_RT0_EUlOSL_OSO_E_EEEvSL_SL_SO_T1_+0xa6>

08002312 <_ZN6CRSLib3Can6RM000813FilterManager9Implement16FilterManagerImp22set_filter_match_indexIJLNS0_11FilterWidthE0ELS6_0ELS6_0ELS6_0ELS6_0ELS6_0ELS6_0ELS6_0ELS6_0ELS6_0ELS6_0ELS6_0ELS6_0ELS6_0EEJLNS0_10FilterModeE1ELS7_1ELS7_1ELS7_1ELS7_1ELS7_1ELS7_1ELS7_1ELS7_1ELS7_1ELS7_1ELS7_1ELS7_1ELS7_1EEEEvhDpRNS2_15ConfigFilterArgIXT_EXT0_EEE>:

		template<FilterWidth ... filter_widthes, FilterMode ... filter_modes>
		void set_filter_match_index(const u8 can2_start, ConfigFilterArg<filter_widthes, filter_modes>& ... filter_args) noexcept
 8002312:	e92d 4ff0 	stmdb	sp!, {r4, r5, r6, r7, r8, r9, sl, fp, lr}
 8002316:	4604      	mov	r4, r0
 8002318:	b099      	sub	sp, #100	; 0x64
 800231a:	4617      	mov	r7, r2
 800231c:	4688      	mov	r8, r1
		{
			std::array<u8, sizeof...(filter_widthes)> priorities;

			[can2_start, &priorities, &filter_args...]<u8 ... indices>(std::integer_sequence<u8, indices ...>) noexcept
			{
				priorities = {convert_to_priority(indices, can2_start, filter_args) ...};
 800231e:	688a      	ldr	r2, [r1, #8]
 8002320:	4601      	mov	r1, r0
 8002322:	2000      	movs	r0, #0
		void set_filter_match_index(const u8 can2_start, ConfigFilterArg<filter_widthes, filter_modes>& ... filter_args) noexcept
 8002324:	461e      	mov	r6, r3
				priorities = {convert_to_priority(indices, can2_start, filter_args) ...};
 8002326:	f7ff fdeb 	bl	8001f00 <_ZN6CRSLib3Can6RM000813FilterManager9Implement16FilterManagerImp19convert_to_priorityILNS0_11FilterWidthE0ELNS0_10FilterModeE1EEEhhhRKNS2_15ConfigFilterArgIXT_EXT0_EEE.isra.0>
 800232a:	68ba      	ldr	r2, [r7, #8]
 800232c:	4621      	mov	r1, r4
 800232e:	9003      	str	r0, [sp, #12]
 8002330:	2001      	movs	r0, #1
 8002332:	f7ff fde5 	bl	8001f00 <_ZN6CRSLib3Can6RM000813FilterManager9Implement16FilterManagerImp19convert_to_priorityILNS0_11FilterWidthE0ELNS0_10FilterModeE1EEEhhhRKNS2_15ConfigFilterArgIXT_EXT0_EEE.isra.0>
 8002336:	68b2      	ldr	r2, [r6, #8]
 8002338:	4621      	mov	r1, r4
 800233a:	9004      	str	r0, [sp, #16]
 800233c:	2002      	movs	r0, #2
 800233e:	f7ff fddf 	bl	8001f00 <_ZN6CRSLib3Can6RM000813FilterManager9Implement16FilterManagerImp19convert_to_priorityILNS0_11FilterWidthE0ELNS0_10FilterModeE1EEEhhhRKNS2_15ConfigFilterArgIXT_EXT0_EEE.isra.0>
 8002342:	9b22      	ldr	r3, [sp, #136]	; 0x88
 8002344:	4621      	mov	r1, r4
 8002346:	689a      	ldr	r2, [r3, #8]
 8002348:	9005      	str	r0, [sp, #20]
 800234a:	2003      	movs	r0, #3
 800234c:	f7ff fdd8 	bl	8001f00 <_ZN6CRSLib3Can6RM000813FilterManager9Implement16FilterManagerImp19convert_to_priorityILNS0_11FilterWidthE0ELNS0_10FilterModeE1EEEhhhRKNS2_15ConfigFilterArgIXT_EXT0_EEE.isra.0>
 8002350:	9b23      	ldr	r3, [sp, #140]	; 0x8c
 8002352:	4621      	mov	r1, r4
 8002354:	689a      	ldr	r2, [r3, #8]
 8002356:	9006      	str	r0, [sp, #24]
 8002358:	2004      	movs	r0, #4
 800235a:	f7ff fdd1 	bl	8001f00 <_ZN6CRSLib3Can6RM000813FilterManager9Implement16FilterManagerImp19convert_to_priorityILNS0_11FilterWidthE0ELNS0_10FilterModeE1EEEhhhRKNS2_15ConfigFilterArgIXT_EXT0_EEE.isra.0>
 800235e:	9b24      	ldr	r3, [sp, #144]	; 0x90
 8002360:	4621      	mov	r1, r4
 8002362:	689a      	ldr	r2, [r3, #8]
 8002364:	9007      	str	r0, [sp, #28]
 8002366:	2005      	movs	r0, #5
 8002368:	f7ff fdca 	bl	8001f00 <_ZN6CRSLib3Can6RM000813FilterManager9Implement16FilterManagerImp19convert_to_priorityILNS0_11FilterWidthE0ELNS0_10FilterModeE1EEEhhhRKNS2_15ConfigFilterArgIXT_EXT0_EEE.isra.0>
 800236c:	9b25      	ldr	r3, [sp, #148]	; 0x94
 800236e:	4621      	mov	r1, r4
 8002370:	689a      	ldr	r2, [r3, #8]
 8002372:	900b      	str	r0, [sp, #44]	; 0x2c
 8002374:	2006      	movs	r0, #6
 8002376:	f7ff fdc3 	bl	8001f00 <_ZN6CRSLib3Can6RM000813FilterManager9Implement16FilterManagerImp19convert_to_priorityILNS0_11FilterWidthE0ELNS0_10FilterModeE1EEEhhhRKNS2_15ConfigFilterArgIXT_EXT0_EEE.isra.0>
 800237a:	9b26      	ldr	r3, [sp, #152]	; 0x98
 800237c:	4683      	mov	fp, r0
 800237e:	689a      	ldr	r2, [r3, #8]
 8002380:	4621      	mov	r1, r4
 8002382:	2007      	movs	r0, #7
 8002384:	f7ff fdbc 	bl	8001f00 <_ZN6CRSLib3Can6RM000813FilterManager9Implement16FilterManagerImp19convert_to_priorityILNS0_11FilterWidthE0ELNS0_10FilterModeE1EEEhhhRKNS2_15ConfigFilterArgIXT_EXT0_EEE.isra.0>
 8002388:	9b27      	ldr	r3, [sp, #156]	; 0x9c
 800238a:	4682      	mov	sl, r0
 800238c:	689a      	ldr	r2, [r3, #8]
 800238e:	4621      	mov	r1, r4
 8002390:	2008      	movs	r0, #8
 8002392:	f7ff fdb5 	bl	8001f00 <_ZN6CRSLib3Can6RM000813FilterManager9Implement16FilterManagerImp19convert_to_priorityILNS0_11FilterWidthE0ELNS0_10FilterModeE1EEEhhhRKNS2_15ConfigFilterArgIXT_EXT0_EEE.isra.0>
 8002396:	9b28      	ldr	r3, [sp, #160]	; 0xa0
 8002398:	4681      	mov	r9, r0
 800239a:	689a      	ldr	r2, [r3, #8]
 800239c:	4621      	mov	r1, r4
 800239e:	2009      	movs	r0, #9
 80023a0:	f7ff fdae 	bl	8001f00 <_ZN6CRSLib3Can6RM000813FilterManager9Implement16FilterManagerImp19convert_to_priorityILNS0_11FilterWidthE0ELNS0_10FilterModeE1EEEhhhRKNS2_15ConfigFilterArgIXT_EXT0_EEE.isra.0>
 80023a4:	9b29      	ldr	r3, [sp, #164]	; 0xa4
 80023a6:	4621      	mov	r1, r4
 80023a8:	689a      	ldr	r2, [r3, #8]
 80023aa:	9008      	str	r0, [sp, #32]
 80023ac:	200a      	movs	r0, #10
 80023ae:	f7ff fda7 	bl	8001f00 <_ZN6CRSLib3Can6RM000813FilterManager9Implement16FilterManagerImp19convert_to_priorityILNS0_11FilterWidthE0ELNS0_10FilterModeE1EEEhhhRKNS2_15ConfigFilterArgIXT_EXT0_EEE.isra.0>
 80023b2:	9b2a      	ldr	r3, [sp, #168]	; 0xa8
 80023b4:	4621      	mov	r1, r4
 80023b6:	9009      	str	r0, [sp, #36]	; 0x24
 80023b8:	689a      	ldr	r2, [r3, #8]
 80023ba:	200b      	movs	r0, #11
 80023bc:	f7ff fda0 	bl	8001f00 <_ZN6CRSLib3Can6RM000813FilterManager9Implement16FilterManagerImp19convert_to_priorityILNS0_11FilterWidthE0ELNS0_10FilterModeE1EEEhhhRKNS2_15ConfigFilterArgIXT_EXT0_EEE.isra.0>
 80023c0:	9b2b      	ldr	r3, [sp, #172]	; 0xac
 80023c2:	4621      	mov	r1, r4
 80023c4:	689a      	ldr	r2, [r3, #8]
 80023c6:	900a      	str	r0, [sp, #40]	; 0x28
 80023c8:	200c      	movs	r0, #12
 80023ca:	f7ff fd99 	bl	8001f00 <_ZN6CRSLib3Can6RM000813FilterManager9Implement16FilterManagerImp19convert_to_priorityILNS0_11FilterWidthE0ELNS0_10FilterModeE1EEEhhhRKNS2_15ConfigFilterArgIXT_EXT0_EEE.isra.0>
 80023ce:	9b2c      	ldr	r3, [sp, #176]	; 0xb0
 80023d0:	4605      	mov	r5, r0
 80023d2:	689a      	ldr	r2, [r3, #8]
 80023d4:	4621      	mov	r1, r4
 80023d6:	200d      	movs	r0, #13
 80023d8:	f7ff fd92 	bl	8001f00 <_ZN6CRSLib3Can6RM000813FilterManager9Implement16FilterManagerImp19convert_to_priorityILNS0_11FilterWidthE0ELNS0_10FilterModeE1EEEhhhRKNS2_15ConfigFilterArgIXT_EXT0_EEE.isra.0>
 80023dc:	9b03      	ldr	r3, [sp, #12]
 80023de:	f88d 005d 	strb.w	r0, [sp, #93]	; 0x5d
 80023e2:	f88d 3050 	strb.w	r3, [sp, #80]	; 0x50
 80023e6:	9b04      	ldr	r3, [sp, #16]
 80023e8:	f88d b056 	strb.w	fp, [sp, #86]	; 0x56
 80023ec:	f88d 3051 	strb.w	r3, [sp, #81]	; 0x51
 80023f0:	9b05      	ldr	r3, [sp, #20]
 80023f2:	f88d a057 	strb.w	sl, [sp, #87]	; 0x57
 80023f6:	f88d 3052 	strb.w	r3, [sp, #82]	; 0x52
 80023fa:	9b06      	ldr	r3, [sp, #24]
 80023fc:	f88d 9058 	strb.w	r9, [sp, #88]	; 0x58
 8002400:	f88d 3053 	strb.w	r3, [sp, #83]	; 0x53
 8002404:	9b07      	ldr	r3, [sp, #28]
 8002406:	f88d 505c 	strb.w	r5, [sp, #92]	; 0x5c
 800240a:	f88d 3054 	strb.w	r3, [sp, #84]	; 0x54
 800240e:	9b0b      	ldr	r3, [sp, #44]	; 0x2c
	    typename iterator_traits<_RandomAccessIterator>::value_type,
	    typename iterator_traits<_RandomAccessIterator>::value_type>)
      __glibcxx_requires_valid_range(__first, __last);
      __glibcxx_requires_irreflexive_pred(__first, __last, __comp);

      std::__sort(__first, __last, __gnu_cxx::__ops::__iter_comp_iter(__comp));
 8002410:	f10d 015e 	add.w	r1, sp, #94	; 0x5e
 8002414:	f88d 3055 	strb.w	r3, [sp, #85]	; 0x55
 8002418:	9b08      	ldr	r3, [sp, #32]
 800241a:	a814      	add	r0, sp, #80	; 0x50
 800241c:	f88d 3059 	strb.w	r3, [sp, #89]	; 0x59
 8002420:	9b09      	ldr	r3, [sp, #36]	; 0x24
 8002422:	f88d 305a 	strb.w	r3, [sp, #90]	; 0x5a
 8002426:	9b0a      	ldr	r3, [sp, #40]	; 0x28
 8002428:	f88d 305b 	strb.w	r3, [sp, #91]	; 0x5b
 800242c:	f04f 0300 	mov.w	r3, #0
 8002430:	f88d 3048 	strb.w	r3, [sp, #72]	; 0x48
 8002434:	f88d 3040 	strb.w	r3, [sp, #64]	; 0x40
    {
      _Compare _M_comp;

      explicit _GLIBCXX14_CONSTEXPR
      _Iter_comp_iter(_Compare __comp)
	: _M_comp(_GLIBCXX_MOVE(__comp))
 8002438:	ab12      	add	r3, sp, #72	; 0x48
 800243a:	930e      	str	r3, [sp, #56]	; 0x38
 800243c:	9a0e      	ldr	r2, [sp, #56]	; 0x38
 800243e:	ab10      	add	r3, sp, #64	; 0x40
 8002440:	930f      	str	r3, [sp, #60]	; 0x3c
 8002442:	f7ff fe67 	bl	8002114 <_ZSt6__sortIPhN9__gnu_cxx5__ops15_Iter_comp_iterIZNSt6ranges8__detail16__make_comp_projINS4_4lessESt8identityEEDaRT_RT0_EUlOS9_OSB_E_EEEvS9_S9_SB_>
	     typename _Comp = ranges::less, typename _Proj = identity>
      requires sortable<iterator_t<_Range>, _Comp, _Proj>
      constexpr borrowed_iterator_t<_Range>
      operator()(_Range&& __r, _Comp __comp = {}, _Proj __proj = {}) const
      {
	return (*this)(ranges::begin(__r), ranges::end(__r),
 8002446:	2200      	movs	r2, #0
			
			std::ranges::sort(priorities);

			for(u32 can_fifo = 0b00; can_fifo <= 0b11; ++can_fifo)
			{
				for(u32 i = 0; auto& priority : priorities)
 8002448:	2100      	movs	r1, #0
 800244a:	a814      	add	r0, sp, #80	; 0x50
				{
					priority |= (i << 6);
 800244c:	7803      	ldrb	r3, [r0, #0]
 800244e:	ea43 1381 	orr.w	r3, r3, r1, lsl #6
 8002452:	b2db      	uxtb	r3, r3
 8002454:	f800 3b01 	strb.w	r3, [r0], #1
					++i;

					if(!((priority & 0b11 << 4) ^ can_fifo << 4))
 8002458:	f003 0330 	and.w	r3, r3, #48	; 0x30
 800245c:	4293      	cmp	r3, r2
					++i;
 800245e:	f101 0101 	add.w	r1, r1, #1
					if(!((priority & 0b11 << 4) ^ can_fifo << 4))
 8002462:	d001      	beq.n	8002468 <_ZN6CRSLib3Can6RM000813FilterManager9Implement16FilterManagerImp22set_filter_match_indexIJLNS0_11FilterWidthE0ELS6_0ELS6_0ELS6_0ELS6_0ELS6_0ELS6_0ELS6_0ELS6_0ELS6_0ELS6_0ELS6_0ELS6_0ELS6_0EEJLNS0_10FilterModeE1ELS7_1ELS7_1ELS7_1ELS7_1ELS7_1ELS7_1ELS7_1ELS7_1ELS7_1ELS7_1ELS7_1ELS7_1ELS7_1EEEEvhDpRNS2_15ConfigFilterArgIXT_EXT0_EEE+0x156>
				for(u32 i = 0; auto& priority : priorities)
 8002464:	290e      	cmp	r1, #14
 8002466:	d1f1      	bne.n	800244c <_ZN6CRSLib3Can6RM000813FilterManager9Implement16FilterManagerImp22set_filter_match_indexIJLNS0_11FilterWidthE0ELS6_0ELS6_0ELS6_0ELS6_0ELS6_0ELS6_0ELS6_0ELS6_0ELS6_0ELS6_0ELS6_0ELS6_0ELS6_0EEJLNS0_10FilterModeE1ELS7_1ELS7_1ELS7_1ELS7_1ELS7_1ELS7_1ELS7_1ELS7_1ELS7_1ELS7_1ELS7_1ELS7_1ELS7_1EEEEvhDpRNS2_15ConfigFilterArgIXT_EXT0_EEE+0x13a>
			for(u32 can_fifo = 0b00; can_fifo <= 0b11; ++can_fifo)
 8002468:	3210      	adds	r2, #16
 800246a:	2a40      	cmp	r2, #64	; 0x40
 800246c:	d1ec      	bne.n	8002448 <_ZN6CRSLib3Can6RM000813FilterManager9Implement16FilterManagerImp22set_filter_match_indexIJLNS0_11FilterWidthE0ELS6_0ELS6_0ELS6_0ELS6_0ELS6_0ELS6_0ELS6_0ELS6_0ELS6_0ELS6_0ELS6_0ELS6_0ELS6_0EEJLNS0_10FilterModeE1ELS7_1ELS7_1ELS7_1ELS7_1ELS7_1ELS7_1ELS7_1ELS7_1ELS7_1ELS7_1ELS7_1ELS7_1ELS7_1EEEEvhDpRNS2_15ConfigFilterArgIXT_EXT0_EEE+0x136>
      _GLIBCXX17_CONSTEXPR const_iterator
      begin() const noexcept
      { return const_iterator(data()); }

      _GLIBCXX17_CONSTEXPR iterator
      end() noexcept
 800246e:	f04f 0300 	mov.w	r3, #0
	  std::__introsort_loop(__first, __last,
 8002472:	ad0d      	add	r5, sp, #52	; 0x34
 8002474:	ac0c      	add	r4, sp, #48	; 0x30
 8002476:	f88d 3034 	strb.w	r3, [sp, #52]	; 0x34
 800247a:	f88d 3030 	strb.w	r3, [sp, #48]	; 0x30
 800247e:	f10d 015e 	add.w	r1, sp, #94	; 0x5e
 8002482:	462b      	mov	r3, r5
 8002484:	a814      	add	r0, sp, #80	; 0x50
 8002486:	2206      	movs	r2, #6
 8002488:	9400      	str	r4, [sp, #0]
 800248a:	9510      	str	r5, [sp, #64]	; 0x40
 800248c:	9411      	str	r4, [sp, #68]	; 0x44
 800248e:	f7ff febb 	bl	8002208 <_ZSt16__introsort_loopIPhiN9__gnu_cxx5__ops15_Iter_comp_iterIZNSt6ranges8__detail16__make_comp_projINS4_4lessEZN6CRSLib3Can6RM000813FilterManager9Implement16FilterManagerImp22set_filter_match_indexIJLNS9_11FilterWidthE0ELSF_0ELSF_0ELSF_0ELSF_0ELSF_0ELSF_0ELSF_0ELSF_0ELSF_0ELSF_0ELSF_0ELSF_0ELSF_0EEJLNS9_10FilterModeE1ELSG_1ELSG_1ELSG_1ELSG_1ELSG_1ELSG_1ELSG_1ELSG_1ELSG_1ELSG_1ELSG_1ELSG_1ELSG_1EEEEvhDpRNSB_15ConfigFilterArgIXT_EXT0_EEEEUlT_E0_EEDaRSL_RT0_EUlOSL_OSO_E_EEEvSL_SL_SO_T1_>
	std::__insertion_sort(__first, __last, __comp);
 8002492:	4623      	mov	r3, r4
 8002494:	462a      	mov	r2, r5
 8002496:	f10d 015e 	add.w	r1, sp, #94	; 0x5e
 800249a:	a814      	add	r0, sp, #80	; 0x50
 800249c:	e9cd 5412 	strd	r5, r4, [sp, #72]	; 0x48
 80024a0:	f7ff fd5c 	bl	8001f5c <_ZSt16__insertion_sortIPhN9__gnu_cxx5__ops15_Iter_comp_iterIZNSt6ranges8__detail16__make_comp_projINS4_4lessEZN6CRSLib3Can6RM000813FilterManager9Implement16FilterManagerImp22set_filter_match_indexIJLNS9_11FilterWidthE0ELSF_0ELSF_0ELSF_0ELSF_0ELSF_0ELSF_0ELSF_0ELSF_0ELSF_0ELSF_0ELSF_0ELSF_0ELSF_0EEJLNS9_10FilterModeE1ELSG_1ELSG_1ELSG_1ELSG_1ELSG_1ELSG_1ELSG_1ELSG_1ELSG_1ELSG_1ELSG_1ELSG_1ELSG_1EEEEvhDpRNSB_15ConfigFilterArgIXT_EXT0_EEEEUlT_E0_EEDaRSL_RT0_EUlOSL_OSO_E_EEEvSL_SL_SO_>

			std::ranges::sort(priorities, {}, [](const auto priority){return priority & 0b11;});

			[&priorities, &filter_args...]<u8 ... indices>(std::integer_sequence<u8, indices ...>) noexcept
			{
				((filter_args.filter_match_index = priorities[indices] >> 6), ...);
 80024a4:	f89d 3050 	ldrb.w	r3, [sp, #80]	; 0x50
 80024a8:	9a22      	ldr	r2, [sp, #136]	; 0x88
 80024aa:	099b      	lsrs	r3, r3, #6
 80024ac:	f8c8 300c 	str.w	r3, [r8, #12]
 80024b0:	f89d 3051 	ldrb.w	r3, [sp, #81]	; 0x51
 80024b4:	099b      	lsrs	r3, r3, #6
 80024b6:	60fb      	str	r3, [r7, #12]
 80024b8:	f89d 3052 	ldrb.w	r3, [sp, #82]	; 0x52
 80024bc:	099b      	lsrs	r3, r3, #6
 80024be:	60f3      	str	r3, [r6, #12]
 80024c0:	f89d 3053 	ldrb.w	r3, [sp, #83]	; 0x53
 80024c4:	099b      	lsrs	r3, r3, #6
 80024c6:	60d3      	str	r3, [r2, #12]
 80024c8:	f89d 3054 	ldrb.w	r3, [sp, #84]	; 0x54
 80024cc:	9a23      	ldr	r2, [sp, #140]	; 0x8c
 80024ce:	099b      	lsrs	r3, r3, #6
 80024d0:	60d3      	str	r3, [r2, #12]
 80024d2:	f89d 3055 	ldrb.w	r3, [sp, #85]	; 0x55
 80024d6:	9a24      	ldr	r2, [sp, #144]	; 0x90
 80024d8:	099b      	lsrs	r3, r3, #6
 80024da:	60d3      	str	r3, [r2, #12]
 80024dc:	f89d 3056 	ldrb.w	r3, [sp, #86]	; 0x56
 80024e0:	9a25      	ldr	r2, [sp, #148]	; 0x94
 80024e2:	099b      	lsrs	r3, r3, #6
 80024e4:	60d3      	str	r3, [r2, #12]
 80024e6:	f89d 3057 	ldrb.w	r3, [sp, #87]	; 0x57
 80024ea:	9a26      	ldr	r2, [sp, #152]	; 0x98
 80024ec:	099b      	lsrs	r3, r3, #6
 80024ee:	60d3      	str	r3, [r2, #12]
 80024f0:	f89d 3058 	ldrb.w	r3, [sp, #88]	; 0x58
 80024f4:	9a27      	ldr	r2, [sp, #156]	; 0x9c
 80024f6:	099b      	lsrs	r3, r3, #6
 80024f8:	60d3      	str	r3, [r2, #12]
 80024fa:	f89d 3059 	ldrb.w	r3, [sp, #89]	; 0x59
 80024fe:	9a28      	ldr	r2, [sp, #160]	; 0xa0
 8002500:	099b      	lsrs	r3, r3, #6
 8002502:	60d3      	str	r3, [r2, #12]
 8002504:	f89d 305a 	ldrb.w	r3, [sp, #90]	; 0x5a
 8002508:	9a29      	ldr	r2, [sp, #164]	; 0xa4
 800250a:	099b      	lsrs	r3, r3, #6
 800250c:	60d3      	str	r3, [r2, #12]
 800250e:	f89d 305b 	ldrb.w	r3, [sp, #91]	; 0x5b
 8002512:	9a2a      	ldr	r2, [sp, #168]	; 0xa8
 8002514:	099b      	lsrs	r3, r3, #6
 8002516:	60d3      	str	r3, [r2, #12]
 8002518:	f89d 305c 	ldrb.w	r3, [sp, #92]	; 0x5c
 800251c:	9a2b      	ldr	r2, [sp, #172]	; 0xac
 800251e:	099b      	lsrs	r3, r3, #6
 8002520:	60d3      	str	r3, [r2, #12]
 8002522:	f89d 305d 	ldrb.w	r3, [sp, #93]	; 0x5d
 8002526:	9a2c      	ldr	r2, [sp, #176]	; 0xb0
 8002528:	099b      	lsrs	r3, r3, #6
 800252a:	60d3      	str	r3, [r2, #12]
			}(std::make_integer_sequence<u8, sizeof...(filter_widthes)>());
		}
 800252c:	b019      	add	sp, #100	; 0x64
 800252e:	e8bd 8ff0 	ldmia.w	sp!, {r4, r5, r6, r7, r8, r9, sl, fp, pc}
	...

08002534 <_ZN6CRSLib3Can6RM000813FilterManager18config_filter_bankIJLNS0_11FilterWidthE0ELS4_0ELS4_0ELS4_0ELS4_0ELS4_0ELS4_0ELS4_0ELS4_0ELS4_0ELS4_0ELS4_0ELS4_0ELS4_0EEJLNS0_10FilterModeE1ELS5_1ELS5_1ELS5_1ELS5_1ELS5_1ELS5_1ELS5_1ELS5_1ELS5_1ELS5_1ELS5_1ELS5_1ELS5_1EEEEvhDpRNS2_15ConfigFilterArgIXT_EXT0_EEE>:
			clear_bit(bxcan->FA1R, bit_position);
		}
	}

	template<FilterWidth ... filter_widthes, FilterMode ... filter_modes>
	void config_filter_bank(const u8 can2_start, ConfigFilterArg<filter_widthes, filter_modes>& ... filter_args)
 8002534:	e92d 4ff0 	stmdb	sp!, {r4, r5, r6, r7, r8, r9, sl, fp, lr}
 8002538:	460e      	mov	r6, r1
 800253a:	b091      	sub	sp, #68	; 0x44
	requires (sizeof...(filter_args) <= Config::filter_bank_total_size)
	{
		// assign FMI.
		Implement::FilterManagerImp::set_filter_match_index(can2_start, filter_args ...);
 800253c:	f8dd c07c 	ldr.w	ip, [sp, #124]	; 0x7c
	void config_filter_bank(const u8 can2_start, ConfigFilterArg<filter_widthes, filter_modes>& ... filter_args)
 8002540:	9f24      	ldr	r7, [sp, #144]	; 0x90
		Implement::FilterManagerImp::set_filter_match_index(can2_start, filter_args ...);
 8002542:	f8cd c014 	str.w	ip, [sp, #20]
 8002546:	f8dd c078 	ldr.w	ip, [sp, #120]	; 0x78
	void config_filter_bank(const u8 can2_start, ConfigFilterArg<filter_widthes, filter_modes>& ... filter_args)
 800254a:	e9dd ba20 	ldrd	fp, sl, [sp, #128]	; 0x80
		Implement::FilterManagerImp::set_filter_match_index(can2_start, filter_args ...);
 800254e:	f8cd c010 	str.w	ip, [sp, #16]
 8002552:	f8dd c074 	ldr.w	ip, [sp, #116]	; 0x74
	void config_filter_bank(const u8 can2_start, ConfigFilterArg<filter_widthes, filter_modes>& ... filter_args)
 8002556:	e9dd 9822 	ldrd	r9, r8, [sp, #136]	; 0x88
		Implement::FilterManagerImp::set_filter_match_index(can2_start, filter_args ...);
 800255a:	f8cd c00c 	str.w	ip, [sp, #12]
 800255e:	f8dd c070 	ldr.w	ip, [sp, #112]	; 0x70
 8002562:	e9cd a907 	strd	sl, r9, [sp, #28]
 8002566:	f8cd c008 	str.w	ip, [sp, #8]
 800256a:	f8dd c06c 	ldr.w	ip, [sp, #108]	; 0x6c
 800256e:	f8cd b018 	str.w	fp, [sp, #24]
 8002572:	f8cd c004 	str.w	ip, [sp, #4]
 8002576:	f8dd c068 	ldr.w	ip, [sp, #104]	; 0x68
	void config_filter_bank(const u8 can2_start, ConfigFilterArg<filter_widthes, filter_modes>& ... filter_args)
 800257a:	4615      	mov	r5, r2
		Implement::FilterManagerImp::set_filter_match_index(can2_start, filter_args ...);
 800257c:	f8cd c000 	str.w	ip, [sp]
	void config_filter_bank(const u8 can2_start, ConfigFilterArg<filter_widthes, filter_modes>& ... filter_args)
 8002580:	461c      	mov	r4, r3
 8002582:	900d      	str	r0, [sp, #52]	; 0x34
		Implement::FilterManagerImp::set_filter_match_index(can2_start, filter_args ...);
 8002584:	e9cd 8709 	strd	r8, r7, [sp, #36]	; 0x24
 8002588:	f7ff fec3 	bl	8002312 <_ZN6CRSLib3Can6RM000813FilterManager9Implement16FilterManagerImp22set_filter_match_indexIJLNS0_11FilterWidthE0ELS6_0ELS6_0ELS6_0ELS6_0ELS6_0ELS6_0ELS6_0ELS6_0ELS6_0ELS6_0ELS6_0ELS6_0ELS6_0EEJLNS0_10FilterModeE1ELS7_1ELS7_1ELS7_1ELS7_1ELS7_1ELS7_1ELS7_1ELS7_1ELS7_1ELS7_1ELS7_1ELS7_1ELS7_1EEEEvhDpRNS2_15ConfigFilterArgIXT_EXT0_EEE>
		bit &= ~reg;
	}

	inline constexpr void set_bit(volatile auto& bit, const auto reg)
	{
		bit = bit | reg;
 800258c:	4bd1      	ldr	r3, [pc, #836]	; (80028d4 <_ZN6CRSLib3Can6RM000813FilterManager18config_filter_bankIJLNS0_11FilterWidthE0ELS4_0ELS4_0ELS4_0ELS4_0ELS4_0ELS4_0ELS4_0ELS4_0ELS4_0ELS4_0ELS4_0ELS4_0ELS4_0EEJLNS0_10FilterModeE1ELS5_1ELS5_1ELS5_1ELS5_1ELS5_1ELS5_1ELS5_1ELS5_1ELS5_1ELS5_1ELS5_1ELS5_1ELS5_1EEEEvhDpRNS2_15ConfigFilterArgIXT_EXT0_EEE+0x3a0>)
 800258e:	f8d3 2600 	ldr.w	r2, [r3, #1536]	; 0x600
 8002592:	f042 0201 	orr.w	r2, r2, #1
 8002596:	f8c3 2600 	str.w	r2, [r3, #1536]	; 0x600
		bit = bit & ~reg;
 800259a:	f8d3 2600 	ldr.w	r2, [r3, #1536]	; 0x600
 800259e:	f422 527c 	bic.w	r2, r2, #16128	; 0x3f00
 80025a2:	f8c3 2600 	str.w	r2, [r3, #1536]	; 0x600
		bit = bit | reg;
 80025a6:	f8d3 0600 	ldr.w	r0, [r3, #1536]	; 0x600
 80025aa:	9a0d      	ldr	r2, [sp, #52]	; 0x34
 80025ac:	ea40 2002 	orr.w	r0, r0, r2, lsl #8
 80025b0:	f8c3 0600 	str.w	r0, [r3, #1536]	; 0x600
		std::memcpy(tmp_buffer, &filter_arg.filter, 8);
 80025b4:	6871      	ldr	r1, [r6, #4]
 80025b6:	6830      	ldr	r0, [r6, #0]
 80025b8:	aa0e      	add	r2, sp, #56	; 0x38
 80025ba:	c203      	stmia	r2!, {r0, r1}
		bxcan->sFilterRegister[index].FR1 = tmp_buffer[0];
 80025bc:	4ac6      	ldr	r2, [pc, #792]	; (80028d8 <_ZN6CRSLib3Can6RM000813FilterManager18config_filter_bankIJLNS0_11FilterWidthE0ELS4_0ELS4_0ELS4_0ELS4_0ELS4_0ELS4_0ELS4_0ELS4_0ELS4_0ELS4_0ELS4_0ELS4_0ELS4_0EEJLNS0_10FilterModeE1ELS5_1ELS5_1ELS5_1ELS5_1ELS5_1ELS5_1ELS5_1ELS5_1ELS5_1ELS5_1ELS5_1ELS5_1ELS5_1EEEEvhDpRNS2_15ConfigFilterArgIXT_EXT0_EEE+0x3a4>)
 80025be:	f8c2 0240 	str.w	r0, [r2, #576]	; 0x240
		bxcan->sFilterRegister[index].FR2 = tmp_buffer[1];
 80025c2:	990f      	ldr	r1, [sp, #60]	; 0x3c
 80025c4:	f8c2 1244 	str.w	r1, [r2, #580]	; 0x244
 80025c8:	f8d3 260c 	ldr.w	r2, [r3, #1548]	; 0x60c
 80025cc:	f042 0201 	orr.w	r2, r2, #1
 80025d0:	f8c3 260c 	str.w	r2, [r3, #1548]	; 0x60c
 80025d4:	f8d3 2604 	ldr.w	r2, [r3, #1540]	; 0x604
 80025d8:	f042 0201 	orr.w	r2, r2, #1
 80025dc:	f8c3 2604 	str.w	r2, [r3, #1540]	; 0x604
		if(filter_arg.fifo == FifoIndex::fifo0)
 80025e0:	68b2      	ldr	r2, [r6, #8]
 80025e2:	2a00      	cmp	r2, #0
 80025e4:	f040 827d 	bne.w	8002ae2 <_ZN6CRSLib3Can6RM000813FilterManager18config_filter_bankIJLNS0_11FilterWidthE0ELS4_0ELS4_0ELS4_0ELS4_0ELS4_0ELS4_0ELS4_0ELS4_0ELS4_0ELS4_0ELS4_0ELS4_0ELS4_0EEJLNS0_10FilterModeE1ELS5_1ELS5_1ELS5_1ELS5_1ELS5_1ELS5_1ELS5_1ELS5_1ELS5_1ELS5_1ELS5_1ELS5_1ELS5_1EEEEvhDpRNS2_15ConfigFilterArgIXT_EXT0_EEE+0x5ae>
		bit = bit & ~reg;
 80025e8:	f8d3 2614 	ldr.w	r2, [r3, #1556]	; 0x614
 80025ec:	f022 0201 	bic.w	r2, r2, #1
		bit = bit | reg;
 80025f0:	f8c3 2614 	str.w	r2, [r3, #1556]	; 0x614
		if(filter_arg.activate)
 80025f4:	7c32      	ldrb	r2, [r6, #16]
 80025f6:	2a00      	cmp	r2, #0
 80025f8:	f000 8278 	beq.w	8002aec <_ZN6CRSLib3Can6RM000813FilterManager18config_filter_bankIJLNS0_11FilterWidthE0ELS4_0ELS4_0ELS4_0ELS4_0ELS4_0ELS4_0ELS4_0ELS4_0ELS4_0ELS4_0ELS4_0ELS4_0ELS4_0EEJLNS0_10FilterModeE1ELS5_1ELS5_1ELS5_1ELS5_1ELS5_1ELS5_1ELS5_1ELS5_1ELS5_1ELS5_1ELS5_1ELS5_1ELS5_1EEEEvhDpRNS2_15ConfigFilterArgIXT_EXT0_EEE+0x5b8>
 80025fc:	f8d3 261c 	ldr.w	r2, [r3, #1564]	; 0x61c
 8002600:	f042 0201 	orr.w	r2, r2, #1
		bit = bit & ~reg;
 8002604:	f8c3 261c 	str.w	r2, [r3, #1564]	; 0x61c
		std::memcpy(tmp_buffer, &filter_arg.filter, 8);
 8002608:	6828      	ldr	r0, [r5, #0]
 800260a:	6869      	ldr	r1, [r5, #4]
 800260c:	ab0e      	add	r3, sp, #56	; 0x38
 800260e:	c303      	stmia	r3!, {r0, r1}
		bxcan->sFilterRegister[index].FR1 = tmp_buffer[0];
 8002610:	4bb1      	ldr	r3, [pc, #708]	; (80028d8 <_ZN6CRSLib3Can6RM000813FilterManager18config_filter_bankIJLNS0_11FilterWidthE0ELS4_0ELS4_0ELS4_0ELS4_0ELS4_0ELS4_0ELS4_0ELS4_0ELS4_0ELS4_0ELS4_0ELS4_0ELS4_0EEJLNS0_10FilterModeE1ELS5_1ELS5_1ELS5_1ELS5_1ELS5_1ELS5_1ELS5_1ELS5_1ELS5_1ELS5_1ELS5_1ELS5_1ELS5_1EEEEvhDpRNS2_15ConfigFilterArgIXT_EXT0_EEE+0x3a4>)
 8002612:	f8c3 0248 	str.w	r0, [r3, #584]	; 0x248
		bxcan->sFilterRegister[index].FR2 = tmp_buffer[1];
 8002616:	9a0f      	ldr	r2, [sp, #60]	; 0x3c
		bit = bit | reg;
 8002618:	f5a3 6380 	sub.w	r3, r3, #1024	; 0x400
 800261c:	f8c3 264c 	str.w	r2, [r3, #1612]	; 0x64c
 8002620:	f8d3 260c 	ldr.w	r2, [r3, #1548]	; 0x60c
 8002624:	f042 0202 	orr.w	r2, r2, #2
 8002628:	f8c3 260c 	str.w	r2, [r3, #1548]	; 0x60c
 800262c:	f8d3 2604 	ldr.w	r2, [r3, #1540]	; 0x604
 8002630:	f042 0202 	orr.w	r2, r2, #2
 8002634:	f8c3 2604 	str.w	r2, [r3, #1540]	; 0x604
		if(filter_arg.fifo == FifoIndex::fifo0)
 8002638:	68aa      	ldr	r2, [r5, #8]
 800263a:	2a00      	cmp	r2, #0
 800263c:	f040 825b 	bne.w	8002af6 <_ZN6CRSLib3Can6RM000813FilterManager18config_filter_bankIJLNS0_11FilterWidthE0ELS4_0ELS4_0ELS4_0ELS4_0ELS4_0ELS4_0ELS4_0ELS4_0ELS4_0ELS4_0ELS4_0ELS4_0ELS4_0EEJLNS0_10FilterModeE1ELS5_1ELS5_1ELS5_1ELS5_1ELS5_1ELS5_1ELS5_1ELS5_1ELS5_1ELS5_1ELS5_1ELS5_1ELS5_1EEEEvhDpRNS2_15ConfigFilterArgIXT_EXT0_EEE+0x5c2>
		bit = bit & ~reg;
 8002640:	f8d3 2614 	ldr.w	r2, [r3, #1556]	; 0x614
 8002644:	f022 0202 	bic.w	r2, r2, #2
		bit = bit | reg;
 8002648:	f8c3 2614 	str.w	r2, [r3, #1556]	; 0x614
		if(filter_arg.activate)
 800264c:	7c2a      	ldrb	r2, [r5, #16]
 800264e:	2a00      	cmp	r2, #0
 8002650:	f000 8256 	beq.w	8002b00 <_ZN6CRSLib3Can6RM000813FilterManager18config_filter_bankIJLNS0_11FilterWidthE0ELS4_0ELS4_0ELS4_0ELS4_0ELS4_0ELS4_0ELS4_0ELS4_0ELS4_0ELS4_0ELS4_0ELS4_0ELS4_0EEJLNS0_10FilterModeE1ELS5_1ELS5_1ELS5_1ELS5_1ELS5_1ELS5_1ELS5_1ELS5_1ELS5_1ELS5_1ELS5_1ELS5_1ELS5_1EEEEvhDpRNS2_15ConfigFilterArgIXT_EXT0_EEE+0x5cc>
 8002654:	f8d3 261c 	ldr.w	r2, [r3, #1564]	; 0x61c
 8002658:	f042 0202 	orr.w	r2, r2, #2
		bit = bit & ~reg;
 800265c:	f8c3 261c 	str.w	r2, [r3, #1564]	; 0x61c
		std::memcpy(tmp_buffer, &filter_arg.filter, 8);
 8002660:	6820      	ldr	r0, [r4, #0]
 8002662:	6861      	ldr	r1, [r4, #4]
 8002664:	ab0e      	add	r3, sp, #56	; 0x38
 8002666:	c303      	stmia	r3!, {r0, r1}
		bxcan->sFilterRegister[index].FR1 = tmp_buffer[0];
 8002668:	4b9b      	ldr	r3, [pc, #620]	; (80028d8 <_ZN6CRSLib3Can6RM000813FilterManager18config_filter_bankIJLNS0_11FilterWidthE0ELS4_0ELS4_0ELS4_0ELS4_0ELS4_0ELS4_0ELS4_0ELS4_0ELS4_0ELS4_0ELS4_0ELS4_0ELS4_0EEJLNS0_10FilterModeE1ELS5_1ELS5_1ELS5_1ELS5_1ELS5_1ELS5_1ELS5_1ELS5_1ELS5_1ELS5_1ELS5_1ELS5_1ELS5_1EEEEvhDpRNS2_15ConfigFilterArgIXT_EXT0_EEE+0x3a4>)
 800266a:	f8c3 0250 	str.w	r0, [r3, #592]	; 0x250
		bxcan->sFilterRegister[index].FR2 = tmp_buffer[1];
 800266e:	9a0f      	ldr	r2, [sp, #60]	; 0x3c
		bit = bit | reg;
 8002670:	f5a3 6380 	sub.w	r3, r3, #1024	; 0x400
 8002674:	f8c3 2654 	str.w	r2, [r3, #1620]	; 0x654
 8002678:	f8d3 260c 	ldr.w	r2, [r3, #1548]	; 0x60c
 800267c:	f042 0204 	orr.w	r2, r2, #4
 8002680:	f8c3 260c 	str.w	r2, [r3, #1548]	; 0x60c
 8002684:	f8d3 2604 	ldr.w	r2, [r3, #1540]	; 0x604
 8002688:	f042 0204 	orr.w	r2, r2, #4
 800268c:	f8c3 2604 	str.w	r2, [r3, #1540]	; 0x604
		if(filter_arg.fifo == FifoIndex::fifo0)
 8002690:	68a2      	ldr	r2, [r4, #8]
 8002692:	2a00      	cmp	r2, #0
 8002694:	f040 8239 	bne.w	8002b0a <_ZN6CRSLib3Can6RM000813FilterManager18config_filter_bankIJLNS0_11FilterWidthE0ELS4_0ELS4_0ELS4_0ELS4_0ELS4_0ELS4_0ELS4_0ELS4_0ELS4_0ELS4_0ELS4_0ELS4_0ELS4_0EEJLNS0_10FilterModeE1ELS5_1ELS5_1ELS5_1ELS5_1ELS5_1ELS5_1ELS5_1ELS5_1ELS5_1ELS5_1ELS5_1ELS5_1ELS5_1EEEEvhDpRNS2_15ConfigFilterArgIXT_EXT0_EEE+0x5d6>
		bit = bit & ~reg;
 8002698:	f8d3 2614 	ldr.w	r2, [r3, #1556]	; 0x614
 800269c:	f022 0204 	bic.w	r2, r2, #4
		bit = bit | reg;
 80026a0:	f8c3 2614 	str.w	r2, [r3, #1556]	; 0x614
		if(filter_arg.activate)
 80026a4:	7c22      	ldrb	r2, [r4, #16]
 80026a6:	2a00      	cmp	r2, #0
 80026a8:	f000 8234 	beq.w	8002b14 <_ZN6CRSLib3Can6RM000813FilterManager18config_filter_bankIJLNS0_11FilterWidthE0ELS4_0ELS4_0ELS4_0ELS4_0ELS4_0ELS4_0ELS4_0ELS4_0ELS4_0ELS4_0ELS4_0ELS4_0ELS4_0EEJLNS0_10FilterModeE1ELS5_1ELS5_1ELS5_1ELS5_1ELS5_1ELS5_1ELS5_1ELS5_1ELS5_1ELS5_1ELS5_1ELS5_1ELS5_1EEEEvhDpRNS2_15ConfigFilterArgIXT_EXT0_EEE+0x5e0>
 80026ac:	f8d3 261c 	ldr.w	r2, [r3, #1564]	; 0x61c
 80026b0:	f042 0204 	orr.w	r2, r2, #4
		bit = bit & ~reg;
 80026b4:	f8c3 261c 	str.w	r2, [r3, #1564]	; 0x61c
		std::memcpy(tmp_buffer, &filter_arg.filter, 8);
 80026b8:	9a1a      	ldr	r2, [sp, #104]	; 0x68
 80026ba:	ab0e      	add	r3, sp, #56	; 0x38
 80026bc:	6810      	ldr	r0, [r2, #0]
 80026be:	6851      	ldr	r1, [r2, #4]
 80026c0:	c303      	stmia	r3!, {r0, r1}
		bxcan->sFilterRegister[index].FR1 = tmp_buffer[0];
 80026c2:	4b85      	ldr	r3, [pc, #532]	; (80028d8 <_ZN6CRSLib3Can6RM000813FilterManager18config_filter_bankIJLNS0_11FilterWidthE0ELS4_0ELS4_0ELS4_0ELS4_0ELS4_0ELS4_0ELS4_0ELS4_0ELS4_0ELS4_0ELS4_0ELS4_0ELS4_0EEJLNS0_10FilterModeE1ELS5_1ELS5_1ELS5_1ELS5_1ELS5_1ELS5_1ELS5_1ELS5_1ELS5_1ELS5_1ELS5_1ELS5_1ELS5_1EEEEvhDpRNS2_15ConfigFilterArgIXT_EXT0_EEE+0x3a4>)
 80026c4:	f8c3 0258 	str.w	r0, [r3, #600]	; 0x258
		bxcan->sFilterRegister[index].FR2 = tmp_buffer[1];
 80026c8:	9a0f      	ldr	r2, [sp, #60]	; 0x3c
		bit = bit | reg;
 80026ca:	f5a3 6380 	sub.w	r3, r3, #1024	; 0x400
 80026ce:	f8c3 265c 	str.w	r2, [r3, #1628]	; 0x65c
 80026d2:	f8d3 260c 	ldr.w	r2, [r3, #1548]	; 0x60c
 80026d6:	f042 0208 	orr.w	r2, r2, #8
 80026da:	f8c3 260c 	str.w	r2, [r3, #1548]	; 0x60c
 80026de:	f8d3 2604 	ldr.w	r2, [r3, #1540]	; 0x604
 80026e2:	f042 0208 	orr.w	r2, r2, #8
 80026e6:	f8c3 2604 	str.w	r2, [r3, #1540]	; 0x604
		if(filter_arg.fifo == FifoIndex::fifo0)
 80026ea:	9a1a      	ldr	r2, [sp, #104]	; 0x68
 80026ec:	6892      	ldr	r2, [r2, #8]
 80026ee:	2a00      	cmp	r2, #0
 80026f0:	f040 8215 	bne.w	8002b1e <_ZN6CRSLib3Can6RM000813FilterManager18config_filter_bankIJLNS0_11FilterWidthE0ELS4_0ELS4_0ELS4_0ELS4_0ELS4_0ELS4_0ELS4_0ELS4_0ELS4_0ELS4_0ELS4_0ELS4_0ELS4_0EEJLNS0_10FilterModeE1ELS5_1ELS5_1ELS5_1ELS5_1ELS5_1ELS5_1ELS5_1ELS5_1ELS5_1ELS5_1ELS5_1ELS5_1ELS5_1EEEEvhDpRNS2_15ConfigFilterArgIXT_EXT0_EEE+0x5ea>
		bit = bit & ~reg;
 80026f4:	f8d3 2614 	ldr.w	r2, [r3, #1556]	; 0x614
 80026f8:	f022 0208 	bic.w	r2, r2, #8
		bit = bit | reg;
 80026fc:	f8c3 2614 	str.w	r2, [r3, #1556]	; 0x614
		if(filter_arg.activate)
 8002700:	9a1a      	ldr	r2, [sp, #104]	; 0x68
 8002702:	7c12      	ldrb	r2, [r2, #16]
 8002704:	2a00      	cmp	r2, #0
 8002706:	f000 820f 	beq.w	8002b28 <_ZN6CRSLib3Can6RM000813FilterManager18config_filter_bankIJLNS0_11FilterWidthE0ELS4_0ELS4_0ELS4_0ELS4_0ELS4_0ELS4_0ELS4_0ELS4_0ELS4_0ELS4_0ELS4_0ELS4_0ELS4_0EEJLNS0_10FilterModeE1ELS5_1ELS5_1ELS5_1ELS5_1ELS5_1ELS5_1ELS5_1ELS5_1ELS5_1ELS5_1ELS5_1ELS5_1ELS5_1EEEEvhDpRNS2_15ConfigFilterArgIXT_EXT0_EEE+0x5f4>
 800270a:	f8d3 261c 	ldr.w	r2, [r3, #1564]	; 0x61c
 800270e:	f042 0208 	orr.w	r2, r2, #8
		bit = bit & ~reg;
 8002712:	f8c3 261c 	str.w	r2, [r3, #1564]	; 0x61c
		std::memcpy(tmp_buffer, &filter_arg.filter, 8);
 8002716:	9a1b      	ldr	r2, [sp, #108]	; 0x6c
 8002718:	ab0e      	add	r3, sp, #56	; 0x38
 800271a:	6810      	ldr	r0, [r2, #0]
 800271c:	6851      	ldr	r1, [r2, #4]
 800271e:	c303      	stmia	r3!, {r0, r1}
		bxcan->sFilterRegister[index].FR1 = tmp_buffer[0];
 8002720:	4b6d      	ldr	r3, [pc, #436]	; (80028d8 <_ZN6CRSLib3Can6RM000813FilterManager18config_filter_bankIJLNS0_11FilterWidthE0ELS4_0ELS4_0ELS4_0ELS4_0ELS4_0ELS4_0ELS4_0ELS4_0ELS4_0ELS4_0ELS4_0ELS4_0ELS4_0EEJLNS0_10FilterModeE1ELS5_1ELS5_1ELS5_1ELS5_1ELS5_1ELS5_1ELS5_1ELS5_1ELS5_1ELS5_1ELS5_1ELS5_1ELS5_1EEEEvhDpRNS2_15ConfigFilterArgIXT_EXT0_EEE+0x3a4>)
 8002722:	f8c3 0260 	str.w	r0, [r3, #608]	; 0x260
		bxcan->sFilterRegister[index].FR2 = tmp_buffer[1];
 8002726:	9a0f      	ldr	r2, [sp, #60]	; 0x3c
		bit = bit | reg;
 8002728:	f5a3 6380 	sub.w	r3, r3, #1024	; 0x400
 800272c:	f8c3 2664 	str.w	r2, [r3, #1636]	; 0x664
 8002730:	f8d3 260c 	ldr.w	r2, [r3, #1548]	; 0x60c
 8002734:	f042 0210 	orr.w	r2, r2, #16
 8002738:	f8c3 260c 	str.w	r2, [r3, #1548]	; 0x60c
 800273c:	f8d3 2604 	ldr.w	r2, [r3, #1540]	; 0x604
 8002740:	f042 0210 	orr.w	r2, r2, #16
 8002744:	f8c3 2604 	str.w	r2, [r3, #1540]	; 0x604
		if(filter_arg.fifo == FifoIndex::fifo0)
 8002748:	9a1b      	ldr	r2, [sp, #108]	; 0x6c
 800274a:	6892      	ldr	r2, [r2, #8]
 800274c:	2a00      	cmp	r2, #0
 800274e:	f040 81f0 	bne.w	8002b32 <_ZN6CRSLib3Can6RM000813FilterManager18config_filter_bankIJLNS0_11FilterWidthE0ELS4_0ELS4_0ELS4_0ELS4_0ELS4_0ELS4_0ELS4_0ELS4_0ELS4_0ELS4_0ELS4_0ELS4_0ELS4_0EEJLNS0_10FilterModeE1ELS5_1ELS5_1ELS5_1ELS5_1ELS5_1ELS5_1ELS5_1ELS5_1ELS5_1ELS5_1ELS5_1ELS5_1ELS5_1EEEEvhDpRNS2_15ConfigFilterArgIXT_EXT0_EEE+0x5fe>
		bit = bit & ~reg;
 8002752:	f8d3 2614 	ldr.w	r2, [r3, #1556]	; 0x614
 8002756:	f022 0210 	bic.w	r2, r2, #16
		bit = bit | reg;
 800275a:	f8c3 2614 	str.w	r2, [r3, #1556]	; 0x614
		if(filter_arg.activate)
 800275e:	9a1b      	ldr	r2, [sp, #108]	; 0x6c
 8002760:	7c12      	ldrb	r2, [r2, #16]
 8002762:	2a00      	cmp	r2, #0
 8002764:	f000 81ea 	beq.w	8002b3c <_ZN6CRSLib3Can6RM000813FilterManager18config_filter_bankIJLNS0_11FilterWidthE0ELS4_0ELS4_0ELS4_0ELS4_0ELS4_0ELS4_0ELS4_0ELS4_0ELS4_0ELS4_0ELS4_0ELS4_0ELS4_0EEJLNS0_10FilterModeE1ELS5_1ELS5_1ELS5_1ELS5_1ELS5_1ELS5_1ELS5_1ELS5_1ELS5_1ELS5_1ELS5_1ELS5_1ELS5_1EEEEvhDpRNS2_15ConfigFilterArgIXT_EXT0_EEE+0x608>
 8002768:	f8d3 261c 	ldr.w	r2, [r3, #1564]	; 0x61c
 800276c:	f042 0210 	orr.w	r2, r2, #16
		bit = bit & ~reg;
 8002770:	f8c3 261c 	str.w	r2, [r3, #1564]	; 0x61c
		std::memcpy(tmp_buffer, &filter_arg.filter, 8);
 8002774:	9a1c      	ldr	r2, [sp, #112]	; 0x70
 8002776:	ab0e      	add	r3, sp, #56	; 0x38
 8002778:	6810      	ldr	r0, [r2, #0]
 800277a:	6851      	ldr	r1, [r2, #4]
 800277c:	c303      	stmia	r3!, {r0, r1}
		bxcan->sFilterRegister[index].FR1 = tmp_buffer[0];
 800277e:	4b56      	ldr	r3, [pc, #344]	; (80028d8 <_ZN6CRSLib3Can6RM000813FilterManager18config_filter_bankIJLNS0_11FilterWidthE0ELS4_0ELS4_0ELS4_0ELS4_0ELS4_0ELS4_0ELS4_0ELS4_0ELS4_0ELS4_0ELS4_0ELS4_0ELS4_0EEJLNS0_10FilterModeE1ELS5_1ELS5_1ELS5_1ELS5_1ELS5_1ELS5_1ELS5_1ELS5_1ELS5_1ELS5_1ELS5_1ELS5_1ELS5_1EEEEvhDpRNS2_15ConfigFilterArgIXT_EXT0_EEE+0x3a4>)
 8002780:	f8c3 0268 	str.w	r0, [r3, #616]	; 0x268
		bxcan->sFilterRegister[index].FR2 = tmp_buffer[1];
 8002784:	9a0f      	ldr	r2, [sp, #60]	; 0x3c
		bit = bit | reg;
 8002786:	f5a3 6380 	sub.w	r3, r3, #1024	; 0x400
 800278a:	f8c3 266c 	str.w	r2, [r3, #1644]	; 0x66c
 800278e:	f8d3 260c 	ldr.w	r2, [r3, #1548]	; 0x60c
 8002792:	f042 0220 	orr.w	r2, r2, #32
 8002796:	f8c3 260c 	str.w	r2, [r3, #1548]	; 0x60c
 800279a:	f8d3 2604 	ldr.w	r2, [r3, #1540]	; 0x604
 800279e:	f042 0220 	orr.w	r2, r2, #32
 80027a2:	f8c3 2604 	str.w	r2, [r3, #1540]	; 0x604
		if(filter_arg.fifo == FifoIndex::fifo0)
 80027a6:	9a1c      	ldr	r2, [sp, #112]	; 0x70
 80027a8:	6892      	ldr	r2, [r2, #8]
 80027aa:	2a00      	cmp	r2, #0
 80027ac:	f040 81cb 	bne.w	8002b46 <_ZN6CRSLib3Can6RM000813FilterManager18config_filter_bankIJLNS0_11FilterWidthE0ELS4_0ELS4_0ELS4_0ELS4_0ELS4_0ELS4_0ELS4_0ELS4_0ELS4_0ELS4_0ELS4_0ELS4_0ELS4_0EEJLNS0_10FilterModeE1ELS5_1ELS5_1ELS5_1ELS5_1ELS5_1ELS5_1ELS5_1ELS5_1ELS5_1ELS5_1ELS5_1ELS5_1ELS5_1EEEEvhDpRNS2_15ConfigFilterArgIXT_EXT0_EEE+0x612>
		bit = bit & ~reg;
 80027b0:	f8d3 2614 	ldr.w	r2, [r3, #1556]	; 0x614
 80027b4:	f022 0220 	bic.w	r2, r2, #32
		bit = bit | reg;
 80027b8:	f8c3 2614 	str.w	r2, [r3, #1556]	; 0x614
		if(filter_arg.activate)
 80027bc:	9a1c      	ldr	r2, [sp, #112]	; 0x70
 80027be:	7c12      	ldrb	r2, [r2, #16]
 80027c0:	2a00      	cmp	r2, #0
 80027c2:	f000 81c5 	beq.w	8002b50 <_ZN6CRSLib3Can6RM000813FilterManager18config_filter_bankIJLNS0_11FilterWidthE0ELS4_0ELS4_0ELS4_0ELS4_0ELS4_0ELS4_0ELS4_0ELS4_0ELS4_0ELS4_0ELS4_0ELS4_0ELS4_0EEJLNS0_10FilterModeE1ELS5_1ELS5_1ELS5_1ELS5_1ELS5_1ELS5_1ELS5_1ELS5_1ELS5_1ELS5_1ELS5_1ELS5_1ELS5_1EEEEvhDpRNS2_15ConfigFilterArgIXT_EXT0_EEE+0x61c>
 80027c6:	f8d3 261c 	ldr.w	r2, [r3, #1564]	; 0x61c
 80027ca:	f042 0220 	orr.w	r2, r2, #32
		bit = bit & ~reg;
 80027ce:	f8c3 261c 	str.w	r2, [r3, #1564]	; 0x61c
		std::memcpy(tmp_buffer, &filter_arg.filter, 8);
 80027d2:	9a1d      	ldr	r2, [sp, #116]	; 0x74
 80027d4:	ab0e      	add	r3, sp, #56	; 0x38
 80027d6:	6810      	ldr	r0, [r2, #0]
 80027d8:	6851      	ldr	r1, [r2, #4]
 80027da:	c303      	stmia	r3!, {r0, r1}
		bxcan->sFilterRegister[index].FR1 = tmp_buffer[0];
 80027dc:	4b3e      	ldr	r3, [pc, #248]	; (80028d8 <_ZN6CRSLib3Can6RM000813FilterManager18config_filter_bankIJLNS0_11FilterWidthE0ELS4_0ELS4_0ELS4_0ELS4_0ELS4_0ELS4_0ELS4_0ELS4_0ELS4_0ELS4_0ELS4_0ELS4_0ELS4_0EEJLNS0_10FilterModeE1ELS5_1ELS5_1ELS5_1ELS5_1ELS5_1ELS5_1ELS5_1ELS5_1ELS5_1ELS5_1ELS5_1ELS5_1ELS5_1EEEEvhDpRNS2_15ConfigFilterArgIXT_EXT0_EEE+0x3a4>)
 80027de:	f8c3 0270 	str.w	r0, [r3, #624]	; 0x270
		bxcan->sFilterRegister[index].FR2 = tmp_buffer[1];
 80027e2:	9a0f      	ldr	r2, [sp, #60]	; 0x3c
		bit = bit | reg;
 80027e4:	f5a3 6380 	sub.w	r3, r3, #1024	; 0x400
 80027e8:	f8c3 2674 	str.w	r2, [r3, #1652]	; 0x674
 80027ec:	f8d3 260c 	ldr.w	r2, [r3, #1548]	; 0x60c
 80027f0:	f042 0240 	orr.w	r2, r2, #64	; 0x40
 80027f4:	f8c3 260c 	str.w	r2, [r3, #1548]	; 0x60c
 80027f8:	f8d3 2604 	ldr.w	r2, [r3, #1540]	; 0x604
 80027fc:	f042 0240 	orr.w	r2, r2, #64	; 0x40
 8002800:	f8c3 2604 	str.w	r2, [r3, #1540]	; 0x604
		if(filter_arg.fifo == FifoIndex::fifo0)
 8002804:	9a1d      	ldr	r2, [sp, #116]	; 0x74
 8002806:	6892      	ldr	r2, [r2, #8]
 8002808:	2a00      	cmp	r2, #0
 800280a:	f040 81a6 	bne.w	8002b5a <_ZN6CRSLib3Can6RM000813FilterManager18config_filter_bankIJLNS0_11FilterWidthE0ELS4_0ELS4_0ELS4_0ELS4_0ELS4_0ELS4_0ELS4_0ELS4_0ELS4_0ELS4_0ELS4_0ELS4_0ELS4_0EEJLNS0_10FilterModeE1ELS5_1ELS5_1ELS5_1ELS5_1ELS5_1ELS5_1ELS5_1ELS5_1ELS5_1ELS5_1ELS5_1ELS5_1ELS5_1EEEEvhDpRNS2_15ConfigFilterArgIXT_EXT0_EEE+0x626>
		bit = bit & ~reg;
 800280e:	f8d3 2614 	ldr.w	r2, [r3, #1556]	; 0x614
 8002812:	f022 0240 	bic.w	r2, r2, #64	; 0x40
		bit = bit | reg;
 8002816:	f8c3 2614 	str.w	r2, [r3, #1556]	; 0x614
		if(filter_arg.activate)
 800281a:	9a1d      	ldr	r2, [sp, #116]	; 0x74
 800281c:	7c12      	ldrb	r2, [r2, #16]
 800281e:	2a00      	cmp	r2, #0
 8002820:	f000 81a0 	beq.w	8002b64 <_ZN6CRSLib3Can6RM000813FilterManager18config_filter_bankIJLNS0_11FilterWidthE0ELS4_0ELS4_0ELS4_0ELS4_0ELS4_0ELS4_0ELS4_0ELS4_0ELS4_0ELS4_0ELS4_0ELS4_0ELS4_0EEJLNS0_10FilterModeE1ELS5_1ELS5_1ELS5_1ELS5_1ELS5_1ELS5_1ELS5_1ELS5_1ELS5_1ELS5_1ELS5_1ELS5_1ELS5_1EEEEvhDpRNS2_15ConfigFilterArgIXT_EXT0_EEE+0x630>
 8002824:	f8d3 261c 	ldr.w	r2, [r3, #1564]	; 0x61c
 8002828:	f042 0240 	orr.w	r2, r2, #64	; 0x40
		bit = bit & ~reg;
 800282c:	f8c3 261c 	str.w	r2, [r3, #1564]	; 0x61c
		std::memcpy(tmp_buffer, &filter_arg.filter, 8);
 8002830:	9a1e      	ldr	r2, [sp, #120]	; 0x78
 8002832:	ab0e      	add	r3, sp, #56	; 0x38
 8002834:	6810      	ldr	r0, [r2, #0]
 8002836:	6851      	ldr	r1, [r2, #4]
 8002838:	c303      	stmia	r3!, {r0, r1}
		bxcan->sFilterRegister[index].FR1 = tmp_buffer[0];
 800283a:	4b27      	ldr	r3, [pc, #156]	; (80028d8 <_ZN6CRSLib3Can6RM000813FilterManager18config_filter_bankIJLNS0_11FilterWidthE0ELS4_0ELS4_0ELS4_0ELS4_0ELS4_0ELS4_0ELS4_0ELS4_0ELS4_0ELS4_0ELS4_0ELS4_0ELS4_0EEJLNS0_10FilterModeE1ELS5_1ELS5_1ELS5_1ELS5_1ELS5_1ELS5_1ELS5_1ELS5_1ELS5_1ELS5_1ELS5_1ELS5_1ELS5_1EEEEvhDpRNS2_15ConfigFilterArgIXT_EXT0_EEE+0x3a4>)
 800283c:	f8c3 0278 	str.w	r0, [r3, #632]	; 0x278
		bxcan->sFilterRegister[index].FR2 = tmp_buffer[1];
 8002840:	9a0f      	ldr	r2, [sp, #60]	; 0x3c
		bit = bit | reg;
 8002842:	f5a3 6380 	sub.w	r3, r3, #1024	; 0x400
 8002846:	f8c3 267c 	str.w	r2, [r3, #1660]	; 0x67c
 800284a:	f8d3 260c 	ldr.w	r2, [r3, #1548]	; 0x60c
 800284e:	f042 0280 	orr.w	r2, r2, #128	; 0x80
 8002852:	f8c3 260c 	str.w	r2, [r3, #1548]	; 0x60c
 8002856:	f8d3 2604 	ldr.w	r2, [r3, #1540]	; 0x604
 800285a:	f042 0280 	orr.w	r2, r2, #128	; 0x80
 800285e:	f8c3 2604 	str.w	r2, [r3, #1540]	; 0x604
		if(filter_arg.fifo == FifoIndex::fifo0)
 8002862:	9a1e      	ldr	r2, [sp, #120]	; 0x78
 8002864:	6892      	ldr	r2, [r2, #8]
 8002866:	2a00      	cmp	r2, #0
 8002868:	f040 8181 	bne.w	8002b6e <_ZN6CRSLib3Can6RM000813FilterManager18config_filter_bankIJLNS0_11FilterWidthE0ELS4_0ELS4_0ELS4_0ELS4_0ELS4_0ELS4_0ELS4_0ELS4_0ELS4_0ELS4_0ELS4_0ELS4_0ELS4_0EEJLNS0_10FilterModeE1ELS5_1ELS5_1ELS5_1ELS5_1ELS5_1ELS5_1ELS5_1ELS5_1ELS5_1ELS5_1ELS5_1ELS5_1ELS5_1EEEEvhDpRNS2_15ConfigFilterArgIXT_EXT0_EEE+0x63a>
		bit = bit & ~reg;
 800286c:	f8d3 2614 	ldr.w	r2, [r3, #1556]	; 0x614
 8002870:	f022 0280 	bic.w	r2, r2, #128	; 0x80
		bit = bit | reg;
 8002874:	f8c3 2614 	str.w	r2, [r3, #1556]	; 0x614
		if(filter_arg.activate)
 8002878:	9a1e      	ldr	r2, [sp, #120]	; 0x78
 800287a:	7c12      	ldrb	r2, [r2, #16]
 800287c:	2a00      	cmp	r2, #0
 800287e:	f000 817b 	beq.w	8002b78 <_ZN6CRSLib3Can6RM000813FilterManager18config_filter_bankIJLNS0_11FilterWidthE0ELS4_0ELS4_0ELS4_0ELS4_0ELS4_0ELS4_0ELS4_0ELS4_0ELS4_0ELS4_0ELS4_0ELS4_0ELS4_0EEJLNS0_10FilterModeE1ELS5_1ELS5_1ELS5_1ELS5_1ELS5_1ELS5_1ELS5_1ELS5_1ELS5_1ELS5_1ELS5_1ELS5_1ELS5_1EEEEvhDpRNS2_15ConfigFilterArgIXT_EXT0_EEE+0x644>
 8002882:	f8d3 261c 	ldr.w	r2, [r3, #1564]	; 0x61c
 8002886:	f042 0280 	orr.w	r2, r2, #128	; 0x80
		bit = bit & ~reg;
 800288a:	f8c3 261c 	str.w	r2, [r3, #1564]	; 0x61c
		std::memcpy(tmp_buffer, &filter_arg.filter, 8);
 800288e:	9a1f      	ldr	r2, [sp, #124]	; 0x7c
 8002890:	ab0e      	add	r3, sp, #56	; 0x38
 8002892:	6810      	ldr	r0, [r2, #0]
 8002894:	6851      	ldr	r1, [r2, #4]
 8002896:	c303      	stmia	r3!, {r0, r1}
		bxcan->sFilterRegister[index].FR1 = tmp_buffer[0];
 8002898:	4b0f      	ldr	r3, [pc, #60]	; (80028d8 <_ZN6CRSLib3Can6RM000813FilterManager18config_filter_bankIJLNS0_11FilterWidthE0ELS4_0ELS4_0ELS4_0ELS4_0ELS4_0ELS4_0ELS4_0ELS4_0ELS4_0ELS4_0ELS4_0ELS4_0ELS4_0EEJLNS0_10FilterModeE1ELS5_1ELS5_1ELS5_1ELS5_1ELS5_1ELS5_1ELS5_1ELS5_1ELS5_1ELS5_1ELS5_1ELS5_1ELS5_1EEEEvhDpRNS2_15ConfigFilterArgIXT_EXT0_EEE+0x3a4>)
 800289a:	f8c3 0280 	str.w	r0, [r3, #640]	; 0x280
		bxcan->sFilterRegister[index].FR2 = tmp_buffer[1];
 800289e:	9a0f      	ldr	r2, [sp, #60]	; 0x3c
		bit = bit | reg;
 80028a0:	f5a3 6380 	sub.w	r3, r3, #1024	; 0x400
 80028a4:	f8c3 2684 	str.w	r2, [r3, #1668]	; 0x684
 80028a8:	f8d3 260c 	ldr.w	r2, [r3, #1548]	; 0x60c
 80028ac:	f442 7280 	orr.w	r2, r2, #256	; 0x100
 80028b0:	f8c3 260c 	str.w	r2, [r3, #1548]	; 0x60c
 80028b4:	f8d3 2604 	ldr.w	r2, [r3, #1540]	; 0x604
 80028b8:	f442 7280 	orr.w	r2, r2, #256	; 0x100
 80028bc:	f8c3 2604 	str.w	r2, [r3, #1540]	; 0x604
		if(filter_arg.fifo == FifoIndex::fifo0)
 80028c0:	9a1f      	ldr	r2, [sp, #124]	; 0x7c
 80028c2:	6892      	ldr	r2, [r2, #8]
 80028c4:	2a00      	cmp	r2, #0
 80028c6:	f040 815c 	bne.w	8002b82 <_ZN6CRSLib3Can6RM000813FilterManager18config_filter_bankIJLNS0_11FilterWidthE0ELS4_0ELS4_0ELS4_0ELS4_0ELS4_0ELS4_0ELS4_0ELS4_0ELS4_0ELS4_0ELS4_0ELS4_0ELS4_0EEJLNS0_10FilterModeE1ELS5_1ELS5_1ELS5_1ELS5_1ELS5_1ELS5_1ELS5_1ELS5_1ELS5_1ELS5_1ELS5_1ELS5_1ELS5_1EEEEvhDpRNS2_15ConfigFilterArgIXT_EXT0_EEE+0x64e>
		bit = bit & ~reg;
 80028ca:	f8d3 2614 	ldr.w	r2, [r3, #1556]	; 0x614
 80028ce:	f422 7280 	bic.w	r2, r2, #256	; 0x100
 80028d2:	e003      	b.n	80028dc <_ZN6CRSLib3Can6RM000813FilterManager18config_filter_bankIJLNS0_11FilterWidthE0ELS4_0ELS4_0ELS4_0ELS4_0ELS4_0ELS4_0ELS4_0ELS4_0ELS4_0ELS4_0ELS4_0ELS4_0ELS4_0EEJLNS0_10FilterModeE1ELS5_1ELS5_1ELS5_1ELS5_1ELS5_1ELS5_1ELS5_1ELS5_1ELS5_1ELS5_1ELS5_1ELS5_1ELS5_1EEEEvhDpRNS2_15ConfigFilterArgIXT_EXT0_EEE+0x3a8>
 80028d4:	40006000 	.word	0x40006000
 80028d8:	40006400 	.word	0x40006400
		bit = bit | reg;
 80028dc:	f8c3 2614 	str.w	r2, [r3, #1556]	; 0x614
		if(filter_arg.activate)
 80028e0:	9a1f      	ldr	r2, [sp, #124]	; 0x7c
 80028e2:	7c12      	ldrb	r2, [r2, #16]
 80028e4:	2a00      	cmp	r2, #0
 80028e6:	f000 8151 	beq.w	8002b8c <_ZN6CRSLib3Can6RM000813FilterManager18config_filter_bankIJLNS0_11FilterWidthE0ELS4_0ELS4_0ELS4_0ELS4_0ELS4_0ELS4_0ELS4_0ELS4_0ELS4_0ELS4_0ELS4_0ELS4_0ELS4_0EEJLNS0_10FilterModeE1ELS5_1ELS5_1ELS5_1ELS5_1ELS5_1ELS5_1ELS5_1ELS5_1ELS5_1ELS5_1ELS5_1ELS5_1ELS5_1EEEEvhDpRNS2_15ConfigFilterArgIXT_EXT0_EEE+0x658>
 80028ea:	f8d3 261c 	ldr.w	r2, [r3, #1564]	; 0x61c
 80028ee:	f442 7280 	orr.w	r2, r2, #256	; 0x100
		bit = bit & ~reg;
 80028f2:	f8c3 261c 	str.w	r2, [r3, #1564]	; 0x61c
		std::memcpy(tmp_buffer, &filter_arg.filter, 8);
 80028f6:	f8db 0000 	ldr.w	r0, [fp]
 80028fa:	f8db 1004 	ldr.w	r1, [fp, #4]
 80028fe:	ab0e      	add	r3, sp, #56	; 0x38
 8002900:	c303      	stmia	r3!, {r0, r1}
		bxcan->sFilterRegister[index].FR1 = tmp_buffer[0];
 8002902:	4bbe      	ldr	r3, [pc, #760]	; (8002bfc <_ZN6CRSLib3Can6RM000813FilterManager18config_filter_bankIJLNS0_11FilterWidthE0ELS4_0ELS4_0ELS4_0ELS4_0ELS4_0ELS4_0ELS4_0ELS4_0ELS4_0ELS4_0ELS4_0ELS4_0ELS4_0EEJLNS0_10FilterModeE1ELS5_1ELS5_1ELS5_1ELS5_1ELS5_1ELS5_1ELS5_1ELS5_1ELS5_1ELS5_1ELS5_1ELS5_1ELS5_1EEEEvhDpRNS2_15ConfigFilterArgIXT_EXT0_EEE+0x6c8>)
 8002904:	f8c3 0288 	str.w	r0, [r3, #648]	; 0x288
		bxcan->sFilterRegister[index].FR2 = tmp_buffer[1];
 8002908:	9a0f      	ldr	r2, [sp, #60]	; 0x3c
		bit = bit | reg;
 800290a:	f5a3 6380 	sub.w	r3, r3, #1024	; 0x400
 800290e:	f8c3 268c 	str.w	r2, [r3, #1676]	; 0x68c
 8002912:	f8d3 260c 	ldr.w	r2, [r3, #1548]	; 0x60c
 8002916:	f442 7200 	orr.w	r2, r2, #512	; 0x200
 800291a:	f8c3 260c 	str.w	r2, [r3, #1548]	; 0x60c
 800291e:	f8d3 2604 	ldr.w	r2, [r3, #1540]	; 0x604
 8002922:	f442 7200 	orr.w	r2, r2, #512	; 0x200
 8002926:	f8c3 2604 	str.w	r2, [r3, #1540]	; 0x604
		if(filter_arg.fifo == FifoIndex::fifo0)
 800292a:	f8db 2008 	ldr.w	r2, [fp, #8]
 800292e:	2a00      	cmp	r2, #0
 8002930:	f040 8131 	bne.w	8002b96 <_ZN6CRSLib3Can6RM000813FilterManager18config_filter_bankIJLNS0_11FilterWidthE0ELS4_0ELS4_0ELS4_0ELS4_0ELS4_0ELS4_0ELS4_0ELS4_0ELS4_0ELS4_0ELS4_0ELS4_0ELS4_0EEJLNS0_10FilterModeE1ELS5_1ELS5_1ELS5_1ELS5_1ELS5_1ELS5_1ELS5_1ELS5_1ELS5_1ELS5_1ELS5_1ELS5_1ELS5_1EEEEvhDpRNS2_15ConfigFilterArgIXT_EXT0_EEE+0x662>
		bit = bit & ~reg;
 8002934:	f8d3 2614 	ldr.w	r2, [r3, #1556]	; 0x614
 8002938:	f422 7200 	bic.w	r2, r2, #512	; 0x200
		bit = bit | reg;
 800293c:	f8c3 2614 	str.w	r2, [r3, #1556]	; 0x614
		if(filter_arg.activate)
 8002940:	f89b 2010 	ldrb.w	r2, [fp, #16]
 8002944:	2a00      	cmp	r2, #0
 8002946:	f000 812b 	beq.w	8002ba0 <_ZN6CRSLib3Can6RM000813FilterManager18config_filter_bankIJLNS0_11FilterWidthE0ELS4_0ELS4_0ELS4_0ELS4_0ELS4_0ELS4_0ELS4_0ELS4_0ELS4_0ELS4_0ELS4_0ELS4_0ELS4_0EEJLNS0_10FilterModeE1ELS5_1ELS5_1ELS5_1ELS5_1ELS5_1ELS5_1ELS5_1ELS5_1ELS5_1ELS5_1ELS5_1ELS5_1ELS5_1EEEEvhDpRNS2_15ConfigFilterArgIXT_EXT0_EEE+0x66c>
 800294a:	f8d3 261c 	ldr.w	r2, [r3, #1564]	; 0x61c
 800294e:	f442 7200 	orr.w	r2, r2, #512	; 0x200
		bit = bit & ~reg;
 8002952:	f8c3 261c 	str.w	r2, [r3, #1564]	; 0x61c
		std::memcpy(tmp_buffer, &filter_arg.filter, 8);
 8002956:	f8da 0000 	ldr.w	r0, [sl]
 800295a:	f8da 1004 	ldr.w	r1, [sl, #4]
 800295e:	ab0e      	add	r3, sp, #56	; 0x38
 8002960:	c303      	stmia	r3!, {r0, r1}
		bxcan->sFilterRegister[index].FR1 = tmp_buffer[0];
 8002962:	4ba6      	ldr	r3, [pc, #664]	; (8002bfc <_ZN6CRSLib3Can6RM000813FilterManager18config_filter_bankIJLNS0_11FilterWidthE0ELS4_0ELS4_0ELS4_0ELS4_0ELS4_0ELS4_0ELS4_0ELS4_0ELS4_0ELS4_0ELS4_0ELS4_0ELS4_0EEJLNS0_10FilterModeE1ELS5_1ELS5_1ELS5_1ELS5_1ELS5_1ELS5_1ELS5_1ELS5_1ELS5_1ELS5_1ELS5_1ELS5_1ELS5_1EEEEvhDpRNS2_15ConfigFilterArgIXT_EXT0_EEE+0x6c8>)
 8002964:	f8c3 0290 	str.w	r0, [r3, #656]	; 0x290
		bxcan->sFilterRegister[index].FR2 = tmp_buffer[1];
 8002968:	9a0f      	ldr	r2, [sp, #60]	; 0x3c
		bit = bit | reg;
 800296a:	f5a3 6380 	sub.w	r3, r3, #1024	; 0x400
 800296e:	f8c3 2694 	str.w	r2, [r3, #1684]	; 0x694
 8002972:	f8d3 260c 	ldr.w	r2, [r3, #1548]	; 0x60c
 8002976:	f442 6280 	orr.w	r2, r2, #1024	; 0x400
 800297a:	f8c3 260c 	str.w	r2, [r3, #1548]	; 0x60c
 800297e:	f8d3 2604 	ldr.w	r2, [r3, #1540]	; 0x604
 8002982:	f442 6280 	orr.w	r2, r2, #1024	; 0x400
 8002986:	f8c3 2604 	str.w	r2, [r3, #1540]	; 0x604
		if(filter_arg.fifo == FifoIndex::fifo0)
 800298a:	f8da 2008 	ldr.w	r2, [sl, #8]
 800298e:	2a00      	cmp	r2, #0
 8002990:	f040 810b 	bne.w	8002baa <_ZN6CRSLib3Can6RM000813FilterManager18config_filter_bankIJLNS0_11FilterWidthE0ELS4_0ELS4_0ELS4_0ELS4_0ELS4_0ELS4_0ELS4_0ELS4_0ELS4_0ELS4_0ELS4_0ELS4_0ELS4_0EEJLNS0_10FilterModeE1ELS5_1ELS5_1ELS5_1ELS5_1ELS5_1ELS5_1ELS5_1ELS5_1ELS5_1ELS5_1ELS5_1ELS5_1ELS5_1EEEEvhDpRNS2_15ConfigFilterArgIXT_EXT0_EEE+0x676>
		bit = bit & ~reg;
 8002994:	f8d3 2614 	ldr.w	r2, [r3, #1556]	; 0x614
 8002998:	f422 6280 	bic.w	r2, r2, #1024	; 0x400
		bit = bit | reg;
 800299c:	f8c3 2614 	str.w	r2, [r3, #1556]	; 0x614
		if(filter_arg.activate)
 80029a0:	f89a 2010 	ldrb.w	r2, [sl, #16]
 80029a4:	2a00      	cmp	r2, #0
 80029a6:	f000 8105 	beq.w	8002bb4 <_ZN6CRSLib3Can6RM000813FilterManager18config_filter_bankIJLNS0_11FilterWidthE0ELS4_0ELS4_0ELS4_0ELS4_0ELS4_0ELS4_0ELS4_0ELS4_0ELS4_0ELS4_0ELS4_0ELS4_0ELS4_0EEJLNS0_10FilterModeE1ELS5_1ELS5_1ELS5_1ELS5_1ELS5_1ELS5_1ELS5_1ELS5_1ELS5_1ELS5_1ELS5_1ELS5_1ELS5_1EEEEvhDpRNS2_15ConfigFilterArgIXT_EXT0_EEE+0x680>
 80029aa:	f8d3 261c 	ldr.w	r2, [r3, #1564]	; 0x61c
 80029ae:	f442 6280 	orr.w	r2, r2, #1024	; 0x400
		bit = bit & ~reg;
 80029b2:	f8c3 261c 	str.w	r2, [r3, #1564]	; 0x61c
		std::memcpy(tmp_buffer, &filter_arg.filter, 8);
 80029b6:	f8d9 0000 	ldr.w	r0, [r9]
 80029ba:	f8d9 1004 	ldr.w	r1, [r9, #4]
 80029be:	ab0e      	add	r3, sp, #56	; 0x38
 80029c0:	c303      	stmia	r3!, {r0, r1}
		bxcan->sFilterRegister[index].FR1 = tmp_buffer[0];
 80029c2:	4b8e      	ldr	r3, [pc, #568]	; (8002bfc <_ZN6CRSLib3Can6RM000813FilterManager18config_filter_bankIJLNS0_11FilterWidthE0ELS4_0ELS4_0ELS4_0ELS4_0ELS4_0ELS4_0ELS4_0ELS4_0ELS4_0ELS4_0ELS4_0ELS4_0ELS4_0EEJLNS0_10FilterModeE1ELS5_1ELS5_1ELS5_1ELS5_1ELS5_1ELS5_1ELS5_1ELS5_1ELS5_1ELS5_1ELS5_1ELS5_1ELS5_1EEEEvhDpRNS2_15ConfigFilterArgIXT_EXT0_EEE+0x6c8>)
 80029c4:	f8c3 0298 	str.w	r0, [r3, #664]	; 0x298
		bxcan->sFilterRegister[index].FR2 = tmp_buffer[1];
 80029c8:	9a0f      	ldr	r2, [sp, #60]	; 0x3c
		bit = bit | reg;
 80029ca:	f5a3 6380 	sub.w	r3, r3, #1024	; 0x400
 80029ce:	f8c3 269c 	str.w	r2, [r3, #1692]	; 0x69c
 80029d2:	f8d3 260c 	ldr.w	r2, [r3, #1548]	; 0x60c
 80029d6:	f442 6200 	orr.w	r2, r2, #2048	; 0x800
 80029da:	f8c3 260c 	str.w	r2, [r3, #1548]	; 0x60c
 80029de:	f8d3 2604 	ldr.w	r2, [r3, #1540]	; 0x604
 80029e2:	f442 6200 	orr.w	r2, r2, #2048	; 0x800
 80029e6:	f8c3 2604 	str.w	r2, [r3, #1540]	; 0x604
		if(filter_arg.fifo == FifoIndex::fifo0)
 80029ea:	f8d9 2008 	ldr.w	r2, [r9, #8]
 80029ee:	2a00      	cmp	r2, #0
 80029f0:	f040 80e5 	bne.w	8002bbe <_ZN6CRSLib3Can6RM000813FilterManager18config_filter_bankIJLNS0_11FilterWidthE0ELS4_0ELS4_0ELS4_0ELS4_0ELS4_0ELS4_0ELS4_0ELS4_0ELS4_0ELS4_0ELS4_0ELS4_0ELS4_0EEJLNS0_10FilterModeE1ELS5_1ELS5_1ELS5_1ELS5_1ELS5_1ELS5_1ELS5_1ELS5_1ELS5_1ELS5_1ELS5_1ELS5_1ELS5_1EEEEvhDpRNS2_15ConfigFilterArgIXT_EXT0_EEE+0x68a>
		bit = bit & ~reg;
 80029f4:	f8d3 2614 	ldr.w	r2, [r3, #1556]	; 0x614
 80029f8:	f422 6200 	bic.w	r2, r2, #2048	; 0x800
		bit = bit | reg;
 80029fc:	f8c3 2614 	str.w	r2, [r3, #1556]	; 0x614
		if(filter_arg.activate)
 8002a00:	f899 2010 	ldrb.w	r2, [r9, #16]
 8002a04:	2a00      	cmp	r2, #0
 8002a06:	f000 80df 	beq.w	8002bc8 <_ZN6CRSLib3Can6RM000813FilterManager18config_filter_bankIJLNS0_11FilterWidthE0ELS4_0ELS4_0ELS4_0ELS4_0ELS4_0ELS4_0ELS4_0ELS4_0ELS4_0ELS4_0ELS4_0ELS4_0ELS4_0EEJLNS0_10FilterModeE1ELS5_1ELS5_1ELS5_1ELS5_1ELS5_1ELS5_1ELS5_1ELS5_1ELS5_1ELS5_1ELS5_1ELS5_1ELS5_1EEEEvhDpRNS2_15ConfigFilterArgIXT_EXT0_EEE+0x694>
 8002a0a:	f8d3 261c 	ldr.w	r2, [r3, #1564]	; 0x61c
 8002a0e:	f442 6200 	orr.w	r2, r2, #2048	; 0x800
		bit = bit & ~reg;
 8002a12:	f8c3 261c 	str.w	r2, [r3, #1564]	; 0x61c
		std::memcpy(tmp_buffer, &filter_arg.filter, 8);
 8002a16:	f8d8 0000 	ldr.w	r0, [r8]
 8002a1a:	f8d8 1004 	ldr.w	r1, [r8, #4]
 8002a1e:	ab0e      	add	r3, sp, #56	; 0x38
 8002a20:	c303      	stmia	r3!, {r0, r1}
		bxcan->sFilterRegister[index].FR1 = tmp_buffer[0];
 8002a22:	4b76      	ldr	r3, [pc, #472]	; (8002bfc <_ZN6CRSLib3Can6RM000813FilterManager18config_filter_bankIJLNS0_11FilterWidthE0ELS4_0ELS4_0ELS4_0ELS4_0ELS4_0ELS4_0ELS4_0ELS4_0ELS4_0ELS4_0ELS4_0ELS4_0ELS4_0EEJLNS0_10FilterModeE1ELS5_1ELS5_1ELS5_1ELS5_1ELS5_1ELS5_1ELS5_1ELS5_1ELS5_1ELS5_1ELS5_1ELS5_1ELS5_1EEEEvhDpRNS2_15ConfigFilterArgIXT_EXT0_EEE+0x6c8>)
 8002a24:	f8c3 02a0 	str.w	r0, [r3, #672]	; 0x2a0
		bxcan->sFilterRegister[index].FR2 = tmp_buffer[1];
 8002a28:	9a0f      	ldr	r2, [sp, #60]	; 0x3c
		bit = bit | reg;
 8002a2a:	f5a3 6380 	sub.w	r3, r3, #1024	; 0x400
 8002a2e:	f8c3 26a4 	str.w	r2, [r3, #1700]	; 0x6a4
 8002a32:	f8d3 260c 	ldr.w	r2, [r3, #1548]	; 0x60c
 8002a36:	f442 5280 	orr.w	r2, r2, #4096	; 0x1000
 8002a3a:	f8c3 260c 	str.w	r2, [r3, #1548]	; 0x60c
 8002a3e:	f8d3 2604 	ldr.w	r2, [r3, #1540]	; 0x604
 8002a42:	f442 5280 	orr.w	r2, r2, #4096	; 0x1000
 8002a46:	f8c3 2604 	str.w	r2, [r3, #1540]	; 0x604
		if(filter_arg.fifo == FifoIndex::fifo0)
 8002a4a:	f8d8 2008 	ldr.w	r2, [r8, #8]
 8002a4e:	2a00      	cmp	r2, #0
 8002a50:	f040 80bf 	bne.w	8002bd2 <_ZN6CRSLib3Can6RM000813FilterManager18config_filter_bankIJLNS0_11FilterWidthE0ELS4_0ELS4_0ELS4_0ELS4_0ELS4_0ELS4_0ELS4_0ELS4_0ELS4_0ELS4_0ELS4_0ELS4_0ELS4_0EEJLNS0_10FilterModeE1ELS5_1ELS5_1ELS5_1ELS5_1ELS5_1ELS5_1ELS5_1ELS5_1ELS5_1ELS5_1ELS5_1ELS5_1ELS5_1EEEEvhDpRNS2_15ConfigFilterArgIXT_EXT0_EEE+0x69e>
		bit = bit & ~reg;
 8002a54:	f8d3 2614 	ldr.w	r2, [r3, #1556]	; 0x614
 8002a58:	f422 5280 	bic.w	r2, r2, #4096	; 0x1000
		bit = bit | reg;
 8002a5c:	f8c3 2614 	str.w	r2, [r3, #1556]	; 0x614
		if(filter_arg.activate)
 8002a60:	f898 2010 	ldrb.w	r2, [r8, #16]
 8002a64:	2a00      	cmp	r2, #0
 8002a66:	f000 80b9 	beq.w	8002bdc <_ZN6CRSLib3Can6RM000813FilterManager18config_filter_bankIJLNS0_11FilterWidthE0ELS4_0ELS4_0ELS4_0ELS4_0ELS4_0ELS4_0ELS4_0ELS4_0ELS4_0ELS4_0ELS4_0ELS4_0ELS4_0EEJLNS0_10FilterModeE1ELS5_1ELS5_1ELS5_1ELS5_1ELS5_1ELS5_1ELS5_1ELS5_1ELS5_1ELS5_1ELS5_1ELS5_1ELS5_1EEEEvhDpRNS2_15ConfigFilterArgIXT_EXT0_EEE+0x6a8>
 8002a6a:	f8d3 261c 	ldr.w	r2, [r3, #1564]	; 0x61c
 8002a6e:	f442 5280 	orr.w	r2, r2, #4096	; 0x1000
		bit = bit & ~reg;
 8002a72:	f8c3 261c 	str.w	r2, [r3, #1564]	; 0x61c
		std::memcpy(tmp_buffer, &filter_arg.filter, 8);
 8002a76:	6838      	ldr	r0, [r7, #0]
 8002a78:	6879      	ldr	r1, [r7, #4]
 8002a7a:	ab0e      	add	r3, sp, #56	; 0x38
 8002a7c:	c303      	stmia	r3!, {r0, r1}
		bxcan->sFilterRegister[index].FR1 = tmp_buffer[0];
 8002a7e:	4b5f      	ldr	r3, [pc, #380]	; (8002bfc <_ZN6CRSLib3Can6RM000813FilterManager18config_filter_bankIJLNS0_11FilterWidthE0ELS4_0ELS4_0ELS4_0ELS4_0ELS4_0ELS4_0ELS4_0ELS4_0ELS4_0ELS4_0ELS4_0ELS4_0ELS4_0EEJLNS0_10FilterModeE1ELS5_1ELS5_1ELS5_1ELS5_1ELS5_1ELS5_1ELS5_1ELS5_1ELS5_1ELS5_1ELS5_1ELS5_1ELS5_1EEEEvhDpRNS2_15ConfigFilterArgIXT_EXT0_EEE+0x6c8>)
 8002a80:	f8c3 02a8 	str.w	r0, [r3, #680]	; 0x2a8
		bxcan->sFilterRegister[index].FR2 = tmp_buffer[1];
 8002a84:	9a0f      	ldr	r2, [sp, #60]	; 0x3c
		bit = bit | reg;
 8002a86:	f5a3 6380 	sub.w	r3, r3, #1024	; 0x400
 8002a8a:	f8c3 26ac 	str.w	r2, [r3, #1708]	; 0x6ac
 8002a8e:	f8d3 260c 	ldr.w	r2, [r3, #1548]	; 0x60c
 8002a92:	f442 5200 	orr.w	r2, r2, #8192	; 0x2000
 8002a96:	f8c3 260c 	str.w	r2, [r3, #1548]	; 0x60c
 8002a9a:	f8d3 2604 	ldr.w	r2, [r3, #1540]	; 0x604
 8002a9e:	f442 5200 	orr.w	r2, r2, #8192	; 0x2000
 8002aa2:	f8c3 2604 	str.w	r2, [r3, #1540]	; 0x604
		if(filter_arg.fifo == FifoIndex::fifo0)
 8002aa6:	68ba      	ldr	r2, [r7, #8]
 8002aa8:	2a00      	cmp	r2, #0
 8002aaa:	f040 809c 	bne.w	8002be6 <_ZN6CRSLib3Can6RM000813FilterManager18config_filter_bankIJLNS0_11FilterWidthE0ELS4_0ELS4_0ELS4_0ELS4_0ELS4_0ELS4_0ELS4_0ELS4_0ELS4_0ELS4_0ELS4_0ELS4_0ELS4_0EEJLNS0_10FilterModeE1ELS5_1ELS5_1ELS5_1ELS5_1ELS5_1ELS5_1ELS5_1ELS5_1ELS5_1ELS5_1ELS5_1ELS5_1ELS5_1EEEEvhDpRNS2_15ConfigFilterArgIXT_EXT0_EEE+0x6b2>
		bit = bit & ~reg;
 8002aae:	f8d3 2614 	ldr.w	r2, [r3, #1556]	; 0x614
 8002ab2:	f422 5200 	bic.w	r2, r2, #8192	; 0x2000
		bit = bit | reg;
 8002ab6:	f8c3 2614 	str.w	r2, [r3, #1556]	; 0x614
		if(filter_arg.activate)
 8002aba:	7c3a      	ldrb	r2, [r7, #16]
 8002abc:	2a00      	cmp	r2, #0
 8002abe:	f000 8097 	beq.w	8002bf0 <_ZN6CRSLib3Can6RM000813FilterManager18config_filter_bankIJLNS0_11FilterWidthE0ELS4_0ELS4_0ELS4_0ELS4_0ELS4_0ELS4_0ELS4_0ELS4_0ELS4_0ELS4_0ELS4_0ELS4_0ELS4_0EEJLNS0_10FilterModeE1ELS5_1ELS5_1ELS5_1ELS5_1ELS5_1ELS5_1ELS5_1ELS5_1ELS5_1ELS5_1ELS5_1ELS5_1ELS5_1EEEEvhDpRNS2_15ConfigFilterArgIXT_EXT0_EEE+0x6bc>
 8002ac2:	f8d3 261c 	ldr.w	r2, [r3, #1564]	; 0x61c
 8002ac6:	f442 5200 	orr.w	r2, r2, #8192	; 0x2000
		bit = bit & ~reg;
 8002aca:	f8c3 261c 	str.w	r2, [r3, #1564]	; 0x61c
 8002ace:	4a4c      	ldr	r2, [pc, #304]	; (8002c00 <_ZN6CRSLib3Can6RM000813FilterManager18config_filter_bankIJLNS0_11FilterWidthE0ELS4_0ELS4_0ELS4_0ELS4_0ELS4_0ELS4_0ELS4_0ELS4_0ELS4_0ELS4_0ELS4_0ELS4_0ELS4_0EEJLNS0_10FilterModeE1ELS5_1ELS5_1ELS5_1ELS5_1ELS5_1ELS5_1ELS5_1ELS5_1ELS5_1ELS5_1ELS5_1ELS5_1ELS5_1EEEEvhDpRNS2_15ConfigFilterArgIXT_EXT0_EEE+0x6cc>)
 8002ad0:	f8d2 3600 	ldr.w	r3, [r2, #1536]	; 0x600
 8002ad4:	f023 0301 	bic.w	r3, r3, #1
 8002ad8:	f8c2 3600 	str.w	r3, [r2, #1536]	; 0x600
			(per_filter_arg<indices>(bxcan1, filter_args), ...);
		}(std::make_integer_sequence<u8, sizeof...(filter_widthes)>(), filter_args ...);

		// clear FINIT
		clear_bit(bxcan1->FMR, CAN_FMR_FINIT);
	}
 8002adc:	b011      	add	sp, #68	; 0x44
 8002ade:	e8bd 8ff0 	ldmia.w	sp!, {r4, r5, r6, r7, r8, r9, sl, fp, pc}
		bit = bit | reg;
 8002ae2:	f8d3 2614 	ldr.w	r2, [r3, #1556]	; 0x614
 8002ae6:	f042 0201 	orr.w	r2, r2, #1
 8002aea:	e581      	b.n	80025f0 <_ZN6CRSLib3Can6RM000813FilterManager18config_filter_bankIJLNS0_11FilterWidthE0ELS4_0ELS4_0ELS4_0ELS4_0ELS4_0ELS4_0ELS4_0ELS4_0ELS4_0ELS4_0ELS4_0ELS4_0ELS4_0EEJLNS0_10FilterModeE1ELS5_1ELS5_1ELS5_1ELS5_1ELS5_1ELS5_1ELS5_1ELS5_1ELS5_1ELS5_1ELS5_1ELS5_1ELS5_1EEEEvhDpRNS2_15ConfigFilterArgIXT_EXT0_EEE+0xbc>
		bit = bit & ~reg;
 8002aec:	f8d3 261c 	ldr.w	r2, [r3, #1564]	; 0x61c
 8002af0:	f022 0201 	bic.w	r2, r2, #1
 8002af4:	e586      	b.n	8002604 <_ZN6CRSLib3Can6RM000813FilterManager18config_filter_bankIJLNS0_11FilterWidthE0ELS4_0ELS4_0ELS4_0ELS4_0ELS4_0ELS4_0ELS4_0ELS4_0ELS4_0ELS4_0ELS4_0ELS4_0ELS4_0EEJLNS0_10FilterModeE1ELS5_1ELS5_1ELS5_1ELS5_1ELS5_1ELS5_1ELS5_1ELS5_1ELS5_1ELS5_1ELS5_1ELS5_1ELS5_1EEEEvhDpRNS2_15ConfigFilterArgIXT_EXT0_EEE+0xd0>
		bit = bit | reg;
 8002af6:	f8d3 2614 	ldr.w	r2, [r3, #1556]	; 0x614
 8002afa:	f042 0202 	orr.w	r2, r2, #2
 8002afe:	e5a3      	b.n	8002648 <_ZN6CRSLib3Can6RM000813FilterManager18config_filter_bankIJLNS0_11FilterWidthE0ELS4_0ELS4_0ELS4_0ELS4_0ELS4_0ELS4_0ELS4_0ELS4_0ELS4_0ELS4_0ELS4_0ELS4_0ELS4_0EEJLNS0_10FilterModeE1ELS5_1ELS5_1ELS5_1ELS5_1ELS5_1ELS5_1ELS5_1ELS5_1ELS5_1ELS5_1ELS5_1ELS5_1ELS5_1EEEEvhDpRNS2_15ConfigFilterArgIXT_EXT0_EEE+0x114>
		bit = bit & ~reg;
 8002b00:	f8d3 261c 	ldr.w	r2, [r3, #1564]	; 0x61c
 8002b04:	f022 0202 	bic.w	r2, r2, #2
 8002b08:	e5a8      	b.n	800265c <_ZN6CRSLib3Can6RM000813FilterManager18config_filter_bankIJLNS0_11FilterWidthE0ELS4_0ELS4_0ELS4_0ELS4_0ELS4_0ELS4_0ELS4_0ELS4_0ELS4_0ELS4_0ELS4_0ELS4_0ELS4_0EEJLNS0_10FilterModeE1ELS5_1ELS5_1ELS5_1ELS5_1ELS5_1ELS5_1ELS5_1ELS5_1ELS5_1ELS5_1ELS5_1ELS5_1ELS5_1EEEEvhDpRNS2_15ConfigFilterArgIXT_EXT0_EEE+0x128>
		bit = bit | reg;
 8002b0a:	f8d3 2614 	ldr.w	r2, [r3, #1556]	; 0x614
 8002b0e:	f042 0204 	orr.w	r2, r2, #4
 8002b12:	e5c5      	b.n	80026a0 <_ZN6CRSLib3Can6RM000813FilterManager18config_filter_bankIJLNS0_11FilterWidthE0ELS4_0ELS4_0ELS4_0ELS4_0ELS4_0ELS4_0ELS4_0ELS4_0ELS4_0ELS4_0ELS4_0ELS4_0ELS4_0EEJLNS0_10FilterModeE1ELS5_1ELS5_1ELS5_1ELS5_1ELS5_1ELS5_1ELS5_1ELS5_1ELS5_1ELS5_1ELS5_1ELS5_1ELS5_1EEEEvhDpRNS2_15ConfigFilterArgIXT_EXT0_EEE+0x16c>
		bit = bit & ~reg;
 8002b14:	f8d3 261c 	ldr.w	r2, [r3, #1564]	; 0x61c
 8002b18:	f022 0204 	bic.w	r2, r2, #4
 8002b1c:	e5ca      	b.n	80026b4 <_ZN6CRSLib3Can6RM000813FilterManager18config_filter_bankIJLNS0_11FilterWidthE0ELS4_0ELS4_0ELS4_0ELS4_0ELS4_0ELS4_0ELS4_0ELS4_0ELS4_0ELS4_0ELS4_0ELS4_0ELS4_0EEJLNS0_10FilterModeE1ELS5_1ELS5_1ELS5_1ELS5_1ELS5_1ELS5_1ELS5_1ELS5_1ELS5_1ELS5_1ELS5_1ELS5_1ELS5_1EEEEvhDpRNS2_15ConfigFilterArgIXT_EXT0_EEE+0x180>
		bit = bit | reg;
 8002b1e:	f8d3 2614 	ldr.w	r2, [r3, #1556]	; 0x614
 8002b22:	f042 0208 	orr.w	r2, r2, #8
 8002b26:	e5e9      	b.n	80026fc <_ZN6CRSLib3Can6RM000813FilterManager18config_filter_bankIJLNS0_11FilterWidthE0ELS4_0ELS4_0ELS4_0ELS4_0ELS4_0ELS4_0ELS4_0ELS4_0ELS4_0ELS4_0ELS4_0ELS4_0ELS4_0EEJLNS0_10FilterModeE1ELS5_1ELS5_1ELS5_1ELS5_1ELS5_1ELS5_1ELS5_1ELS5_1ELS5_1ELS5_1ELS5_1ELS5_1ELS5_1EEEEvhDpRNS2_15ConfigFilterArgIXT_EXT0_EEE+0x1c8>
		bit = bit & ~reg;
 8002b28:	f8d3 261c 	ldr.w	r2, [r3, #1564]	; 0x61c
 8002b2c:	f022 0208 	bic.w	r2, r2, #8
 8002b30:	e5ef      	b.n	8002712 <_ZN6CRSLib3Can6RM000813FilterManager18config_filter_bankIJLNS0_11FilterWidthE0ELS4_0ELS4_0ELS4_0ELS4_0ELS4_0ELS4_0ELS4_0ELS4_0ELS4_0ELS4_0ELS4_0ELS4_0ELS4_0EEJLNS0_10FilterModeE1ELS5_1ELS5_1ELS5_1ELS5_1ELS5_1ELS5_1ELS5_1ELS5_1ELS5_1ELS5_1ELS5_1ELS5_1ELS5_1EEEEvhDpRNS2_15ConfigFilterArgIXT_EXT0_EEE+0x1de>
		bit = bit | reg;
 8002b32:	f8d3 2614 	ldr.w	r2, [r3, #1556]	; 0x614
 8002b36:	f042 0210 	orr.w	r2, r2, #16
 8002b3a:	e60e      	b.n	800275a <_ZN6CRSLib3Can6RM000813FilterManager18config_filter_bankIJLNS0_11FilterWidthE0ELS4_0ELS4_0ELS4_0ELS4_0ELS4_0ELS4_0ELS4_0ELS4_0ELS4_0ELS4_0ELS4_0ELS4_0ELS4_0EEJLNS0_10FilterModeE1ELS5_1ELS5_1ELS5_1ELS5_1ELS5_1ELS5_1ELS5_1ELS5_1ELS5_1ELS5_1ELS5_1ELS5_1ELS5_1EEEEvhDpRNS2_15ConfigFilterArgIXT_EXT0_EEE+0x226>
		bit = bit & ~reg;
 8002b3c:	f8d3 261c 	ldr.w	r2, [r3, #1564]	; 0x61c
 8002b40:	f022 0210 	bic.w	r2, r2, #16
 8002b44:	e614      	b.n	8002770 <_ZN6CRSLib3Can6RM000813FilterManager18config_filter_bankIJLNS0_11FilterWidthE0ELS4_0ELS4_0ELS4_0ELS4_0ELS4_0ELS4_0ELS4_0ELS4_0ELS4_0ELS4_0ELS4_0ELS4_0ELS4_0EEJLNS0_10FilterModeE1ELS5_1ELS5_1ELS5_1ELS5_1ELS5_1ELS5_1ELS5_1ELS5_1ELS5_1ELS5_1ELS5_1ELS5_1ELS5_1EEEEvhDpRNS2_15ConfigFilterArgIXT_EXT0_EEE+0x23c>
		bit = bit | reg;
 8002b46:	f8d3 2614 	ldr.w	r2, [r3, #1556]	; 0x614
 8002b4a:	f042 0220 	orr.w	r2, r2, #32
 8002b4e:	e633      	b.n	80027b8 <_ZN6CRSLib3Can6RM000813FilterManager18config_filter_bankIJLNS0_11FilterWidthE0ELS4_0ELS4_0ELS4_0ELS4_0ELS4_0ELS4_0ELS4_0ELS4_0ELS4_0ELS4_0ELS4_0ELS4_0ELS4_0EEJLNS0_10FilterModeE1ELS5_1ELS5_1ELS5_1ELS5_1ELS5_1ELS5_1ELS5_1ELS5_1ELS5_1ELS5_1ELS5_1ELS5_1ELS5_1EEEEvhDpRNS2_15ConfigFilterArgIXT_EXT0_EEE+0x284>
		bit = bit & ~reg;
 8002b50:	f8d3 261c 	ldr.w	r2, [r3, #1564]	; 0x61c
 8002b54:	f022 0220 	bic.w	r2, r2, #32
 8002b58:	e639      	b.n	80027ce <_ZN6CRSLib3Can6RM000813FilterManager18config_filter_bankIJLNS0_11FilterWidthE0ELS4_0ELS4_0ELS4_0ELS4_0ELS4_0ELS4_0ELS4_0ELS4_0ELS4_0ELS4_0ELS4_0ELS4_0ELS4_0EEJLNS0_10FilterModeE1ELS5_1ELS5_1ELS5_1ELS5_1ELS5_1ELS5_1ELS5_1ELS5_1ELS5_1ELS5_1ELS5_1ELS5_1ELS5_1EEEEvhDpRNS2_15ConfigFilterArgIXT_EXT0_EEE+0x29a>
		bit = bit | reg;
 8002b5a:	f8d3 2614 	ldr.w	r2, [r3, #1556]	; 0x614
 8002b5e:	f042 0240 	orr.w	r2, r2, #64	; 0x40
 8002b62:	e658      	b.n	8002816 <_ZN6CRSLib3Can6RM000813FilterManager18config_filter_bankIJLNS0_11FilterWidthE0ELS4_0ELS4_0ELS4_0ELS4_0ELS4_0ELS4_0ELS4_0ELS4_0ELS4_0ELS4_0ELS4_0ELS4_0ELS4_0EEJLNS0_10FilterModeE1ELS5_1ELS5_1ELS5_1ELS5_1ELS5_1ELS5_1ELS5_1ELS5_1ELS5_1ELS5_1ELS5_1ELS5_1ELS5_1EEEEvhDpRNS2_15ConfigFilterArgIXT_EXT0_EEE+0x2e2>
		bit = bit & ~reg;
 8002b64:	f8d3 261c 	ldr.w	r2, [r3, #1564]	; 0x61c
 8002b68:	f022 0240 	bic.w	r2, r2, #64	; 0x40
 8002b6c:	e65e      	b.n	800282c <_ZN6CRSLib3Can6RM000813FilterManager18config_filter_bankIJLNS0_11FilterWidthE0ELS4_0ELS4_0ELS4_0ELS4_0ELS4_0ELS4_0ELS4_0ELS4_0ELS4_0ELS4_0ELS4_0ELS4_0ELS4_0EEJLNS0_10FilterModeE1ELS5_1ELS5_1ELS5_1ELS5_1ELS5_1ELS5_1ELS5_1ELS5_1ELS5_1ELS5_1ELS5_1ELS5_1ELS5_1EEEEvhDpRNS2_15ConfigFilterArgIXT_EXT0_EEE+0x2f8>
		bit = bit | reg;
 8002b6e:	f8d3 2614 	ldr.w	r2, [r3, #1556]	; 0x614
 8002b72:	f042 0280 	orr.w	r2, r2, #128	; 0x80
 8002b76:	e67d      	b.n	8002874 <_ZN6CRSLib3Can6RM000813FilterManager18config_filter_bankIJLNS0_11FilterWidthE0ELS4_0ELS4_0ELS4_0ELS4_0ELS4_0ELS4_0ELS4_0ELS4_0ELS4_0ELS4_0ELS4_0ELS4_0ELS4_0EEJLNS0_10FilterModeE1ELS5_1ELS5_1ELS5_1ELS5_1ELS5_1ELS5_1ELS5_1ELS5_1ELS5_1ELS5_1ELS5_1ELS5_1ELS5_1EEEEvhDpRNS2_15ConfigFilterArgIXT_EXT0_EEE+0x340>
		bit = bit & ~reg;
 8002b78:	f8d3 261c 	ldr.w	r2, [r3, #1564]	; 0x61c
 8002b7c:	f022 0280 	bic.w	r2, r2, #128	; 0x80
 8002b80:	e683      	b.n	800288a <_ZN6CRSLib3Can6RM000813FilterManager18config_filter_bankIJLNS0_11FilterWidthE0ELS4_0ELS4_0ELS4_0ELS4_0ELS4_0ELS4_0ELS4_0ELS4_0ELS4_0ELS4_0ELS4_0ELS4_0ELS4_0EEJLNS0_10FilterModeE1ELS5_1ELS5_1ELS5_1ELS5_1ELS5_1ELS5_1ELS5_1ELS5_1ELS5_1ELS5_1ELS5_1ELS5_1ELS5_1EEEEvhDpRNS2_15ConfigFilterArgIXT_EXT0_EEE+0x356>
		bit = bit | reg;
 8002b82:	f8d3 2614 	ldr.w	r2, [r3, #1556]	; 0x614
 8002b86:	f442 7280 	orr.w	r2, r2, #256	; 0x100
 8002b8a:	e6a7      	b.n	80028dc <_ZN6CRSLib3Can6RM000813FilterManager18config_filter_bankIJLNS0_11FilterWidthE0ELS4_0ELS4_0ELS4_0ELS4_0ELS4_0ELS4_0ELS4_0ELS4_0ELS4_0ELS4_0ELS4_0ELS4_0ELS4_0EEJLNS0_10FilterModeE1ELS5_1ELS5_1ELS5_1ELS5_1ELS5_1ELS5_1ELS5_1ELS5_1ELS5_1ELS5_1ELS5_1ELS5_1ELS5_1EEEEvhDpRNS2_15ConfigFilterArgIXT_EXT0_EEE+0x3a8>
		bit = bit & ~reg;
 8002b8c:	f8d3 261c 	ldr.w	r2, [r3, #1564]	; 0x61c
 8002b90:	f422 7280 	bic.w	r2, r2, #256	; 0x100
 8002b94:	e6ad      	b.n	80028f2 <_ZN6CRSLib3Can6RM000813FilterManager18config_filter_bankIJLNS0_11FilterWidthE0ELS4_0ELS4_0ELS4_0ELS4_0ELS4_0ELS4_0ELS4_0ELS4_0ELS4_0ELS4_0ELS4_0ELS4_0ELS4_0EEJLNS0_10FilterModeE1ELS5_1ELS5_1ELS5_1ELS5_1ELS5_1ELS5_1ELS5_1ELS5_1ELS5_1ELS5_1ELS5_1ELS5_1ELS5_1EEEEvhDpRNS2_15ConfigFilterArgIXT_EXT0_EEE+0x3be>
		bit = bit | reg;
 8002b96:	f8d3 2614 	ldr.w	r2, [r3, #1556]	; 0x614
 8002b9a:	f442 7200 	orr.w	r2, r2, #512	; 0x200
 8002b9e:	e6cd      	b.n	800293c <_ZN6CRSLib3Can6RM000813FilterManager18config_filter_bankIJLNS0_11FilterWidthE0ELS4_0ELS4_0ELS4_0ELS4_0ELS4_0ELS4_0ELS4_0ELS4_0ELS4_0ELS4_0ELS4_0ELS4_0ELS4_0EEJLNS0_10FilterModeE1ELS5_1ELS5_1ELS5_1ELS5_1ELS5_1ELS5_1ELS5_1ELS5_1ELS5_1ELS5_1ELS5_1ELS5_1ELS5_1EEEEvhDpRNS2_15ConfigFilterArgIXT_EXT0_EEE+0x408>
		bit = bit & ~reg;
 8002ba0:	f8d3 261c 	ldr.w	r2, [r3, #1564]	; 0x61c
 8002ba4:	f422 7200 	bic.w	r2, r2, #512	; 0x200
 8002ba8:	e6d3      	b.n	8002952 <_ZN6CRSLib3Can6RM000813FilterManager18config_filter_bankIJLNS0_11FilterWidthE0ELS4_0ELS4_0ELS4_0ELS4_0ELS4_0ELS4_0ELS4_0ELS4_0ELS4_0ELS4_0ELS4_0ELS4_0ELS4_0EEJLNS0_10FilterModeE1ELS5_1ELS5_1ELS5_1ELS5_1ELS5_1ELS5_1ELS5_1ELS5_1ELS5_1ELS5_1ELS5_1ELS5_1ELS5_1EEEEvhDpRNS2_15ConfigFilterArgIXT_EXT0_EEE+0x41e>
		bit = bit | reg;
 8002baa:	f8d3 2614 	ldr.w	r2, [r3, #1556]	; 0x614
 8002bae:	f442 6280 	orr.w	r2, r2, #1024	; 0x400
 8002bb2:	e6f3      	b.n	800299c <_ZN6CRSLib3Can6RM000813FilterManager18config_filter_bankIJLNS0_11FilterWidthE0ELS4_0ELS4_0ELS4_0ELS4_0ELS4_0ELS4_0ELS4_0ELS4_0ELS4_0ELS4_0ELS4_0ELS4_0ELS4_0EEJLNS0_10FilterModeE1ELS5_1ELS5_1ELS5_1ELS5_1ELS5_1ELS5_1ELS5_1ELS5_1ELS5_1ELS5_1ELS5_1ELS5_1ELS5_1EEEEvhDpRNS2_15ConfigFilterArgIXT_EXT0_EEE+0x468>
		bit = bit & ~reg;
 8002bb4:	f8d3 261c 	ldr.w	r2, [r3, #1564]	; 0x61c
 8002bb8:	f422 6280 	bic.w	r2, r2, #1024	; 0x400
 8002bbc:	e6f9      	b.n	80029b2 <_ZN6CRSLib3Can6RM000813FilterManager18config_filter_bankIJLNS0_11FilterWidthE0ELS4_0ELS4_0ELS4_0ELS4_0ELS4_0ELS4_0ELS4_0ELS4_0ELS4_0ELS4_0ELS4_0ELS4_0ELS4_0EEJLNS0_10FilterModeE1ELS5_1ELS5_1ELS5_1ELS5_1ELS5_1ELS5_1ELS5_1ELS5_1ELS5_1ELS5_1ELS5_1ELS5_1ELS5_1EEEEvhDpRNS2_15ConfigFilterArgIXT_EXT0_EEE+0x47e>
		bit = bit | reg;
 8002bbe:	f8d3 2614 	ldr.w	r2, [r3, #1556]	; 0x614
 8002bc2:	f442 6200 	orr.w	r2, r2, #2048	; 0x800
 8002bc6:	e719      	b.n	80029fc <_ZN6CRSLib3Can6RM000813FilterManager18config_filter_bankIJLNS0_11FilterWidthE0ELS4_0ELS4_0ELS4_0ELS4_0ELS4_0ELS4_0ELS4_0ELS4_0ELS4_0ELS4_0ELS4_0ELS4_0ELS4_0EEJLNS0_10FilterModeE1ELS5_1ELS5_1ELS5_1ELS5_1ELS5_1ELS5_1ELS5_1ELS5_1ELS5_1ELS5_1ELS5_1ELS5_1ELS5_1EEEEvhDpRNS2_15ConfigFilterArgIXT_EXT0_EEE+0x4c8>
		bit = bit & ~reg;
 8002bc8:	f8d3 261c 	ldr.w	r2, [r3, #1564]	; 0x61c
 8002bcc:	f422 6200 	bic.w	r2, r2, #2048	; 0x800
 8002bd0:	e71f      	b.n	8002a12 <_ZN6CRSLib3Can6RM000813FilterManager18config_filter_bankIJLNS0_11FilterWidthE0ELS4_0ELS4_0ELS4_0ELS4_0ELS4_0ELS4_0ELS4_0ELS4_0ELS4_0ELS4_0ELS4_0ELS4_0ELS4_0EEJLNS0_10FilterModeE1ELS5_1ELS5_1ELS5_1ELS5_1ELS5_1ELS5_1ELS5_1ELS5_1ELS5_1ELS5_1ELS5_1ELS5_1ELS5_1EEEEvhDpRNS2_15ConfigFilterArgIXT_EXT0_EEE+0x4de>
		bit = bit | reg;
 8002bd2:	f8d3 2614 	ldr.w	r2, [r3, #1556]	; 0x614
 8002bd6:	f442 5280 	orr.w	r2, r2, #4096	; 0x1000
 8002bda:	e73f      	b.n	8002a5c <_ZN6CRSLib3Can6RM000813FilterManager18config_filter_bankIJLNS0_11FilterWidthE0ELS4_0ELS4_0ELS4_0ELS4_0ELS4_0ELS4_0ELS4_0ELS4_0ELS4_0ELS4_0ELS4_0ELS4_0ELS4_0EEJLNS0_10FilterModeE1ELS5_1ELS5_1ELS5_1ELS5_1ELS5_1ELS5_1ELS5_1ELS5_1ELS5_1ELS5_1ELS5_1ELS5_1ELS5_1EEEEvhDpRNS2_15ConfigFilterArgIXT_EXT0_EEE+0x528>
		bit = bit & ~reg;
 8002bdc:	f8d3 261c 	ldr.w	r2, [r3, #1564]	; 0x61c
 8002be0:	f422 5280 	bic.w	r2, r2, #4096	; 0x1000
 8002be4:	e745      	b.n	8002a72 <_ZN6CRSLib3Can6RM000813FilterManager18config_filter_bankIJLNS0_11FilterWidthE0ELS4_0ELS4_0ELS4_0ELS4_0ELS4_0ELS4_0ELS4_0ELS4_0ELS4_0ELS4_0ELS4_0ELS4_0ELS4_0EEJLNS0_10FilterModeE1ELS5_1ELS5_1ELS5_1ELS5_1ELS5_1ELS5_1ELS5_1ELS5_1ELS5_1ELS5_1ELS5_1ELS5_1ELS5_1EEEEvhDpRNS2_15ConfigFilterArgIXT_EXT0_EEE+0x53e>
		bit = bit | reg;
 8002be6:	f8d3 2614 	ldr.w	r2, [r3, #1556]	; 0x614
 8002bea:	f442 5200 	orr.w	r2, r2, #8192	; 0x2000
 8002bee:	e762      	b.n	8002ab6 <_ZN6CRSLib3Can6RM000813FilterManager18config_filter_bankIJLNS0_11FilterWidthE0ELS4_0ELS4_0ELS4_0ELS4_0ELS4_0ELS4_0ELS4_0ELS4_0ELS4_0ELS4_0ELS4_0ELS4_0ELS4_0EEJLNS0_10FilterModeE1ELS5_1ELS5_1ELS5_1ELS5_1ELS5_1ELS5_1ELS5_1ELS5_1ELS5_1ELS5_1ELS5_1ELS5_1ELS5_1EEEEvhDpRNS2_15ConfigFilterArgIXT_EXT0_EEE+0x582>
		bit = bit & ~reg;
 8002bf0:	f8d3 261c 	ldr.w	r2, [r3, #1564]	; 0x61c
 8002bf4:	f422 5200 	bic.w	r2, r2, #8192	; 0x2000
 8002bf8:	e767      	b.n	8002aca <_ZN6CRSLib3Can6RM000813FilterManager18config_filter_bankIJLNS0_11FilterWidthE0ELS4_0ELS4_0ELS4_0ELS4_0ELS4_0ELS4_0ELS4_0ELS4_0ELS4_0ELS4_0ELS4_0ELS4_0ELS4_0EEJLNS0_10FilterModeE1ELS5_1ELS5_1ELS5_1ELS5_1ELS5_1ELS5_1ELS5_1ELS5_1ELS5_1ELS5_1ELS5_1ELS5_1ELS5_1EEEEvhDpRNS2_15ConfigFilterArgIXT_EXT0_EEE+0x596>
 8002bfa:	bf00      	nop
 8002bfc:	40006400 	.word	0x40006400
 8002c00:	40006000 	.word	0x40006000

08002c04 <_ZN6CRSLib17SafeCircularQueueINS_3Can6RM00087TxFrameELj10EE4pushERKS3_>:
				const auto&& expr = (n + end - begin) % n;
				return expr ? expr : n;
			}
		}

		constexpr void push(const Elem& x) noexcept override
 8002c04:	b530      	push	{r4, r5, lr}
		{
			if(end == n) end = begin;
 8002c06:	e9d0 231d 	ldrd	r2, r3, [r0, #116]	; 0x74

			buffer[end] = x;
 8002c0a:	240b      	movs	r4, #11
			if(end == n) end = begin;
 8002c0c:	2b0a      	cmp	r3, #10
 8002c0e:	bf08      	it	eq
 8002c10:	6782      	streq	r2, [r0, #120]	; 0x78
			buffer[end] = x;
 8002c12:	6f83      	ldr	r3, [r0, #120]	; 0x78
 8002c14:	680d      	ldr	r5, [r1, #0]
			
			if(end == n - 1) end = 0;
 8002c16:	2b09      	cmp	r3, #9
			buffer[end] = x;
 8002c18:	fb04 0403 	mla	r4, r4, r3, r0
			if(end == n - 1) end = 0;
 8002c1c:	bf08      	it	eq
 8002c1e:	2300      	moveq	r3, #0
			buffer[end] = x;
 8002c20:	6065      	str	r5, [r4, #4]
 8002c22:	684d      	ldr	r5, [r1, #4]
			else ++end;
 8002c24:	bf18      	it	ne
 8002c26:	3301      	addne	r3, #1
			buffer[end] = x;
 8002c28:	60a5      	str	r5, [r4, #8]
 8002c2a:	890d      	ldrh	r5, [r1, #8]

			if(begin == end)
 8002c2c:	429a      	cmp	r2, r3
			buffer[end] = x;
 8002c2e:	81a5      	strh	r5, [r4, #12]
 8002c30:	7a89      	ldrb	r1, [r1, #10]
 8002c32:	73a1      	strb	r1, [r4, #14]
 8002c34:	6783      	str	r3, [r0, #120]	; 0x78
			if(begin == end)
 8002c36:	d105      	bne.n	8002c44 <_ZN6CRSLib17SafeCircularQueueINS_3Can6RM00087TxFrameELj10EE4pushERKS3_+0x40>
			{
				if(begin == n - 1) begin = 0;
 8002c38:	2a09      	cmp	r2, #9
 8002c3a:	bf0b      	itete	eq
 8002c3c:	2300      	moveq	r3, #0
				else ++begin;
 8002c3e:	3201      	addne	r2, #1
				if(begin == n - 1) begin = 0;
 8002c40:	6743      	streq	r3, [r0, #116]	; 0x74
				else ++begin;
 8002c42:	6742      	strne	r2, [r0, #116]	; 0x74
			}
		}
 8002c44:	bd30      	pop	{r4, r5, pc}

08002c46 <_ZN6CRSLib17SafeCircularQueueINS_3Can6RM00087RxFrameELj20EE4pushERKS3_>:
		constexpr void push(const Elem& x) noexcept override
 8002c46:	b5f0      	push	{r4, r5, r6, r7, lr}
			if(end == n) end = begin;
 8002c48:	e9d0 c379 	ldrd	ip, r3, [r0, #484]	; 0x1e4
			buffer[end] = x;
 8002c4c:	2418      	movs	r4, #24
			if(end == n) end = begin;
 8002c4e:	2b14      	cmp	r3, #20
 8002c50:	bf08      	it	eq
 8002c52:	f8c0 c1e8 	streq.w	ip, [r0, #488]	; 0x1e8
		constexpr void push(const Elem& x) noexcept override
 8002c56:	460d      	mov	r5, r1
			buffer[end] = x;
 8002c58:	f8d0 71e8 	ldr.w	r7, [r0, #488]	; 0x1e8
		constexpr void push(const Elem& x) noexcept override
 8002c5c:	4606      	mov	r6, r0
			if(end == n - 1) end = 0;
 8002c5e:	2f13      	cmp	r7, #19
			buffer[end] = x;
 8002c60:	fb04 0407 	mla	r4, r4, r7, r0
 8002c64:	cd0f      	ldmia	r5!, {r0, r1, r2, r3}
			if(end == n - 1) end = 0;
 8002c66:	bf08      	it	eq
 8002c68:	2700      	moveq	r7, #0
			buffer[end] = x;
 8002c6a:	f104 0404 	add.w	r4, r4, #4
 8002c6e:	c40f      	stmia	r4!, {r0, r1, r2, r3}
			else ++end;
 8002c70:	bf18      	it	ne
 8002c72:	3701      	addne	r7, #1
			if(begin == end)
 8002c74:	45bc      	cmp	ip, r7
			buffer[end] = x;
 8002c76:	e895 0003 	ldmia.w	r5, {r0, r1}
 8002c7a:	e884 0003 	stmia.w	r4, {r0, r1}
 8002c7e:	f8c6 71e8 	str.w	r7, [r6, #488]	; 0x1e8
			if(begin == end)
 8002c82:	d107      	bne.n	8002c94 <_ZN6CRSLib17SafeCircularQueueINS_3Can6RM00087RxFrameELj20EE4pushERKS3_+0x4e>
				if(begin == n - 1) begin = 0;
 8002c84:	f1bc 0f13 	cmp.w	ip, #19
 8002c88:	bf0c      	ite	eq
 8002c8a:	2300      	moveq	r3, #0
				else ++begin;
 8002c8c:	f10c 0301 	addne.w	r3, ip, #1
 8002c90:	f8c6 31e4 	str.w	r3, [r6, #484]	; 0x1e4
		}
 8002c94:	bdf0      	pop	{r4, r5, r6, r7, pc}

08002c96 <_ZNK6CRSLib17SafeCircularQueueINS_3Can6RM00087RxFrameELj20EE4sizeEv>:
			if(end == n) return 0;
 8002c96:	f8d0 31e8 	ldr.w	r3, [r0, #488]	; 0x1e8
 8002c9a:	2b14      	cmp	r3, #20
 8002c9c:	d00c      	beq.n	8002cb8 <_ZNK6CRSLib17SafeCircularQueueINS_3Can6RM00087RxFrameELj20EE4sizeEv+0x22>
				const auto&& expr = (n + end - begin) % n;
 8002c9e:	f8d0 01e4 	ldr.w	r0, [r0, #484]	; 0x1e4
 8002ca2:	3314      	adds	r3, #20
 8002ca4:	1a18      	subs	r0, r3, r0
 8002ca6:	2314      	movs	r3, #20
 8002ca8:	fbb0 f2f3 	udiv	r2, r0, r3
 8002cac:	fb03 0012 	mls	r0, r3, r2, r0
				return expr ? expr : n;
 8002cb0:	2800      	cmp	r0, #0
 8002cb2:	bf08      	it	eq
 8002cb4:	4618      	moveq	r0, r3
 8002cb6:	4770      	bx	lr
			if(end == n) return 0;
 8002cb8:	2000      	movs	r0, #0
		}
 8002cba:	4770      	bx	lr

08002cbc <_ZN6CRSLib17SafeCircularQueueINS_3Can6RM00087RxFrameELj20EE5clearEv>:
		}

		constexpr void clear() noexcept
		{
			begin = 0;
			end = n;
 8002cbc:	2200      	movs	r2, #0
 8002cbe:	2314      	movs	r3, #20
 8002cc0:	e9c0 2379 	strd	r2, r3, [r0, #484]	; 0x1e4
		}
 8002cc4:	4770      	bx	lr

08002cc6 <_ZNK6CRSLib17SafeCircularQueueINS_3Can6RM00087TxFrameELj10EE4sizeEv>:
			if(end == n) return 0;
 8002cc6:	6f83      	ldr	r3, [r0, #120]	; 0x78
 8002cc8:	2b0a      	cmp	r3, #10
 8002cca:	d00b      	beq.n	8002ce4 <_ZNK6CRSLib17SafeCircularQueueINS_3Can6RM00087TxFrameELj10EE4sizeEv+0x1e>
				const auto&& expr = (n + end - begin) % n;
 8002ccc:	6f40      	ldr	r0, [r0, #116]	; 0x74
 8002cce:	330a      	adds	r3, #10
 8002cd0:	1a18      	subs	r0, r3, r0
 8002cd2:	230a      	movs	r3, #10
 8002cd4:	fbb0 f2f3 	udiv	r2, r0, r3
 8002cd8:	fb03 0012 	mls	r0, r3, r2, r0
				return expr ? expr : n;
 8002cdc:	2800      	cmp	r0, #0
 8002cde:	bf08      	it	eq
 8002ce0:	4618      	moveq	r0, r3
 8002ce2:	4770      	bx	lr
			if(end == n) return 0;
 8002ce4:	2000      	movs	r0, #0
		}
 8002ce6:	4770      	bx	lr

08002ce8 <_ZN6CRSLib17SafeCircularQueueINS_3Can6RM00087TxFrameELj10EE5clearEv>:
			end = n;
 8002ce8:	2200      	movs	r2, #0
 8002cea:	230a      	movs	r3, #10
 8002cec:	e9c0 231d 	strd	r2, r3, [r0, #116]	; 0x74
		}
 8002cf0:	4770      	bx	lr

08002cf2 <_ZN6CRSLib17SafeCircularQueueINS_3Can6RM00087RxFrameELj20EE3popEv>:
		constexpr std::optional<Elem> pop() noexcept
 8002cf2:	b5f0      	push	{r4, r5, r6, r7, lr}
			if(end == n)
 8002cf4:	f8d1 e1e8 	ldr.w	lr, [r1, #488]	; 0x1e8
		constexpr std::optional<Elem> pop() noexcept
 8002cf8:	4684      	mov	ip, r0
			if(end == n)
 8002cfa:	f1be 0f14 	cmp.w	lr, #20
		constexpr std::optional<Elem> pop() noexcept
 8002cfe:	460e      	mov	r6, r1
 8002d00:	b087      	sub	sp, #28
			if(end == n)
 8002d02:	d105      	bne.n	8002d10 <_ZN6CRSLib17SafeCircularQueueINS_3Can6RM00087RxFrameELj20EE3popEv+0x1e>
  template <typename _Tp>
    struct _Optional_payload_base
    {
      using _Stored_type = remove_const_t<_Tp>;

      _Optional_payload_base() = default;
 8002d04:	2300      	movs	r3, #0
		}
 8002d06:	4660      	mov	r0, ip

      template<typename... _Args>
	constexpr
	_Optional_payload_base(in_place_t __tag, _Args&&... __args)
	: _M_payload(__tag, std::forward<_Args>(__args)...),
	  _M_engaged(true)
 8002d08:	f88c 3018 	strb.w	r3, [ip, #24]
 8002d0c:	b007      	add	sp, #28
 8002d0e:	bdf0      	pop	{r4, r5, r6, r7, pc}
			Elem ret = buffer[begin];
 8002d10:	2418      	movs	r4, #24
 8002d12:	466d      	mov	r5, sp
 8002d14:	f8d1 71e4 	ldr.w	r7, [r1, #484]	; 0x1e4
			if(begin == n - 1) begin = 0;
 8002d18:	2f13      	cmp	r7, #19
			Elem ret = buffer[begin];
 8002d1a:	fb04 1407 	mla	r4, r4, r7, r1
			if(begin == n - 1) begin = 0;
 8002d1e:	bf08      	it	eq
 8002d20:	2700      	moveq	r7, #0
			Elem ret = buffer[begin];
 8002d22:	f104 0404 	add.w	r4, r4, #4
 8002d26:	cc0f      	ldmia	r4!, {r0, r1, r2, r3}
 8002d28:	c50f      	stmia	r5!, {r0, r1, r2, r3}
 8002d2a:	e894 0003 	ldmia.w	r4, {r0, r1}
			else ++begin;
 8002d2e:	bf18      	it	ne
 8002d30:	3701      	addne	r7, #1
			if(begin == end)
 8002d32:	45be      	cmp	lr, r7
			Elem ret = buffer[begin];
 8002d34:	e885 0003 	stmia.w	r5, {r0, r1}
				end = n;
 8002d38:	bf08      	it	eq
 8002d3a:	2314      	moveq	r3, #20
	  constexpr _Storage() noexcept : _M_empty() { }

	  template<typename... _Args>
	    constexpr
	    _Storage(in_place_t, _Args&&... __args)
	    : _M_value(std::forward<_Args>(__args)...)
 8002d3c:	4664      	mov	r4, ip
 8002d3e:	466d      	mov	r5, sp
 8002d40:	bf08      	it	eq
 8002d42:	f8c6 31e8 	streq.w	r3, [r6, #488]	; 0x1e8
 8002d46:	cd0f      	ldmia	r5!, {r0, r1, r2, r3}
 8002d48:	c40f      	stmia	r4!, {r0, r1, r2, r3}
 8002d4a:	e895 0003 	ldmia.w	r5, {r0, r1}
	  _M_engaged(true)
 8002d4e:	2301      	movs	r3, #1
	    : _M_value(std::forward<_Args>(__args)...)
 8002d50:	e884 0003 	stmia.w	r4, {r0, r1}
 8002d54:	f8c6 71e4 	str.w	r7, [r6, #484]	; 0x1e4
 8002d58:	e7d5      	b.n	8002d06 <_ZN6CRSLib17SafeCircularQueueINS_3Can6RM00087RxFrameELj20EE3popEv+0x14>

08002d5a <_ZN6CRSLib17SafeCircularQueueINS_3Can6RM00087TxFrameELj10EE3popEv>:
		constexpr std::optional<Elem> pop() noexcept
 8002d5a:	b5f0      	push	{r4, r5, r6, r7, lr}
			if(end == n)
 8002d5c:	6f8f      	ldr	r7, [r1, #120]	; 0x78
		constexpr std::optional<Elem> pop() noexcept
 8002d5e:	4603      	mov	r3, r0
			if(end == n)
 8002d60:	2f0a      	cmp	r7, #10
		constexpr std::optional<Elem> pop() noexcept
 8002d62:	460a      	mov	r2, r1
 8002d64:	b085      	sub	sp, #20
			if(end == n)
 8002d66:	d104      	bne.n	8002d72 <_ZN6CRSLib17SafeCircularQueueINS_3Can6RM00087TxFrameELj10EE3popEv+0x18>
      _Optional_payload_base() = default;
 8002d68:	2200      	movs	r2, #0
		}
 8002d6a:	4618      	mov	r0, r3
	  _M_engaged(true)
 8002d6c:	72da      	strb	r2, [r3, #11]
 8002d6e:	b005      	add	sp, #20
 8002d70:	bdf0      	pop	{r4, r5, r6, r7, pc}
			Elem ret = buffer[begin];
 8002d72:	260b      	movs	r6, #11
 8002d74:	6f4c      	ldr	r4, [r1, #116]	; 0x74
 8002d76:	ad01      	add	r5, sp, #4
			if(begin == n - 1) begin = 0;
 8002d78:	2c09      	cmp	r4, #9
			Elem ret = buffer[begin];
 8002d7a:	fb06 1604 	mla	r6, r6, r4, r1
			if(begin == n - 1) begin = 0;
 8002d7e:	bf08      	it	eq
 8002d80:	2400      	moveq	r4, #0
			Elem ret = buffer[begin];
 8002d82:	6870      	ldr	r0, [r6, #4]
 8002d84:	68b1      	ldr	r1, [r6, #8]
			else ++begin;
 8002d86:	bf18      	it	ne
 8002d88:	3401      	addne	r4, #1
			Elem ret = buffer[begin];
 8002d8a:	c503      	stmia	r5!, {r0, r1}
 8002d8c:	7bb1      	ldrb	r1, [r6, #14]
			if(begin == end)
 8002d8e:	42a7      	cmp	r7, r4
			Elem ret = buffer[begin];
 8002d90:	70a9      	strb	r1, [r5, #2]
				end = n;
 8002d92:	bf08      	it	eq
 8002d94:	210a      	moveq	r1, #10
			Elem ret = buffer[begin];
 8002d96:	89b0      	ldrh	r0, [r6, #12]
				end = n;
 8002d98:	bf08      	it	eq
 8002d9a:	6791      	streq	r1, [r2, #120]	; 0x78
			Elem ret = buffer[begin];
 8002d9c:	8028      	strh	r0, [r5, #0]
 8002d9e:	6754      	str	r4, [r2, #116]	; 0x74
	    : _M_value(std::forward<_Args>(__args)...)
 8002da0:	aa01      	add	r2, sp, #4
 8002da2:	ca03      	ldmia	r2!, {r0, r1}
 8002da4:	6059      	str	r1, [r3, #4]
 8002da6:	8811      	ldrh	r1, [r2, #0]
 8002da8:	7892      	ldrb	r2, [r2, #2]
 8002daa:	6018      	str	r0, [r3, #0]
 8002dac:	729a      	strb	r2, [r3, #10]
 8002dae:	8119      	strh	r1, [r3, #8]
	  _M_engaged(true)
 8002db0:	2201      	movs	r2, #1
 8002db2:	e7da      	b.n	8002d6a <_ZN6CRSLib17SafeCircularQueueINS_3Can6RM00087TxFrameELj10EE3popEv+0x10>

08002db4 <_ZN6CRSLib3Can9Implement6TxUnitIN13Chibarobo20228SampleTxEE8transmitERNS0_6RM00089PillarboxE>:
	public:
		TxUnit(const u32 base_id) noexcept:
			TxUnitBase{to_underlying(OffsetIdsEnum::n), base_id}
		{}

		void transmit(MpuSpecific::Pillarbox& pillarbox) noexcept override
 8002db4:	e92d 41f0 	stmdb	sp!, {r4, r5, r6, r7, r8, lr}
		{
			auto for_body_par_id = [this, &pillarbox]<std::underlying_type_t<OffsetIdsEnum> offset_id, std::underlying_type_t<OffsetIdsEnum> n>(CompileForIndex<offset_id, n>) noexcept
			{
				CompileForIndex<offset_id + 1, n> ret{};

				ret.is_breaked = std::get<offset_id>(tx_ids).transmit(pillarbox, this->base_id);
 8002db8:	6885      	ldr	r5, [r0, #8]
		void transmit(MpuSpecific::Pillarbox& pillarbox) noexcept override
 8002dba:	460e      	mov	r6, r1
	{
		using Impl = TxIdImplInjectorAdaptor<offset_id>;
		SafeCircularQueue<MpuSpecific::TxFrame, Impl::queue_size()> queue{};

		// Mailbox()false, true.
		bool transmit(MpuSpecific::Pillarbox& pillarbox, const u32 base_id) noexcept
 8002dbc:	ea5f 28d5 	movs.w	r8, r5, lsr #11
 8002dc0:	bf14      	ite	ne
 8002dc2:	2704      	movne	r7, #4
 8002dc4:	2700      	moveq	r7, #0
 8002dc6:	b08a      	sub	sp, #40	; 0x28
		{
			while(true)
			{
				if(pillarbox.not_full())
				{
					if(auto opt_tx_frame = queue.pop(); !opt_tx_frame)
 8002dc8:	f100 040c 	add.w	r4, r0, #12

		void post(const u32 id, TxFrame& frame) noexcept
		{
			CAN_TxHeaderTypeDef tx_header
			{
				.StdId = id & max_std_id,
 8002dcc:	f3c5 050a 	ubfx	r5, r5, #0, #11
			HAL_CAN_AddTxMessage(hcan, &tx_header, frame.data.data(), &mailbox);
		}

		bool not_full() const noexcept
		{
			return HAL_CAN_GetTxMailboxesFreeLevel(hcan) != 0;
 8002dd0:	6830      	ldr	r0, [r6, #0]
 8002dd2:	f002 f838 	bl	8004e46 <HAL_CAN_GetTxMailboxesFreeLevel>
				if(pillarbox.not_full())
 8002dd6:	b308      	cbz	r0, 8002e1c <_ZN6CRSLib3Can9Implement6TxUnitIN13Chibarobo20228SampleTxEE8transmitERNS0_6RM00089PillarboxE+0x68>
					if(auto opt_tx_frame = queue.pop(); !opt_tx_frame)
 8002dd8:	4621      	mov	r1, r4
 8002dda:	a801      	add	r0, sp, #4
 8002ddc:	f7ff ffbd 	bl	8002d5a <_ZN6CRSLib17SafeCircularQueueINS_3Can6RM00087TxFrameELj10EE3popEv>
 8002de0:	f89d 300f 	ldrb.w	r3, [sp, #15]
 8002de4:	b1d3      	cbz	r3, 8002e1c <_ZN6CRSLib3Can9Implement6TxUnitIN13Chibarobo20228SampleTxEE8transmitERNS0_6RM00089PillarboxE+0x68>
				.RTR = frame.header.rtr ? CAN_RTR_REMOTE : CAN_RTR_DATA,
 8002de6:	f89d 3005 	ldrb.w	r3, [sp, #5]
			HAL_CAN_AddTxMessage(hcan, &tx_header, frame.data.data(), &mailbox);
 8002dea:	6830      	ldr	r0, [r6, #0]
				.RTR = frame.header.rtr ? CAN_RTR_REMOTE : CAN_RTR_DATA,
 8002dec:	2b00      	cmp	r3, #0
 8002dee:	bf14      	ite	ne
 8002df0:	2302      	movne	r3, #2
 8002df2:	2300      	moveq	r3, #0
			};
 8002df4:	9307      	str	r3, [sp, #28]
				.DLC = frame.header.dlc,
 8002df6:	f89d 3004 	ldrb.w	r3, [sp, #4]
			HAL_CAN_AddTxMessage(hcan, &tx_header, frame.data.data(), &mailbox);
 8002dfa:	f10d 0207 	add.w	r2, sp, #7
				.DLC = frame.header.dlc,
 8002dfe:	9308      	str	r3, [sp, #32]
			};
 8002e00:	f89d 3006 	ldrb.w	r3, [sp, #6]
			HAL_CAN_AddTxMessage(hcan, &tx_header, frame.data.data(), &mailbox);
 8002e04:	a904      	add	r1, sp, #16
			};
 8002e06:	f88d 3024 	strb.w	r3, [sp, #36]	; 0x24
			u32 mailbox{};
 8002e0a:	2300      	movs	r3, #0
 8002e0c:	9300      	str	r3, [sp, #0]
			HAL_CAN_AddTxMessage(hcan, &tx_header, frame.data.data(), &mailbox);
 8002e0e:	466b      	mov	r3, sp
			};
 8002e10:	e9cd 5804 	strd	r5, r8, [sp, #16]
 8002e14:	9706      	str	r7, [sp, #24]
			HAL_CAN_AddTxMessage(hcan, &tx_header, frame.data.data(), &mailbox);
 8002e16:	f001 ffc8 	bl	8004daa <HAL_CAN_AddTxMessage>
 8002e1a:	e7d9      	b.n	8002dd0 <_ZN6CRSLib3Can9Implement6TxUnitIN13Chibarobo20228SampleTxEE8transmitERNS0_6RM00089PillarboxE+0x1c>
				return ret;
			};

			compile_for(for_body_par_id, CompileForIndex<static_cast<std::underlying_type_t<OffsetIdsEnum>>(0), to_underlying(OffsetIdsEnum::n)>{});
		}
 8002e1c:	b00a      	add	sp, #40	; 0x28
 8002e1e:	e8bd 81f0 	ldmia.w	sp!, {r4, r5, r6, r7, r8, pc}

08002e22 <_ZSt16__insertion_sortIPPN6CRSLib3Can9Implement10TxUnitBaseEN9__gnu_cxx5__ops15_Iter_comp_iterIZNSt6ranges8__detail16__make_comp_projINS9_4lessEZNS1_11TransmitterIJN13Chibarobo20228SampleTxEEE12sort_tx_unitEvEUlPKS3_E_EEDaRT_RT0_EUlOSK_OSM_E_EEEvSK_SK_SM_>:
    __insertion_sort(_RandomAccessIterator __first,
 8002e22:	b5f7      	push	{r0, r1, r2, r4, r5, r6, r7, lr}
 8002e24:	460e      	mov	r6, r1
 8002e26:	a902      	add	r1, sp, #8
      if (__first == __last) return;
 8002e28:	42b0      	cmp	r0, r6
    __insertion_sort(_RandomAccessIterator __first,
 8002e2a:	4604      	mov	r4, r0
 8002e2c:	e901 000c 	stmdb	r1, {r2, r3}
      if (__first == __last) return;
 8002e30:	d01d      	beq.n	8002e6e <_ZSt16__insertion_sortIPPN6CRSLib3Can9Implement10TxUnitBaseEN9__gnu_cxx5__ops15_Iter_comp_iterIZNSt6ranges8__detail16__make_comp_projINS9_4lessEZNS1_11TransmitterIJN13Chibarobo20228SampleTxEEE12sort_tx_unitEvEUlPKS3_E_EEDaRT_RT0_EUlOSK_OSM_E_EEEvSK_SK_SM_+0x4c>
      for (_RandomAccessIterator __i = __first + 1; __i != __last; ++__i)
 8002e32:	1d05      	adds	r5, r0, #4
 8002e34:	42b5      	cmp	r5, r6
 8002e36:	d01a      	beq.n	8002e6e <_ZSt16__insertion_sortIPPN6CRSLib3Can9Implement10TxUnitBaseEN9__gnu_cxx5__ops15_Iter_comp_iterIZNSt6ranges8__detail16__make_comp_projINS9_4lessEZNS1_11TransmitterIJN13Chibarobo20228SampleTxEEE12sort_tx_unitEvEUlPKS3_E_EEDaRT_RT0_EUlOSK_OSM_E_EEEvSK_SK_SM_+0x4c>
 8002e38:	682f      	ldr	r7, [r5, #0]
			}
		}

		void sort_tx_unit() noexcept
		{
			std::ranges::sort(tx_units_p, {}, [](const Implement::TxUnitBase * p){return p->base_id;});
 8002e3a:	6823      	ldr	r3, [r4, #0]
 8002e3c:	68b9      	ldr	r1, [r7, #8]
	  if (__comp(__i, __first))
 8002e3e:	689b      	ldr	r3, [r3, #8]
 8002e40:	4299      	cmp	r1, r3
 8002e42:	d209      	bcs.n	8002e58 <_ZSt16__insertion_sortIPPN6CRSLib3Can9Implement10TxUnitBaseEN9__gnu_cxx5__ops15_Iter_comp_iterIZNSt6ranges8__detail16__make_comp_projINS9_4lessEZNS1_11TransmitterIJN13Chibarobo20228SampleTxEEE12sort_tx_unitEvEUlPKS3_E_EEDaRT_RT0_EUlOSK_OSM_E_EEEvSK_SK_SM_+0x36>
	  if (_Num)
 8002e44:	42a5      	cmp	r5, r4
 8002e46:	d004      	beq.n	8002e52 <_ZSt16__insertion_sortIPPN6CRSLib3Can9Implement10TxUnitBaseEN9__gnu_cxx5__ops15_Iter_comp_iterIZNSt6ranges8__detail16__make_comp_projINS9_4lessEZNS1_11TransmitterIJN13Chibarobo20228SampleTxEEE12sort_tx_unitEvEUlPKS3_E_EEDaRT_RT0_EUlOSK_OSM_E_EEEvSK_SK_SM_+0x30>
	    __builtin_memmove(__result - _Num, __first, sizeof(_Tp) * _Num);
 8002e48:	4621      	mov	r1, r4
 8002e4a:	1b2a      	subs	r2, r5, r4
 8002e4c:	1d20      	adds	r0, r4, #4
 8002e4e:	f003 ff2b 	bl	8006ca8 <memmove>
	      *__first = _GLIBCXX_MOVE(__val);
 8002e52:	6027      	str	r7, [r4, #0]
      for (_RandomAccessIterator __i = __first + 1; __i != __last; ++__i)
 8002e54:	3504      	adds	r5, #4
 8002e56:	e7ed      	b.n	8002e34 <_ZSt16__insertion_sortIPPN6CRSLib3Can9Implement10TxUnitBaseEN9__gnu_cxx5__ops15_Iter_comp_iterIZNSt6ranges8__detail16__make_comp_projINS9_4lessEZNS1_11TransmitterIJN13Chibarobo20228SampleTxEEE12sort_tx_unitEvEUlPKS3_E_EEDaRT_RT0_EUlOSK_OSM_E_EEEvSK_SK_SM_+0x12>
	  if (__comp(__i, __first))
 8002e58:	462b      	mov	r3, r5
 8002e5a:	f853 2c04 	ldr.w	r2, [r3, #-4]
      while (__comp(__val, __next))
 8002e5e:	6890      	ldr	r0, [r2, #8]
 8002e60:	4281      	cmp	r1, r0
 8002e62:	d202      	bcs.n	8002e6a <_ZSt16__insertion_sortIPPN6CRSLib3Can9Implement10TxUnitBaseEN9__gnu_cxx5__ops15_Iter_comp_iterIZNSt6ranges8__detail16__make_comp_projINS9_4lessEZNS1_11TransmitterIJN13Chibarobo20228SampleTxEEE12sort_tx_unitEvEUlPKS3_E_EEDaRT_RT0_EUlOSK_OSM_E_EEEvSK_SK_SM_+0x48>
	  *__last = _GLIBCXX_MOVE(*__next);
 8002e64:	f843 2904 	str.w	r2, [r3], #-4
      while (__comp(__val, __next))
 8002e68:	e7f7      	b.n	8002e5a <_ZSt16__insertion_sortIPPN6CRSLib3Can9Implement10TxUnitBaseEN9__gnu_cxx5__ops15_Iter_comp_iterIZNSt6ranges8__detail16__make_comp_projINS9_4lessEZNS1_11TransmitterIJN13Chibarobo20228SampleTxEEE12sort_tx_unitEvEUlPKS3_E_EEDaRT_RT0_EUlOSK_OSM_E_EEEvSK_SK_SM_+0x38>
      *__last = _GLIBCXX_MOVE(__val);
 8002e6a:	601f      	str	r7, [r3, #0]
    }
 8002e6c:	e7f2      	b.n	8002e54 <_ZSt16__insertion_sortIPPN6CRSLib3Can9Implement10TxUnitBaseEN9__gnu_cxx5__ops15_Iter_comp_iterIZNSt6ranges8__detail16__make_comp_projINS9_4lessEZNS1_11TransmitterIJN13Chibarobo20228SampleTxEEE12sort_tx_unitEvEUlPKS3_E_EEDaRT_RT0_EUlOSK_OSM_E_EEEvSK_SK_SM_+0x32>
    }
 8002e6e:	b003      	add	sp, #12
 8002e70:	bdf0      	pop	{r4, r5, r6, r7, pc}

08002e72 <_ZSt13__adjust_heapIPPN6CRSLib3Can9Implement10TxUnitBaseEiS4_N9__gnu_cxx5__ops15_Iter_comp_iterIZNSt6ranges8__detail16__make_comp_projINS9_4lessEZNS1_11TransmitterIJN13Chibarobo20228SampleTxEEE12sort_tx_unitEvEUlPKS3_E_EEDaRT_RT0_EUlOSK_OSM_E_EEEvSK_SM_SM_T1_T2_>:
    __adjust_heap(_RandomAccessIterator __first, _Distance __holeIndex,
 8002e72:	b5f0      	push	{r4, r5, r6, r7, lr}
      while (__secondChild < (__len - 1) / 2)
 8002e74:	1e54      	subs	r4, r2, #1
 8002e76:	eb04 74d4 	add.w	r4, r4, r4, lsr #31
 8002e7a:	1066      	asrs	r6, r4, #1
		     __first + (__secondChild - 1)))
 8002e7c:	f06f 4c40 	mvn.w	ip, #3221225472	; 0xc0000000
      while (__secondChild < (__len - 1) / 2)
 8002e80:	460c      	mov	r4, r1
 8002e82:	42a6      	cmp	r6, r4
 8002e84:	dd14      	ble.n	8002eb0 <_ZSt13__adjust_heapIPPN6CRSLib3Can9Implement10TxUnitBaseEiS4_N9__gnu_cxx5__ops15_Iter_comp_iterIZNSt6ranges8__detail16__make_comp_projINS9_4lessEZNS1_11TransmitterIJN13Chibarobo20228SampleTxEEE12sort_tx_unitEvEUlPKS3_E_EEDaRT_RT0_EUlOSK_OSM_E_EEEvSK_SM_SM_T1_T2_+0x3e>
	  __secondChild = 2 * (__secondChild + 1);
 8002e86:	1c65      	adds	r5, r4, #1
 8002e88:	006f      	lsls	r7, r5, #1
		     __first + (__secondChild - 1)))
 8002e8a:	eb0c 0545 	add.w	r5, ip, r5, lsl #1
 8002e8e:	f850 5025 	ldr.w	r5, [r0, r5, lsl #2]
	  if (__comp(__first + __secondChild,
 8002e92:	f8d5 e008 	ldr.w	lr, [r5, #8]
 8002e96:	f850 5027 	ldr.w	r5, [r0, r7, lsl #2]
 8002e9a:	68ad      	ldr	r5, [r5, #8]
 8002e9c:	45ae      	cmp	lr, r5
	    __secondChild--;
 8002e9e:	bf88      	it	hi
 8002ea0:	f107 37ff 	addhi.w	r7, r7, #4294967295
	  *(__first + __holeIndex) = _GLIBCXX_MOVE(*(__first + __secondChild));
 8002ea4:	f850 5027 	ldr.w	r5, [r0, r7, lsl #2]
 8002ea8:	f840 5024 	str.w	r5, [r0, r4, lsl #2]
	  __holeIndex = __secondChild;
 8002eac:	463c      	mov	r4, r7
      while (__secondChild < (__len - 1) / 2)
 8002eae:	e7e8      	b.n	8002e82 <_ZSt13__adjust_heapIPPN6CRSLib3Can9Implement10TxUnitBaseEiS4_N9__gnu_cxx5__ops15_Iter_comp_iterIZNSt6ranges8__detail16__make_comp_projINS9_4lessEZNS1_11TransmitterIJN13Chibarobo20228SampleTxEEE12sort_tx_unitEvEUlPKS3_E_EEDaRT_RT0_EUlOSK_OSM_E_EEEvSK_SM_SM_T1_T2_+0x10>
      if ((__len & 1) == 0 && __secondChild == (__len - 2) / 2)
 8002eb0:	07d5      	lsls	r5, r2, #31
 8002eb2:	d40e      	bmi.n	8002ed2 <_ZSt13__adjust_heapIPPN6CRSLib3Can9Implement10TxUnitBaseEiS4_N9__gnu_cxx5__ops15_Iter_comp_iterIZNSt6ranges8__detail16__make_comp_projINS9_4lessEZNS1_11TransmitterIJN13Chibarobo20228SampleTxEEE12sort_tx_unitEvEUlPKS3_E_EEDaRT_RT0_EUlOSK_OSM_E_EEEvSK_SM_SM_T1_T2_+0x60>
 8002eb4:	3a02      	subs	r2, #2
 8002eb6:	eb02 72d2 	add.w	r2, r2, r2, lsr #31
 8002eba:	ebb4 0f62 	cmp.w	r4, r2, asr #1
 8002ebe:	d108      	bne.n	8002ed2 <_ZSt13__adjust_heapIPPN6CRSLib3Can9Implement10TxUnitBaseEiS4_N9__gnu_cxx5__ops15_Iter_comp_iterIZNSt6ranges8__detail16__make_comp_projINS9_4lessEZNS1_11TransmitterIJN13Chibarobo20228SampleTxEEE12sort_tx_unitEvEUlPKS3_E_EEDaRT_RT0_EUlOSK_OSM_E_EEEvSK_SM_SM_T1_T2_+0x60>
	  __secondChild = 2 * (__secondChild + 1);
 8002ec0:	1c62      	adds	r2, r4, #1
 8002ec2:	0055      	lsls	r5, r2, #1
	  *(__first + __holeIndex) = _GLIBCXX_MOVE(*(__first
 8002ec4:	eb00 02c2 	add.w	r2, r0, r2, lsl #3
 8002ec8:	f852 2c04 	ldr.w	r2, [r2, #-4]
 8002ecc:	f840 2024 	str.w	r2, [r0, r4, lsl #2]
	  __holeIndex = __secondChild - 1;
 8002ed0:	1e6c      	subs	r4, r5, #1
      _Distance __parent = (__holeIndex - 1) / 2;
 8002ed2:	1e62      	subs	r2, r4, #1
 8002ed4:	eb02 72d2 	add.w	r2, r2, r2, lsr #31
 8002ed8:	1052      	asrs	r2, r2, #1
      while (__holeIndex > __topIndex && __comp(__first + __parent, __value))
 8002eda:	42a1      	cmp	r1, r4
	  *(__first + __holeIndex) = _GLIBCXX_MOVE(*(__first + __parent));
 8002edc:	ea4f 0c84 	mov.w	ip, r4, lsl #2
 8002ee0:	eb00 0584 	add.w	r5, r0, r4, lsl #2
      while (__holeIndex > __topIndex && __comp(__first + __parent, __value))
 8002ee4:	da0d      	bge.n	8002f02 <_ZSt13__adjust_heapIPPN6CRSLib3Can9Implement10TxUnitBaseEiS4_N9__gnu_cxx5__ops15_Iter_comp_iterIZNSt6ranges8__detail16__make_comp_projINS9_4lessEZNS1_11TransmitterIJN13Chibarobo20228SampleTxEEE12sort_tx_unitEvEUlPKS3_E_EEDaRT_RT0_EUlOSK_OSM_E_EEEvSK_SM_SM_T1_T2_+0x90>
 8002ee6:	f850 4022 	ldr.w	r4, [r0, r2, lsl #2]
 8002eea:	689e      	ldr	r6, [r3, #8]
 8002eec:	68a7      	ldr	r7, [r4, #8]
 8002eee:	42b7      	cmp	r7, r6
 8002ef0:	d207      	bcs.n	8002f02 <_ZSt13__adjust_heapIPPN6CRSLib3Can9Implement10TxUnitBaseEiS4_N9__gnu_cxx5__ops15_Iter_comp_iterIZNSt6ranges8__detail16__make_comp_projINS9_4lessEZNS1_11TransmitterIJN13Chibarobo20228SampleTxEEE12sort_tx_unitEvEUlPKS3_E_EEDaRT_RT0_EUlOSK_OSM_E_EEEvSK_SM_SM_T1_T2_+0x90>
	  *(__first + __holeIndex) = _GLIBCXX_MOVE(*(__first + __parent));
 8002ef2:	f840 400c 	str.w	r4, [r0, ip]
	  __parent = (__holeIndex - 1) / 2;
 8002ef6:	1e54      	subs	r4, r2, #1
 8002ef8:	eb04 75d4 	add.w	r5, r4, r4, lsr #31
	  __holeIndex = __parent;
 8002efc:	4614      	mov	r4, r2
	  __parent = (__holeIndex - 1) / 2;
 8002efe:	106a      	asrs	r2, r5, #1
      while (__holeIndex > __topIndex && __comp(__first + __parent, __value))
 8002f00:	e7eb      	b.n	8002eda <_ZSt13__adjust_heapIPPN6CRSLib3Can9Implement10TxUnitBaseEiS4_N9__gnu_cxx5__ops15_Iter_comp_iterIZNSt6ranges8__detail16__make_comp_projINS9_4lessEZNS1_11TransmitterIJN13Chibarobo20228SampleTxEEE12sort_tx_unitEvEUlPKS3_E_EEDaRT_RT0_EUlOSK_OSM_E_EEEvSK_SM_SM_T1_T2_+0x68>
      *(__first + __holeIndex) = _GLIBCXX_MOVE(__value);
 8002f02:	602b      	str	r3, [r5, #0]
    }
 8002f04:	bdf0      	pop	{r4, r5, r6, r7, pc}

08002f06 <_ZSt16__introsort_loopIPPN6CRSLib3Can9Implement10TxUnitBaseEiN9__gnu_cxx5__ops15_Iter_comp_iterIZNSt6ranges8__detail16__make_comp_projINS9_4lessEZNS1_11TransmitterIJN13Chibarobo20228SampleTxEEE12sort_tx_unitEvEUlPKS3_E_EEDaRT_RT0_EUlOSK_OSM_E_EEEvSK_SK_SM_T1_>:
    __introsort_loop(_RandomAccessIterator __first,
 8002f06:	b082      	sub	sp, #8
 8002f08:	e92d 43f0 	stmdb	sp!, {r4, r5, r6, r7, r8, r9, lr}
 8002f0c:	4604      	mov	r4, r0
 8002f0e:	460d      	mov	r5, r1
 8002f10:	4616      	mov	r6, r2
 8002f12:	b087      	sub	sp, #28
 8002f14:	930f      	str	r3, [sp, #60]	; 0x3c
      std::__move_median_to_first(__first, __first + 1, __mid, __last - 1,
 8002f16:	1d07      	adds	r7, r0, #4
      while (__last - __first > int(_S_threshold))
 8002f18:	1b2b      	subs	r3, r5, r4
 8002f1a:	2b40      	cmp	r3, #64	; 0x40
 8002f1c:	dd2c      	ble.n	8002f78 <_ZSt16__introsort_loopIPPN6CRSLib3Can9Implement10TxUnitBaseEiN9__gnu_cxx5__ops15_Iter_comp_iterIZNSt6ranges8__detail16__make_comp_projINS9_4lessEZNS1_11TransmitterIJN13Chibarobo20228SampleTxEEE12sort_tx_unitEvEUlPKS3_E_EEDaRT_RT0_EUlOSK_OSM_E_EEEvSK_SK_SM_T1_+0x72>
      const _DistanceType __len = __last - __first;
 8002f1e:	ea4f 08a3 	mov.w	r8, r3, asr #2
	  if (__depth_limit == 0)
 8002f22:	bb76      	cbnz	r6, 8002f82 <_ZSt16__introsort_loopIPPN6CRSLib3Can9Implement10TxUnitBaseEiN9__gnu_cxx5__ops15_Iter_comp_iterIZNSt6ranges8__detail16__make_comp_projINS9_4lessEZNS1_11TransmitterIJN13Chibarobo20228SampleTxEEE12sort_tx_unitEvEUlPKS3_E_EEDaRT_RT0_EUlOSK_OSM_E_EEEvSK_SK_SM_T1_+0x7c>
 8002f24:	e9dd 010f 	ldrd	r0, r1, [sp, #60]	; 0x3c
 8002f28:	af02      	add	r7, sp, #8
 8002f2a:	f10d 0910 	add.w	r9, sp, #16
 8002f2e:	e887 0003 	stmia.w	r7, {r0, r1}
    __partial_sort(_RandomAccessIterator __first,
 8002f32:	e889 0003 	stmia.w	r9, {r0, r1}
      _DistanceType __parent = (__len - 2) / 2;
 8002f36:	f1a8 0602 	sub.w	r6, r8, #2
 8002f3a:	1076      	asrs	r6, r6, #1
	  std::__adjust_heap(__first, __parent, __len, _GLIBCXX_MOVE(__value),
 8002f3c:	e899 0003 	ldmia.w	r9, {r0, r1}
 8002f40:	4642      	mov	r2, r8
 8002f42:	e88d 0003 	stmia.w	sp, {r0, r1}
 8002f46:	f854 3026 	ldr.w	r3, [r4, r6, lsl #2]
 8002f4a:	4631      	mov	r1, r6
 8002f4c:	4620      	mov	r0, r4
 8002f4e:	f7ff ff90 	bl	8002e72 <_ZSt13__adjust_heapIPPN6CRSLib3Can9Implement10TxUnitBaseEiS4_N9__gnu_cxx5__ops15_Iter_comp_iterIZNSt6ranges8__detail16__make_comp_projINS9_4lessEZNS1_11TransmitterIJN13Chibarobo20228SampleTxEEE12sort_tx_unitEvEUlPKS3_E_EEDaRT_RT0_EUlOSK_OSM_E_EEEvSK_SM_SM_T1_T2_>
	  if (__parent == 0)
 8002f52:	b10e      	cbz	r6, 8002f58 <_ZSt16__introsort_loopIPPN6CRSLib3Can9Implement10TxUnitBaseEiN9__gnu_cxx5__ops15_Iter_comp_iterIZNSt6ranges8__detail16__make_comp_projINS9_4lessEZNS1_11TransmitterIJN13Chibarobo20228SampleTxEEE12sort_tx_unitEvEUlPKS3_E_EEDaRT_RT0_EUlOSK_OSM_E_EEEvSK_SK_SM_T1_+0x52>
	  __parent--;
 8002f54:	3e01      	subs	r6, #1
      while (true)
 8002f56:	e7f1      	b.n	8002f3c <_ZSt16__introsort_loopIPPN6CRSLib3Can9Implement10TxUnitBaseEiN9__gnu_cxx5__ops15_Iter_comp_iterIZNSt6ranges8__detail16__make_comp_projINS9_4lessEZNS1_11TransmitterIJN13Chibarobo20228SampleTxEEE12sort_tx_unitEvEUlPKS3_E_EEDaRT_RT0_EUlOSK_OSM_E_EEEvSK_SK_SM_T1_+0x36>
      _ValueType __value = _GLIBCXX_MOVE(*__result);
 8002f58:	f855 3d04 	ldr.w	r3, [r5, #-4]!
      *__result = _GLIBCXX_MOVE(*__first);
 8002f5c:	6822      	ldr	r2, [r4, #0]
			 _DistanceType(__last - __first),
 8002f5e:	1b2e      	subs	r6, r5, r4
      std::__adjust_heap(__first, _DistanceType(0),
 8002f60:	e897 0003 	ldmia.w	r7, {r0, r1}
      *__result = _GLIBCXX_MOVE(*__first);
 8002f64:	602a      	str	r2, [r5, #0]
      std::__adjust_heap(__first, _DistanceType(0),
 8002f66:	e88d 0003 	stmia.w	sp, {r0, r1}
 8002f6a:	10b2      	asrs	r2, r6, #2
 8002f6c:	2100      	movs	r1, #0
 8002f6e:	4620      	mov	r0, r4
 8002f70:	f7ff ff7f 	bl	8002e72 <_ZSt13__adjust_heapIPPN6CRSLib3Can9Implement10TxUnitBaseEiS4_N9__gnu_cxx5__ops15_Iter_comp_iterIZNSt6ranges8__detail16__make_comp_projINS9_4lessEZNS1_11TransmitterIJN13Chibarobo20228SampleTxEEE12sort_tx_unitEvEUlPKS3_E_EEDaRT_RT0_EUlOSK_OSM_E_EEEvSK_SM_SM_T1_T2_>
      while (__last - __first > 1)
 8002f74:	2e04      	cmp	r6, #4
 8002f76:	dcef      	bgt.n	8002f58 <_ZSt16__introsort_loopIPPN6CRSLib3Can9Implement10TxUnitBaseEiN9__gnu_cxx5__ops15_Iter_comp_iterIZNSt6ranges8__detail16__make_comp_projINS9_4lessEZNS1_11TransmitterIJN13Chibarobo20228SampleTxEEE12sort_tx_unitEvEUlPKS3_E_EEDaRT_RT0_EUlOSK_OSM_E_EEEvSK_SK_SM_T1_+0x52>
    }
 8002f78:	b007      	add	sp, #28
 8002f7a:	e8bd 43f0 	ldmia.w	sp!, {r4, r5, r6, r7, r8, r9, lr}
 8002f7e:	b002      	add	sp, #8
 8002f80:	4770      	bx	lr
      _RandomAccessIterator __mid = __first + (__last - __first) / 2;
 8002f82:	10db      	asrs	r3, r3, #3
 8002f84:	f8d4 8004 	ldr.w	r8, [r4, #4]
 8002f88:	f854 0023 	ldr.w	r0, [r4, r3, lsl #2]
 8002f8c:	f8d8 9008 	ldr.w	r9, [r8, #8]
 8002f90:	f8d0 e008 	ldr.w	lr, [r0, #8]
 8002f94:	f855 cc04 	ldr.w	ip, [r5, #-4]
      if (__comp(__a, __b))
 8002f98:	45f1      	cmp	r9, lr
 8002f9a:	f8dc 1008 	ldr.w	r1, [ip, #8]
      _Tp __tmp = _GLIBCXX_MOVE(__a);
 8002f9e:	6822      	ldr	r2, [r4, #0]
	  --__depth_limit;
 8002fa0:	f106 36ff 	add.w	r6, r6, #4294967295
      if (__comp(__a, __b))
 8002fa4:	d22a      	bcs.n	8002ffc <_ZSt16__introsort_loopIPPN6CRSLib3Can9Implement10TxUnitBaseEiN9__gnu_cxx5__ops15_Iter_comp_iterIZNSt6ranges8__detail16__make_comp_projINS9_4lessEZNS1_11TransmitterIJN13Chibarobo20228SampleTxEEE12sort_tx_unitEvEUlPKS3_E_EEDaRT_RT0_EUlOSK_OSM_E_EEEvSK_SK_SM_T1_+0xf6>
	  if (__comp(__b, __c))
 8002fa6:	458e      	cmp	lr, r1
 8002fa8:	d221      	bcs.n	8002fee <_ZSt16__introsort_loopIPPN6CRSLib3Can9Implement10TxUnitBaseEiN9__gnu_cxx5__ops15_Iter_comp_iterIZNSt6ranges8__detail16__make_comp_projINS9_4lessEZNS1_11TransmitterIJN13Chibarobo20228SampleTxEEE12sort_tx_unitEvEUlPKS3_E_EEDaRT_RT0_EUlOSK_OSM_E_EEEvSK_SK_SM_T1_+0xe8>
      __a = _GLIBCXX_MOVE(__b);
 8002faa:	6020      	str	r0, [r4, #0]
      __b = _GLIBCXX_MOVE(__tmp);
 8002fac:	f844 2023 	str.w	r2, [r4, r3, lsl #2]
 8002fb0:	463a      	mov	r2, r7
      while (__last - __first > int(_S_threshold))
 8002fb2:	462b      	mov	r3, r5
 8002fb4:	6820      	ldr	r0, [r4, #0]
 8002fb6:	4690      	mov	r8, r2
 8002fb8:	f852 1b04 	ldr.w	r1, [r2], #4
 8002fbc:	f8d0 9008 	ldr.w	r9, [r0, #8]
	  while (__comp(__first, __pivot))
 8002fc0:	6888      	ldr	r0, [r1, #8]
 8002fc2:	4548      	cmp	r0, r9
 8002fc4:	d3f6      	bcc.n	8002fb4 <_ZSt16__introsort_loopIPPN6CRSLib3Can9Implement10TxUnitBaseEiN9__gnu_cxx5__ops15_Iter_comp_iterIZNSt6ranges8__detail16__make_comp_projINS9_4lessEZNS1_11TransmitterIJN13Chibarobo20228SampleTxEEE12sort_tx_unitEvEUlPKS3_E_EEDaRT_RT0_EUlOSK_OSM_E_EEEvSK_SK_SM_T1_+0xae>
	  --__last;
 8002fc6:	1f18      	subs	r0, r3, #4
 8002fc8:	4603      	mov	r3, r0
 8002fca:	f850 e904 	ldr.w	lr, [r0], #-4
	  while (__comp(__pivot, __last))
 8002fce:	f8de c008 	ldr.w	ip, [lr, #8]
 8002fd2:	45e1      	cmp	r9, ip
 8002fd4:	d3f8      	bcc.n	8002fc8 <_ZSt16__introsort_loopIPPN6CRSLib3Can9Implement10TxUnitBaseEiN9__gnu_cxx5__ops15_Iter_comp_iterIZNSt6ranges8__detail16__make_comp_projINS9_4lessEZNS1_11TransmitterIJN13Chibarobo20228SampleTxEEE12sort_tx_unitEvEUlPKS3_E_EEDaRT_RT0_EUlOSK_OSM_E_EEEvSK_SK_SM_T1_+0xc2>
	  if (!(__first < __last))
 8002fd6:	4598      	cmp	r8, r3
 8002fd8:	d318      	bcc.n	800300c <_ZSt16__introsort_loopIPPN6CRSLib3Can9Implement10TxUnitBaseEiN9__gnu_cxx5__ops15_Iter_comp_iterIZNSt6ranges8__detail16__make_comp_projINS9_4lessEZNS1_11TransmitterIJN13Chibarobo20228SampleTxEEE12sort_tx_unitEvEUlPKS3_E_EEDaRT_RT0_EUlOSK_OSM_E_EEEvSK_SK_SM_T1_+0x106>
	  std::__introsort_loop(__cut, __last, __depth_limit, __comp);
 8002fda:	9b10      	ldr	r3, [sp, #64]	; 0x40
 8002fdc:	4629      	mov	r1, r5
 8002fde:	9300      	str	r3, [sp, #0]
 8002fe0:	4632      	mov	r2, r6
 8002fe2:	4640      	mov	r0, r8
 8002fe4:	9b0f      	ldr	r3, [sp, #60]	; 0x3c
 8002fe6:	f7ff ff8e 	bl	8002f06 <_ZSt16__introsort_loopIPPN6CRSLib3Can9Implement10TxUnitBaseEiN9__gnu_cxx5__ops15_Iter_comp_iterIZNSt6ranges8__detail16__make_comp_projINS9_4lessEZNS1_11TransmitterIJN13Chibarobo20228SampleTxEEE12sort_tx_unitEvEUlPKS3_E_EEDaRT_RT0_EUlOSK_OSM_E_EEEvSK_SK_SM_T1_>
      while (__last - __first > int(_S_threshold))
 8002fea:	4645      	mov	r5, r8
 8002fec:	e794      	b.n	8002f18 <_ZSt16__introsort_loopIPPN6CRSLib3Can9Implement10TxUnitBaseEiN9__gnu_cxx5__ops15_Iter_comp_iterIZNSt6ranges8__detail16__make_comp_projINS9_4lessEZNS1_11TransmitterIJN13Chibarobo20228SampleTxEEE12sort_tx_unitEvEUlPKS3_E_EEDaRT_RT0_EUlOSK_OSM_E_EEEvSK_SK_SM_T1_+0x12>
	  else if (__comp(__a, __c))
 8002fee:	4589      	cmp	r9, r1
 8002ff0:	d206      	bcs.n	8003000 <_ZSt16__introsort_loopIPPN6CRSLib3Can9Implement10TxUnitBaseEiN9__gnu_cxx5__ops15_Iter_comp_iterIZNSt6ranges8__detail16__make_comp_projINS9_4lessEZNS1_11TransmitterIJN13Chibarobo20228SampleTxEEE12sort_tx_unitEvEUlPKS3_E_EEDaRT_RT0_EUlOSK_OSM_E_EEEvSK_SK_SM_T1_+0xfa>
      __a = _GLIBCXX_MOVE(__b);
 8002ff2:	f8c4 c000 	str.w	ip, [r4]
      __b = _GLIBCXX_MOVE(__tmp);
 8002ff6:	f845 2c04 	str.w	r2, [r5, #-4]
    }
 8002ffa:	e7d9      	b.n	8002fb0 <_ZSt16__introsort_loopIPPN6CRSLib3Can9Implement10TxUnitBaseEiN9__gnu_cxx5__ops15_Iter_comp_iterIZNSt6ranges8__detail16__make_comp_projINS9_4lessEZNS1_11TransmitterIJN13Chibarobo20228SampleTxEEE12sort_tx_unitEvEUlPKS3_E_EEDaRT_RT0_EUlOSK_OSM_E_EEEvSK_SK_SM_T1_+0xaa>
      else if (__comp(__a, __c))
 8002ffc:	4589      	cmp	r9, r1
 8002ffe:	d202      	bcs.n	8003006 <_ZSt16__introsort_loopIPPN6CRSLib3Can9Implement10TxUnitBaseEiN9__gnu_cxx5__ops15_Iter_comp_iterIZNSt6ranges8__detail16__make_comp_projINS9_4lessEZNS1_11TransmitterIJN13Chibarobo20228SampleTxEEE12sort_tx_unitEvEUlPKS3_E_EEDaRT_RT0_EUlOSK_OSM_E_EEEvSK_SK_SM_T1_+0x100>
 8003000:	e9c4 8200 	strd	r8, r2, [r4]
 8003004:	e7d4      	b.n	8002fb0 <_ZSt16__introsort_loopIPPN6CRSLib3Can9Implement10TxUnitBaseEiN9__gnu_cxx5__ops15_Iter_comp_iterIZNSt6ranges8__detail16__make_comp_projINS9_4lessEZNS1_11TransmitterIJN13Chibarobo20228SampleTxEEE12sort_tx_unitEvEUlPKS3_E_EEDaRT_RT0_EUlOSK_OSM_E_EEEvSK_SK_SM_T1_+0xaa>
      else if (__comp(__b, __c))
 8003006:	458e      	cmp	lr, r1
 8003008:	d2cf      	bcs.n	8002faa <_ZSt16__introsort_loopIPPN6CRSLib3Can9Implement10TxUnitBaseEiN9__gnu_cxx5__ops15_Iter_comp_iterIZNSt6ranges8__detail16__make_comp_projINS9_4lessEZNS1_11TransmitterIJN13Chibarobo20228SampleTxEEE12sort_tx_unitEvEUlPKS3_E_EEDaRT_RT0_EUlOSK_OSM_E_EEEvSK_SK_SM_T1_+0xa4>
 800300a:	e7f2      	b.n	8002ff2 <_ZSt16__introsort_loopIPPN6CRSLib3Can9Implement10TxUnitBaseEiN9__gnu_cxx5__ops15_Iter_comp_iterIZNSt6ranges8__detail16__make_comp_projINS9_4lessEZNS1_11TransmitterIJN13Chibarobo20228SampleTxEEE12sort_tx_unitEvEUlPKS3_E_EEDaRT_RT0_EUlOSK_OSM_E_EEEvSK_SK_SM_T1_+0xec>
      __a = _GLIBCXX_MOVE(__b);
 800300c:	f842 ec04 	str.w	lr, [r2, #-4]
      __b = _GLIBCXX_MOVE(__tmp);
 8003010:	6019      	str	r1, [r3, #0]
	  while (__comp(__first, __pivot))
 8003012:	e7cf      	b.n	8002fb4 <_ZSt16__introsort_loopIPPN6CRSLib3Can9Implement10TxUnitBaseEiN9__gnu_cxx5__ops15_Iter_comp_iterIZNSt6ranges8__detail16__make_comp_projINS9_4lessEZNS1_11TransmitterIJN13Chibarobo20228SampleTxEEE12sort_tx_unitEvEUlPKS3_E_EEDaRT_RT0_EUlOSK_OSM_E_EEEvSK_SK_SM_T1_+0xae>

08003014 <_ZN6CRSLib3Can11TransmitterIJN13Chibarobo20228SampleTxEEEC1IJmEEEDpKT_>:
		u32 base_id;

	public:
		UnitBase(const u32 id_num, const u32 base_id) noexcept:
			id_num{id_num},
			base_id{base_id}
 8003014:	2301      	movs	r3, #1
		Transmitter(const std::same_as<u32> auto ... args) noexcept:
 8003016:	e92d 43f0 	stmdb	sp!, {r4, r5, r6, r7, r8, r9, lr}
 800301a:	4604      	mov	r4, r0
 800301c:	e9c0 3101 	strd	r3, r1, [r0, #4]
			TxUnitBase{to_underlying(OffsetIdsEnum::n), base_id}
 8003020:	4b2e      	ldr	r3, [pc, #184]	; (80030dc <_ZN6CRSLib3Can11TransmitterIJN13Chibarobo20228SampleTxEEEC1IJmEEEDpKT_+0xc8>)
 8003022:	b089      	sub	sp, #36	; 0x24

  template<std::size_t _Idx, typename _Head>
    struct _Head_base<_Idx, _Head, false>
    {
      constexpr _Head_base()
      : _M_head_impl() { }
 8003024:	227c      	movs	r2, #124	; 0x7c
 8003026:	2100      	movs	r1, #0
 8003028:	f840 3b0c 	str.w	r3, [r0], #12
 800302c:	f003 fe56 	bl	8006cdc <memset>
	class SafeCircularQueue final : SafeCircularQueueEraseN<Elem>
 8003030:	4b2b      	ldr	r3, [pc, #172]	; (80030e0 <_ZN6CRSLib3Can11TransmitterIJN13Chibarobo20228SampleTxEEEC1IJmEEEDpKT_+0xcc>)
 8003032:	226e      	movs	r2, #110	; 0x6e
 8003034:	2100      	movs	r1, #0
 8003036:	60e3      	str	r3, [r4, #12]
 8003038:	f104 0010 	add.w	r0, r4, #16
 800303c:	f003 fe4e 	bl	8006cdc <memset>
 8003040:	230a      	movs	r3, #10
 	           : _AT_Type::_S_ref(_M_elems, 0);
      }

      _GLIBCXX17_CONSTEXPR pointer
      data() noexcept
      { return _AT_Type::_S_ptr(_M_elems); }
 8003042:	f104 0688 	add.w	r6, r4, #136	; 0x88
      { return iterator(data() + _Nm); }
 8003046:	f104 078c 	add.w	r7, r4, #140	; 0x8c
				std::__lg(__last - __first) * 2,
 800304a:	eba7 0806 	sub.w	r8, r7, r6
 800304e:	ea4f 02a8 	mov.w	r2, r8, asr #2
  { return (int)sizeof(int) * __CHAR_BIT__  - 1 - __builtin_clz(__n); }
 8003052:	fab2 f282 	clz	r2, r2
			tx_units{args ...}
 8003056:	e9c4 3421 	strd	r3, r4, [r4, #132]	; 0x84
 800305a:	2300      	movs	r3, #0
	  std::__introsort_loop(__first, __last,
 800305c:	ad03      	add	r5, sp, #12
 800305e:	f10d 0908 	add.w	r9, sp, #8
 8003062:	f1c2 021f 	rsb	r2, r2, #31
 8003066:	f884 308c 	strb.w	r3, [r4, #140]	; 0x8c
      end() noexcept
 800306a:	f88d 300c 	strb.w	r3, [sp, #12]
 800306e:	f88d 3008 	strb.w	r3, [sp, #8]
 8003072:	4639      	mov	r1, r7
 8003074:	462b      	mov	r3, r5
 8003076:	4630      	mov	r0, r6
 8003078:	f8cd 9000 	str.w	r9, [sp]
 800307c:	0052      	lsls	r2, r2, #1
 800307e:	9504      	str	r5, [sp, #16]
 8003080:	f8cd 9014 	str.w	r9, [sp, #20]
 8003084:	f7ff ff3f 	bl	8002f06 <_ZSt16__introsort_loopIPPN6CRSLib3Can9Implement10TxUnitBaseEiN9__gnu_cxx5__ops15_Iter_comp_iterIZNSt6ranges8__detail16__make_comp_projINS9_4lessEZNS1_11TransmitterIJN13Chibarobo20228SampleTxEEE12sort_tx_unitEvEUlPKS3_E_EEDaRT_RT0_EUlOSK_OSM_E_EEEvSK_SK_SM_T1_>
      if (__last - __first > int(_S_threshold))
 8003088:	f1b8 0f40 	cmp.w	r8, #64	; 0x40
 800308c:	e9cd 5906 	strd	r5, r9, [sp, #24]
    __final_insertion_sort(_RandomAccessIterator __first,
 8003090:	ab06      	add	r3, sp, #24
      if (__last - __first > int(_S_threshold))
 8003092:	dd16      	ble.n	80030c2 <_ZN6CRSLib3Can11TransmitterIJN13Chibarobo20228SampleTxEEEC1IJmEEEDpKT_+0xae>
	  std::__insertion_sort(__first, __first + int(_S_threshold), __comp);
 8003094:	cb0c      	ldmia	r3, {r2, r3}
 8003096:	f104 05c8 	add.w	r5, r4, #200	; 0xc8
 800309a:	4629      	mov	r1, r5
 800309c:	4630      	mov	r0, r6
 800309e:	f7ff fec0 	bl	8002e22 <_ZSt16__insertion_sortIPPN6CRSLib3Can9Implement10TxUnitBaseEN9__gnu_cxx5__ops15_Iter_comp_iterIZNSt6ranges8__detail16__make_comp_projINS9_4lessEZNS1_11TransmitterIJN13Chibarobo20228SampleTxEEE12sort_tx_unitEvEUlPKS3_E_EEDaRT_RT0_EUlOSK_OSM_E_EEEvSK_SK_SM_>
      for (_RandomAccessIterator __i = __first; __i != __last; ++__i)
 80030a2:	42bd      	cmp	r5, r7
 80030a4:	d012      	beq.n	80030cc <_ZN6CRSLib3Can11TransmitterIJN13Chibarobo20228SampleTxEEEC1IJmEEEDpKT_+0xb8>
    __unguarded_linear_insert(_RandomAccessIterator __last,
 80030a6:	462b      	mov	r3, r5
	__val = _GLIBCXX_MOVE(*__last);
 80030a8:	682a      	ldr	r2, [r5, #0]
			std::ranges::sort(tx_units_p, {}, [](const Implement::TxUnitBase * p){return p->base_id;});
 80030aa:	6890      	ldr	r0, [r2, #8]
 80030ac:	f853 1c04 	ldr.w	r1, [r3, #-4]
      while (__comp(__val, __next))
 80030b0:	688e      	ldr	r6, [r1, #8]
 80030b2:	42b0      	cmp	r0, r6
 80030b4:	d202      	bcs.n	80030bc <_ZN6CRSLib3Can11TransmitterIJN13Chibarobo20228SampleTxEEEC1IJmEEEDpKT_+0xa8>
	  *__last = _GLIBCXX_MOVE(*__next);
 80030b6:	f843 1904 	str.w	r1, [r3], #-4
      while (__comp(__val, __next))
 80030ba:	e7f7      	b.n	80030ac <_ZN6CRSLib3Can11TransmitterIJN13Chibarobo20228SampleTxEEEC1IJmEEEDpKT_+0x98>
      *__last = _GLIBCXX_MOVE(__val);
 80030bc:	601a      	str	r2, [r3, #0]
      for (_RandomAccessIterator __i = __first; __i != __last; ++__i)
 80030be:	3504      	adds	r5, #4
 80030c0:	e7ef      	b.n	80030a2 <_ZN6CRSLib3Can11TransmitterIJN13Chibarobo20228SampleTxEEEC1IJmEEEDpKT_+0x8e>
	std::__insertion_sort(__first, __last, __comp);
 80030c2:	4639      	mov	r1, r7
 80030c4:	cb0c      	ldmia	r3, {r2, r3}
 80030c6:	4630      	mov	r0, r6
 80030c8:	f7ff feab 	bl	8002e22 <_ZSt16__insertion_sortIPPN6CRSLib3Can9Implement10TxUnitBaseEN9__gnu_cxx5__ops15_Iter_comp_iterIZNSt6ranges8__detail16__make_comp_projINS9_4lessEZNS1_11TransmitterIJN13Chibarobo20228SampleTxEEE12sort_tx_unitEvEUlPKS3_E_EEDaRT_RT0_EUlOSK_OSM_E_EEEvSK_SK_SM_>
			is_id_sorted = true;
 80030cc:	2301      	movs	r3, #1
		}
 80030ce:	4620      	mov	r0, r4
			is_id_sorted = true;
 80030d0:	f884 308c 	strb.w	r3, [r4, #140]	; 0x8c
		}
 80030d4:	b009      	add	sp, #36	; 0x24
 80030d6:	e8bd 83f0 	ldmia.w	sp!, {r4, r5, r6, r7, r8, r9, pc}
 80030da:	bf00      	nop
 80030dc:	080071a4 	.word	0x080071a4
 80030e0:	0800718c 	.word	0x0800718c

080030e4 <_GLOBAL__sub_I__ZN13Chibarobo20228executorE>:

}

namespace Chibarobo2022
{
	inline CRSLib::Can::Transmitter<Chibarobo2022::SampleTx> transmitter{(u32)0x100};
 80030e4:	4a15      	ldr	r2, [pc, #84]	; (800313c <_GLOBAL__sub_I__ZN13Chibarobo20228executorE+0x58>)
			transmitter.transmit(can_manager.pillarbox);
			
			executor.run_once();
		}
	}
}
 80030e6:	b510      	push	{r4, lr}
 80030e8:	6813      	ldr	r3, [r2, #0]
 80030ea:	3301      	adds	r3, #1
 80030ec:	2b01      	cmp	r3, #1
 80030ee:	6013      	str	r3, [r2, #0]
 80030f0:	d104      	bne.n	80030fc <_GLOBAL__sub_I__ZN13Chibarobo20228executorE+0x18>
 80030f2:	f44f 7180 	mov.w	r1, #256	; 0x100
 80030f6:	4812      	ldr	r0, [pc, #72]	; (8003140 <_GLOBAL__sub_I__ZN13Chibarobo20228executorE+0x5c>)
 80030f8:	f7ff ff8c 	bl	8003014 <_ZN6CRSLib3Can11TransmitterIJN13Chibarobo20228SampleTxEEEC1IJmEEEDpKT_>
	};
}

namespace Chibarobo2022
{
	inline CRSLib::Can::Receiver<Chibarobo2022::SampleRx> receiver{(u32)0x101};
 80030fc:	4a11      	ldr	r2, [pc, #68]	; (8003144 <_GLOBAL__sub_I__ZN13Chibarobo20228executorE+0x60>)
 80030fe:	6813      	ldr	r3, [r2, #0]
 8003100:	3301      	adds	r3, #1
 8003102:	2b01      	cmp	r3, #1
 8003104:	6013      	str	r3, [r2, #0]
 8003106:	d117      	bne.n	8003138 <_GLOBAL__sub_I__ZN13Chibarobo20228executorE+0x54>
 8003108:	4c0f      	ldr	r4, [pc, #60]	; (8003148 <_GLOBAL__sub_I__ZN13Chibarobo20228executorE+0x64>)
 800310a:	f44f 72f6 	mov.w	r2, #492	; 0x1ec
 800310e:	6023      	str	r3, [r4, #0]
 8003110:	f240 1301 	movw	r3, #257	; 0x101
 8003114:	2100      	movs	r1, #0
 8003116:	f104 0008 	add.w	r0, r4, #8
 800311a:	6063      	str	r3, [r4, #4]
 800311c:	f003 fdde 	bl	8006cdc <memset>
 8003120:	4b0a      	ldr	r3, [pc, #40]	; (800314c <_GLOBAL__sub_I__ZN13Chibarobo20228executorE+0x68>)
 8003122:	f44f 72f0 	mov.w	r2, #480	; 0x1e0
 8003126:	2100      	movs	r1, #0
 8003128:	f104 000c 	add.w	r0, r4, #12
 800312c:	60a3      	str	r3, [r4, #8]
 800312e:	f003 fdd5 	bl	8006cdc <memset>
 8003132:	2314      	movs	r3, #20
 8003134:	f8c4 31f0 	str.w	r3, [r4, #496]	; 0x1f0
 8003138:	bd10      	pop	{r4, pc}
 800313a:	bf00      	nop
 800313c:	2000009c 	.word	0x2000009c
 8003140:	20000294 	.word	0x20000294
 8003144:	20000098 	.word	0x20000098
 8003148:	200000a0 	.word	0x200000a0
 800314c:	080071b0 	.word	0x080071b0

08003150 <_ZNSt17_Function_handlerIFiPhmEN11stepping_md13CanController8callbackMUlS0_mE_EE9_M_invokeERKSt9_Any_dataOS0_Om>:
      static _Res
      _M_invoke(const _Any_data& __functor, _ArgTypes&&... __args)
      {
	return std::__invoke_r<_Res>(*_Base::_M_get_pointer(__functor),
				     std::forward<_ArgTypes>(__args)...);
      }
 8003150:	2000      	movs	r0, #0
 8003152:	4770      	bx	lr

08003154 <_ZNSt17_Function_handlerIFiPhmEN11stepping_md13CanController8callbackMUlS0_mE_EE10_M_managerERSt9_Any_dataRKS6_St18_Manager_operation>:
	switch (__op)
 8003154:	b11a      	cbz	r2, 800315e <_ZNSt17_Function_handlerIFiPhmEN11stepping_md13CanController8callbackMUlS0_mE_EE10_M_managerERSt9_Any_dataRKS6_St18_Manager_operation+0xa>
 8003156:	2a01      	cmp	r2, #1
 8003158:	d004      	beq.n	8003164 <_ZNSt17_Function_handlerIFiPhmEN11stepping_md13CanController8callbackMUlS0_mE_EE10_M_managerERSt9_Any_dataRKS6_St18_Manager_operation+0x10>
      }
 800315a:	2000      	movs	r0, #0
 800315c:	4770      	bx	lr
	    __dest._M_access<const type_info*>() = &typeid(_Functor);
 800315e:	4b02      	ldr	r3, [pc, #8]	; (8003168 <_ZNSt17_Function_handlerIFiPhmEN11stepping_md13CanController8callbackMUlS0_mE_EE10_M_managerERSt9_Any_dataRKS6_St18_Manager_operation+0x14>)
 8003160:	6003      	str	r3, [r0, #0]
	    break;
 8003162:	e7fa      	b.n	800315a <_ZNSt17_Function_handlerIFiPhmEN11stepping_md13CanController8callbackMUlS0_mE_EE10_M_managerERSt9_Any_dataRKS6_St18_Manager_operation+0x6>
	    __dest._M_access<_Functor*>() = _Base::_M_get_pointer(__source);
 8003164:	6001      	str	r1, [r0, #0]
	    break;
 8003166:	e7f8      	b.n	800315a <_ZNSt17_Function_handlerIFiPhmEN11stepping_md13CanController8callbackMUlS0_mE_EE10_M_managerERSt9_Any_dataRKS6_St18_Manager_operation+0x6>
 8003168:	0800720c 	.word	0x0800720c

0800316c <_ZN11stepping_md13CanControllerC1ERN6CRSLib3Can6RM000810CanManagerERNS_10ParametersEm>:
namespace stepping_md {
	std::vector<CRSLib::Can::RM0008::RxFrame> CanController::rx_frames;

	std::list<CanController*> CanController::pInstances;

	CanController::CanController(CanManager& can_manager, Parameters& params, uint32_t offset_from_bid): can_manager(can_manager), params(params), offset_from_bid(offset_from_bid){
 800316c:	b538      	push	{r3, r4, r5, lr}
 800316e:	6001      	str	r1, [r0, #0]
	typedef _Function_handler<_Res(_ArgTypes...), _Functor> _My_handler;

	if (_My_handler::_M_not_empty_function(__f))
	  {
	    _My_handler::_M_init_functor(_M_functor, std::move(__f));
	    _M_invoker = &_My_handler::_M_invoke;
 8003170:	490e      	ldr	r1, [pc, #56]	; (80031ac <_ZN11stepping_md13CanControllerC1ERN6CRSLib3Can6RM000810CanManagerERNS_10ParametersEm+0x40>)
 8003172:	4604      	mov	r4, r0
 8003174:	6101      	str	r1, [r0, #16]
	    _M_manager = &_My_handler::_M_manager;
 8003176:	490e      	ldr	r1, [pc, #56]	; (80031b0 <_ZN11stepping_md13CanControllerC1ERN6CRSLib3Can6RM000810CanManagerERNS_10ParametersEm+0x44>)
 8003178:	e9c0 2305 	strd	r2, r3, [r0, #20]
 800317c:	60c1      	str	r1, [r0, #12]
	  {
	    std::align_val_t __al = std::align_val_t(alignof(_Tp));
	    return static_cast<_Tp*>(::operator new(__n * sizeof(_Tp), __al));
	  }
#endif
	return static_cast<_Tp*>(::operator new(__n * sizeof(_Tp)));
 800317e:	200c      	movs	r0, #12
 8003180:	f003 f9c3 	bl	800650a <_Znwj>
 8003184:	e007      	b.n	8003196 <_ZN11stepping_md13CanControllerC1ERN6CRSLib3Can6RM000810CanManagerERNS_10ParametersEm+0x2a>
      if (_M_manager)
 8003186:	68e3      	ldr	r3, [r4, #12]
    class function<_Res(_ArgTypes...)>
 8003188:	1d21      	adds	r1, r4, #4
      if (_M_manager)
 800318a:	b113      	cbz	r3, 8003192 <_ZN11stepping_md13CanControllerC1ERN6CRSLib3Can6RM000810CanManagerERNS_10ParametersEm+0x26>
	_M_manager(_M_functor, _M_functor, __destroy_functor);
 800318c:	2203      	movs	r2, #3
 800318e:	4608      	mov	r0, r1
 8003190:	4798      	blx	r3
 8003192:	f002 fe61 	bl	8005e58 <__cxa_end_cleanup>
     template<typename... _Args>
       void
       _M_insert(iterator __position, _Args&&... __args)
       {
	 _Node* __tmp = _M_create_node(std::forward<_Args>(__args)...);
	 __tmp->_M_hook(__position._M_node);
 8003196:	4d07      	ldr	r5, [pc, #28]	; (80031b4 <_ZN11stepping_md13CanControllerC1ERN6CRSLib3Can6RM000810CanManagerERNS_10ParametersEm+0x48>)
  template<typename _Tp, typename... _Args>
    constexpr auto
    construct_at(_Tp* __location, _Args&&... __args)
    noexcept(noexcept(::new((void*)0) _Tp(std::declval<_Args>()...)))
    -> decltype(::new((void*)0) _Tp(std::declval<_Args>()...))
    { return ::new((void*)__location) _Tp(std::forward<_Args>(__args)...); }
 8003198:	6084      	str	r4, [r0, #8]
 800319a:	4629      	mov	r1, r5
 800319c:	f003 fc96 	bl	8006acc <_ZNSt8__detail15_List_node_base7_M_hookEPS0_>
      void _M_inc_size(size_t __n) { _M_impl._M_node._M_size += __n; }
 80031a0:	68ab      	ldr	r3, [r5, #8]
		CanController::pInstances.push_back(this);
	}
 80031a2:	4620      	mov	r0, r4
 80031a4:	3301      	adds	r3, #1
 80031a6:	60ab      	str	r3, [r5, #8]
 80031a8:	bd38      	pop	{r3, r4, r5, pc}
 80031aa:	bf00      	nop
 80031ac:	08003151 	.word	0x08003151
 80031b0:	08003155 	.word	0x08003155
 80031b4:	20000324 	.word	0x20000324

080031b8 <_ZNSt6vectorIN6CRSLib3Can6RM00087RxFrameESaIS3_EE17_M_realloc_insertIJRKS3_EEEvN9__gnu_cxx17__normal_iteratorIPS3_S5_EEDpOT_>:

#if __cplusplus >= 201103L
  template<typename _Tp, typename _Alloc>
    template<typename... _Args>
      void
      vector<_Tp, _Alloc>::
 80031b8:	e92d 4ff7 	stmdb	sp!, {r0, r1, r2, r4, r5, r6, r7, r8, r9, sl, fp, lr}

      // [23.2.4.2] capacity
      /**  Returns the number of elements in the %vector.  */
      size_type
      size() const _GLIBCXX_NOEXCEPT
      { return size_type(this->_M_impl._M_finish - this->_M_impl._M_start); }
 80031bc:	6843      	ldr	r3, [r0, #4]
 80031be:	f8d0 8000 	ldr.w	r8, [r0]
 80031c2:	4c41      	ldr	r4, [pc, #260]	; (80032c8 <_ZNSt6vectorIN6CRSLib3Can6RM00087RxFrameESaIS3_EE17_M_realloc_insertIJRKS3_EEEvN9__gnu_cxx17__normal_iteratorIPS3_S5_EEDpOT_+0x110>)
 80031c4:	9301      	str	r3, [sp, #4]
 80031c6:	eba3 0308 	sub.w	r3, r3, r8
 80031ca:	10db      	asrs	r3, r3, #3
 80031cc:	4363      	muls	r3, r4
 80031ce:	4692      	mov	sl, r2

      // Called by _M_fill_insert, _M_insert_aux etc.
      size_type
      _M_check_len(size_type __n, const char* __s) const
      {
	if (max_size() - size() < __n)
 80031d0:	4a3e      	ldr	r2, [pc, #248]	; (80032cc <_ZNSt6vectorIN6CRSLib3Can6RM00087RxFrameESaIS3_EE17_M_realloc_insertIJRKS3_EEEvN9__gnu_cxx17__normal_iteratorIPS3_S5_EEDpOT_+0x114>)
 80031d2:	4607      	mov	r7, r0
 80031d4:	4293      	cmp	r3, r2
 80031d6:	4689      	mov	r9, r1
 80031d8:	d102      	bne.n	80031e0 <_ZNSt6vectorIN6CRSLib3Can6RM00087RxFrameESaIS3_EE17_M_realloc_insertIJRKS3_EEEvN9__gnu_cxx17__normal_iteratorIPS3_S5_EEDpOT_+0x28>
	  __throw_length_error(__N(__s));
 80031da:	483d      	ldr	r0, [pc, #244]	; (80032d0 <_ZNSt6vectorIN6CRSLib3Can6RM00087RxFrameESaIS3_EE17_M_realloc_insertIJRKS3_EEEvN9__gnu_cxx17__normal_iteratorIPS3_S5_EEDpOT_+0x118>)
 80031dc:	f003 fc7d 	bl	8006ada <_ZSt20__throw_length_errorPKc>
 80031e0:	2b01      	cmp	r3, #1
 80031e2:	461c      	mov	r4, r3
 80031e4:	bf38      	it	cc
 80031e6:	2401      	movcc	r4, #1
 80031e8:	18e4      	adds	r4, r4, r3
    _GLIBCXX20_CONSTEXPR
    inline typename __normal_iterator<_Iterator, _Container>::difference_type
    operator-(const __normal_iterator<_Iterator, _Container>& __lhs,
	      const __normal_iterator<_Iterator, _Container>& __rhs)
    _GLIBCXX_NOEXCEPT
    { return __lhs.base() - __rhs.base(); }
 80031ea:	eba1 0508 	sub.w	r5, r1, r8

	const size_type __len = size() + (std::max)(size(), __n);
	return (__len < size() || __len > max_size()) ? max_size() : __len;
 80031ee:	d23b      	bcs.n	8003268 <_ZNSt6vectorIN6CRSLib3Can6RM00087RxFrameESaIS3_EE17_M_realloc_insertIJRKS3_EEEvN9__gnu_cxx17__normal_iteratorIPS3_S5_EEDpOT_+0xb0>
	return __n != 0 ? _Tr::allocate(_M_impl, __n) : pointer();
 80031f0:	b3e4      	cbz	r4, 800326c <_ZNSt6vectorIN6CRSLib3Can6RM00087RxFrameESaIS3_EE17_M_realloc_insertIJRKS3_EEEvN9__gnu_cxx17__normal_iteratorIPS3_S5_EEDpOT_+0xb4>
 80031f2:	4294      	cmp	r4, r2
 80031f4:	bf28      	it	cs
 80031f6:	4614      	movcs	r4, r2
 80031f8:	2018      	movs	r0, #24
 80031fa:	4360      	muls	r0, r4
 80031fc:	f003 f985 	bl	800650a <_Znwj>
 8003200:	4606      	mov	r6, r0
#endif // __cpp_sized_deallocation
#endif // __cpp_aligned_new

// Default placement versions of operator new.
_GLIBCXX_NODISCARD inline void* operator new(std::size_t, void* __p) _GLIBCXX_USE_NOEXCEPT
{ return __p; }
 8003202:	46d4      	mov	ip, sl
	_ValueType;
      typedef typename iterator_traits<_ForwardIterator>::value_type
	_ValueType2;
      static_assert(std::is_same<_ValueType, _ValueType2>::value,
	  "relocation is only possible for values of the same type");
      _ForwardIterator __cur = __result;
 8003204:	46b3      	mov	fp, r6
 8003206:	e8bc 000f 	ldmia.w	ip!, {r0, r1, r2, r3}
      { return size_type(this->_M_impl._M_finish - this->_M_impl._M_start); }
 800320a:	46c2      	mov	sl, r8
 800320c:	eb06 0e05 	add.w	lr, r6, r5
 8003210:	e8ae 000f 	stmia.w	lr!, {r0, r1, r2, r3}
 8003214:	e89c 0003 	ldmia.w	ip, {r0, r1}
 8003218:	e88e 0003 	stmia.w	lr, {r0, r1}
      for (; __first != __last; ++__first, (void)++__cur)
 800321c:	45d1      	cmp	r9, sl
 800321e:	f10b 0b18 	add.w	fp, fp, #24
 8003222:	d125      	bne.n	8003270 <_ZNSt6vectorIN6CRSLib3Can6RM00087RxFrameESaIS3_EE17_M_realloc_insertIJRKS3_EEEvN9__gnu_cxx17__normal_iteratorIPS3_S5_EEDpOT_+0xb8>
 8003224:	2318      	movs	r3, #24
 8003226:	f8df a0ac 	ldr.w	sl, [pc, #172]	; 80032d4 <_ZNSt6vectorIN6CRSLib3Can6RM00087RxFrameESaIS3_EE17_M_realloc_insertIJRKS3_EEEvN9__gnu_cxx17__normal_iteratorIPS3_S5_EEDpOT_+0x11c>
 800322a:	08ed      	lsrs	r5, r5, #3
 800322c:	fb0a f505 	mul.w	r5, sl, r5
 8003230:	f025 4560 	bic.w	r5, r5, #3758096384	; 0xe0000000
 8003234:	fb03 8b05 	mla	fp, r3, r5, r8
 8003238:	fb05 3303 	mla	r3, r5, r3, r3
 800323c:	18f3      	adds	r3, r6, r3
 800323e:	4699      	mov	r9, r3
 8003240:	465d      	mov	r5, fp
 8003242:	9300      	str	r3, [sp, #0]
 8003244:	9b01      	ldr	r3, [sp, #4]
 8003246:	f109 0918 	add.w	r9, r9, #24
 800324a:	429d      	cmp	r5, r3
 800324c:	d01e      	beq.n	800328c <_ZNSt6vectorIN6CRSLib3Can6RM00087RxFrameESaIS3_EE17_M_realloc_insertIJRKS3_EEEvN9__gnu_cxx17__normal_iteratorIPS3_S5_EEDpOT_+0xd4>
 800324e:	46ae      	mov	lr, r5
 8003250:	f1a9 0c18 	sub.w	ip, r9, #24
 8003254:	e8be 000f 	ldmia.w	lr!, {r0, r1, r2, r3}
 8003258:	e8ac 000f 	stmia.w	ip!, {r0, r1, r2, r3}
 800325c:	3518      	adds	r5, #24
 800325e:	e89e 0003 	ldmia.w	lr, {r0, r1}
 8003262:	e88c 0003 	stmia.w	ip, {r0, r1}
 8003266:	e7ed      	b.n	8003244 <_ZNSt6vectorIN6CRSLib3Can6RM00087RxFrameESaIS3_EE17_M_realloc_insertIJRKS3_EEEvN9__gnu_cxx17__normal_iteratorIPS3_S5_EEDpOT_+0x8c>
	return (__len < size() || __len > max_size()) ? max_size() : __len;
 8003268:	4614      	mov	r4, r2
 800326a:	e7c5      	b.n	80031f8 <_ZNSt6vectorIN6CRSLib3Can6RM00087RxFrameESaIS3_EE17_M_realloc_insertIJRKS3_EEEvN9__gnu_cxx17__normal_iteratorIPS3_S5_EEDpOT_+0x40>
	return __n != 0 ? _Tr::allocate(_M_impl, __n) : pointer();
 800326c:	4626      	mov	r6, r4
 800326e:	e7c8      	b.n	8003202 <_ZNSt6vectorIN6CRSLib3Can6RM00087RxFrameESaIS3_EE17_M_realloc_insertIJRKS3_EEEvN9__gnu_cxx17__normal_iteratorIPS3_S5_EEDpOT_+0x4a>
 8003270:	46d6      	mov	lr, sl
 8003272:	f1ab 0c18 	sub.w	ip, fp, #24
 8003276:	e8be 000f 	ldmia.w	lr!, {r0, r1, r2, r3}
 800327a:	e8ac 000f 	stmia.w	ip!, {r0, r1, r2, r3}
 800327e:	f10a 0a18 	add.w	sl, sl, #24
 8003282:	e89e 0003 	ldmia.w	lr, {r0, r1}
 8003286:	e88c 0003 	stmia.w	ip, {r0, r1}
 800328a:	e7c7      	b.n	800321c <_ZNSt6vectorIN6CRSLib3Can6RM00087RxFrameESaIS3_EE17_M_realloc_insertIJRKS3_EEEvN9__gnu_cxx17__normal_iteratorIPS3_S5_EEDpOT_+0x64>
 800328c:	eba5 050b 	sub.w	r5, r5, fp
 8003290:	08ed      	lsrs	r5, r5, #3
 8003292:	fb0a fa05 	mul.w	sl, sl, r5
 8003296:	2518      	movs	r5, #24
 8003298:	9b00      	ldr	r3, [sp, #0]
 800329a:	f02a 4a60 	bic.w	sl, sl, #3758096384	; 0xe0000000
 800329e:	fb05 350a 	mla	r5, r5, sl, r3
	if (__p)
 80032a2:	f1b8 0f00 	cmp.w	r8, #0
 80032a6:	d005      	beq.n	80032b4 <_ZNSt6vectorIN6CRSLib3Can6RM00087RxFrameESaIS3_EE17_M_realloc_insertIJRKS3_EEEvN9__gnu_cxx17__normal_iteratorIPS3_S5_EEDpOT_+0xfc>
      if _GLIBCXX17_CONSTEXPR (!_S_use_relocate())
#endif
	std::_Destroy(__old_start, __old_finish, _M_get_Tp_allocator());
      _GLIBCXX_ASAN_ANNOTATE_REINIT;
      _M_deallocate(__old_start,
		    this->_M_impl._M_end_of_storage - __old_start);
 80032a8:	68b9      	ldr	r1, [r7, #8]
# endif
			      std::align_val_t(alignof(_Tp)));
	    return;
	  }
#endif
	::operator delete(__p
 80032aa:	4640      	mov	r0, r8
 80032ac:	eba1 0108 	sub.w	r1, r1, r8
 80032b0:	f002 fdd0 	bl	8005e54 <_ZdlPvj>
      this->_M_impl._M_start = __new_start;
      this->_M_impl._M_finish = __new_finish;
      this->_M_impl._M_end_of_storage = __new_start + __len;
 80032b4:	2018      	movs	r0, #24
 80032b6:	fb00 6404 	mla	r4, r0, r4, r6
      this->_M_impl._M_finish = __new_finish;
 80032ba:	e9c7 6500 	strd	r6, r5, [r7]
      this->_M_impl._M_end_of_storage = __new_start + __len;
 80032be:	60bc      	str	r4, [r7, #8]
    }
 80032c0:	b003      	add	sp, #12
 80032c2:	e8bd 8ff0 	ldmia.w	sp!, {r4, r5, r6, r7, r8, r9, sl, fp, pc}
 80032c6:	bf00      	nop
 80032c8:	aaaaaaab 	.word	0xaaaaaaab
 80032cc:	05555555 	.word	0x05555555
 80032d0:	080071c0 	.word	0x080071c0
 80032d4:	0aaaaaab 	.word	0x0aaaaaab

080032d8 <_ZN11stepping_md13CanController6updateEv>:

		can_manager.pillarbox.post(params.get_BID() + offset_from_bid, tx_frame);
	}
	*/

	void CanController::update(void){
 80032d8:	e92d 41f0 	stmdb	sp!, {r4, r5, r6, r7, r8, lr}
		if(!can_manager.letterbox0.empty()){
 80032dc:	6803      	ldr	r3, [r0, #0]
	void CanController::update(void){
 80032de:	4605      	mov	r5, r0
			};
		}

		bool empty() const noexcept
		{
			return HAL_CAN_GetRxFifoFillLevel(hcan, to_underlying(fifo_index)) == 0;
 80032e0:	e9d3 0101 	ldrd	r0, r1, [r3, #4]
 80032e4:	b090      	sub	sp, #64	; 0x40
 80032e6:	f001 fe39 	bl	8004f5c <HAL_CAN_GetRxFifoFillLevel>
 80032ea:	4e3a      	ldr	r6, [pc, #232]	; (80033d4 <_ZN11stepping_md13CanController6updateEv+0xfc>)
		if(!can_manager.letterbox0.empty()){
 80032ec:	2800      	cmp	r0, #0
 80032ee:	d034      	beq.n	800335a <_ZN11stepping_md13CanController6updateEv+0x82>
			RxFrame rx_frame;
 80032f0:	2218      	movs	r2, #24
 80032f2:	2100      	movs	r1, #0
 80032f4:	a802      	add	r0, sp, #8
 80032f6:	f003 fcf1 	bl	8006cdc <memset>
			can_manager.letterbox0.receive(rx_frame);
 80032fa:	682c      	ldr	r4, [r5, #0]
			CAN_RxHeaderTypeDef rx_header{};
 80032fc:	221c      	movs	r2, #28
 80032fe:	2100      	movs	r1, #0
 8003300:	a808      	add	r0, sp, #32
 8003302:	f003 fceb 	bl	8006cdc <memset>
			HAL_CAN_GetRxMessage(hcan, to_underlying(fifo_index), &rx_header, frame.data.data());
 8003306:	e9d4 0101 	ldrd	r0, r1, [r4, #4]
 800330a:	ab06      	add	r3, sp, #24
 800330c:	aa08      	add	r2, sp, #32
 800330e:	f001 fdae 	bl	8004e6e <HAL_CAN_GetRxMessage>
				.rtr = rx_header.RTR == CAN_RTR_REMOTE
 8003312:	9b0b      	ldr	r3, [sp, #44]	; 0x2c
			frame.header =
 8003314:	f89d 1030 	ldrb.w	r1, [sp, #48]	; 0x30
				.rtr = rx_header.RTR == CAN_RTR_REMOTE
 8003318:	1e9a      	subs	r2, r3, #2
 800331a:	4253      	negs	r3, r2
 800331c:	4153      	adcs	r3, r2
				.id = (rx_header.ExtId << (u32)11) | rx_header.StdId,
 800331e:	e9dd 2008 	ldrd	r2, r0, [sp, #32]
 8003322:	ea42 22c0 	orr.w	r2, r2, r0, lsl #11
			frame.header =
 8003326:	9202      	str	r2, [sp, #8]
 8003328:	9a0d      	ldr	r2, [sp, #52]	; 0x34
 800332a:	f88d 3015 	strb.w	r3, [sp, #21]
 800332e:	9203      	str	r2, [sp, #12]
 8003330:	9a0e      	ldr	r2, [sp, #56]	; 0x38
	if (this->_M_impl._M_finish != this->_M_impl._M_end_of_storage)
 8003332:	e9d6 c301 	ldrd	ip, r3, [r6, #4]
 8003336:	459c      	cmp	ip, r3
 8003338:	9204      	str	r2, [sp, #16]
 800333a:	f88d 1014 	strb.w	r1, [sp, #20]
 800333e:	d025      	beq.n	800338c <_ZN11stepping_md13CanController6updateEv+0xb4>
 8003340:	4664      	mov	r4, ip
 8003342:	af02      	add	r7, sp, #8
 8003344:	cf0f      	ldmia	r7!, {r0, r1, r2, r3}
 8003346:	c40f      	stmia	r4!, {r0, r1, r2, r3}
 8003348:	e897 0003 	ldmia.w	r7, {r0, r1}
 800334c:	e884 0003 	stmia.w	r4, {r0, r1}
	    ++this->_M_impl._M_finish;
 8003350:	f10c 0318 	add.w	r3, ip, #24
 8003354:	6073      	str	r3, [r6, #4]
			rx_frames.push_back(rx_frame);
			led_mgr::blink_can_led();
 8003356:	f000 fbdb 	bl	8003b10 <_ZN11stepping_md7led_mgr13blink_can_ledEv>
      : _M_current(__i) { }
 800335a:	6834      	ldr	r4, [r6, #0]
    function<_Res(_ArgTypes...)>::
    operator()(_ArgTypes... __args) const
    {
      if (_M_empty())
	__throw_bad_function_call();
      return _M_invoker(_M_functor, std::forward<_ArgTypes>(__args)...);
 800335c:	1d2f      	adds	r7, r5, #4
		}

		auto ite = rx_frames.begin();
		while(ite != rx_frames.end()){
 800335e:	6873      	ldr	r3, [r6, #4]
 8003360:	429c      	cmp	r4, r3
 8003362:	d034      	beq.n	80033ce <_ZN11stepping_md13CanController6updateEv+0xf6>
			if(ite->header.get_id() == (params.get_BID() + offset_from_bid)){
 8003364:	6968      	ldr	r0, [r5, #20]
			return id;
 8003366:	f8d4 8000 	ldr.w	r8, [r4]
 800336a:	f000 f951 	bl	8003610 <_ZN11stepping_md10Parameters7get_BIDEv>
 800336e:	69ab      	ldr	r3, [r5, #24]
 8003370:	4418      	add	r0, r3
 8003372:	4540      	cmp	r0, r8
 8003374:	d129      	bne.n	80033ca <_ZN11stepping_md13CanController6updateEv+0xf2>
 8003376:	aa08      	add	r2, sp, #32
 8003378:	4611      	mov	r1, r2
				alignas(8) unsigned char tmp[CRSLib::Can::can_mtu];
				for(unsigned i = 0; i < ite->header.dlc; i++){
 800337a:	7b23      	ldrb	r3, [r4, #12]
 800337c:	4423      	add	r3, r4
 800337e:	42a3      	cmp	r3, r4
 8003380:	d00a      	beq.n	8003398 <_ZN11stepping_md13CanController6updateEv+0xc0>
					tmp[i] = ite->data[ite->header.dlc - (i + 1)];
 8003382:	7bd8      	ldrb	r0, [r3, #15]
 8003384:	3b01      	subs	r3, #1
 8003386:	f802 0b01 	strb.w	r0, [r2], #1
				for(unsigned i = 0; i < ite->header.dlc; i++){
 800338a:	e7f8      	b.n	800337e <_ZN11stepping_md13CanController6updateEv+0xa6>
	  _M_realloc_insert(end(), __x);
 800338c:	4661      	mov	r1, ip
 800338e:	4630      	mov	r0, r6
 8003390:	aa02      	add	r2, sp, #8
 8003392:	f7ff ff11 	bl	80031b8 <_ZNSt6vectorIN6CRSLib3Can6RM00087RxFrameESaIS3_EE17_M_realloc_insertIJRKS3_EEEvN9__gnu_cxx17__normal_iteratorIPS3_S5_EEDpOT_>
 8003396:	e7de      	b.n	8003356 <_ZN11stepping_md13CanController6updateEv+0x7e>
 8003398:	681b      	ldr	r3, [r3, #0]
 800339a:	e9cd 1301 	strd	r1, r3, [sp, #4]
      if (_M_empty())
 800339e:	68eb      	ldr	r3, [r5, #12]
 80033a0:	b90b      	cbnz	r3, 80033a6 <_ZN11stepping_md13CanController6updateEv+0xce>
	__throw_bad_function_call();
 80033a2:	f003 fb9d 	bl	8006ae0 <_ZSt25__throw_bad_function_callv>
      return _M_invoker(_M_functor, std::forward<_ArgTypes>(__args)...);
 80033a6:	aa02      	add	r2, sp, #8
 80033a8:	a901      	add	r1, sp, #4
 80033aa:	4638      	mov	r0, r7
 80033ac:	692b      	ldr	r3, [r5, #16]
 80033ae:	4798      	blx	r3
 80033b0:	6872      	ldr	r2, [r6, #4]
      { return __normal_iterator(_M_current + __n); }
 80033b2:	f104 0118 	add.w	r1, r4, #24
      if (__position + 1 != end())
 80033b6:	4291      	cmp	r1, r2
 80033b8:	d003      	beq.n	80033c2 <_ZN11stepping_md13CanController6updateEv+0xea>
	    __builtin_memmove(__result, __first, sizeof(_Tp) * _Num);
 80033ba:	4620      	mov	r0, r4
 80033bc:	1a52      	subs	r2, r2, r1
 80033be:	f003 fc73 	bl	8006ca8 <memmove>
      --this->_M_impl._M_finish;
 80033c2:	6873      	ldr	r3, [r6, #4]
 80033c4:	3b18      	subs	r3, #24
 80033c6:	6073      	str	r3, [r6, #4]
				}
				callback(tmp, ite->header.get_id());
				ite = rx_frames.erase(ite);
				continue;
 80033c8:	e7c9      	b.n	800335e <_ZN11stepping_md13CanController6updateEv+0x86>
      { return __normal_iterator(_M_current++); }
 80033ca:	3418      	adds	r4, #24
 80033cc:	e7c7      	b.n	800335e <_ZN11stepping_md13CanController6updateEv+0x86>
			}
			ite++;
		}
	}
 80033ce:	b010      	add	sp, #64	; 0x40
 80033d0:	e8bd 81f0 	ldmia.w	sp!, {r4, r5, r6, r7, r8, pc}
 80033d4:	20000330 	.word	0x20000330

080033d8 <_ZN11stepping_md13CanController14trigger_updateEv>:
			ite++;
		}
	}
	*/

	void CanController::trigger_update(void){
 80033d8:	b538      	push	{r3, r4, r5, lr}
      { return iterator(this->_M_impl._M_node._M_next); }
 80033da:	4d05      	ldr	r5, [pc, #20]	; (80033f0 <_ZN11stepping_md13CanController14trigger_updateEv+0x18>)
 80033dc:	682c      	ldr	r4, [r5, #0]
		for(CanController* pController : pInstances){
 80033de:	42ac      	cmp	r4, r5
 80033e0:	d004      	beq.n	80033ec <_ZN11stepping_md13CanController14trigger_updateEv+0x14>
			pController->update();
 80033e2:	68a0      	ldr	r0, [r4, #8]
 80033e4:	f7ff ff78 	bl	80032d8 <_ZN11stepping_md13CanController6updateEv>
	_M_node = _M_node->_M_next;
 80033e8:	6824      	ldr	r4, [r4, #0]
	return *this;
 80033ea:	e7f8      	b.n	80033de <_ZN11stepping_md13CanController14trigger_updateEv+0x6>
		}
	}
 80033ec:	bd38      	pop	{r3, r4, r5, pc}
 80033ee:	bf00      	nop
 80033f0:	20000324 	.word	0x20000324

080033f4 <_GLOBAL__sub_I__ZN11stepping_md13CanController9rx_framesE>:
	: _M_start(), _M_finish(), _M_end_of_storage()
 80033f4:	2200      	movs	r2, #0
 80033f6:	4b04      	ldr	r3, [pc, #16]	; (8003408 <_GLOBAL__sub_I__ZN11stepping_md13CanController9rx_framesE+0x14>)
 80033f8:	e9c3 2200 	strd	r2, r2, [r3]
 80033fc:	609a      	str	r2, [r3, #8]
	this->_M_next = this->_M_prev = this;
 80033fe:	4b03      	ldr	r3, [pc, #12]	; (800340c <_GLOBAL__sub_I__ZN11stepping_md13CanController9rx_framesE+0x18>)
 8003400:	e9c3 3300 	strd	r3, r3, [r3]
	this->_M_size = 0;
 8003404:	609a      	str	r2, [r3, #8]
}
 8003406:	4770      	bx	lr
 8003408:	20000330 	.word	0x20000330
 800340c:	20000324 	.word	0x20000324

08003410 <_GLOBAL__sub_D__ZN11stepping_md13CanController9rx_framesE>:
 8003410:	b538      	push	{r3, r4, r5, lr}
    void
    _List_base<_Tp, _Alloc>::
    _M_clear() _GLIBCXX_NOEXCEPT
    {
      typedef _List_node<_Tp>  _Node;
      __detail::_List_node_base* __cur = _M_impl._M_node._M_next;
 8003412:	4c0a      	ldr	r4, [pc, #40]	; (800343c <_GLOBAL__sub_D__ZN11stepping_md13CanController9rx_framesE+0x2c>)
 8003414:	6820      	ldr	r0, [r4, #0]
      while (__cur != &_M_impl._M_node)
 8003416:	42a0      	cmp	r0, r4
 8003418:	d005      	beq.n	8003426 <_GLOBAL__sub_D__ZN11stepping_md13CanController9rx_framesE+0x16>
	{
	  _Node* __tmp = static_cast<_Node*>(__cur);
	  __cur = __tmp->_M_next;
 800341a:	6805      	ldr	r5, [r0, #0]
 800341c:	210c      	movs	r1, #12
 800341e:	f002 fd19 	bl	8005e54 <_ZdlPvj>
 8003422:	4628      	mov	r0, r5
 8003424:	e7f7      	b.n	8003416 <_GLOBAL__sub_D__ZN11stepping_md13CanController9rx_framesE+0x6>
	_M_deallocate(_M_impl._M_start,
 8003426:	4b06      	ldr	r3, [pc, #24]	; (8003440 <_GLOBAL__sub_D__ZN11stepping_md13CanController9rx_framesE+0x30>)
 8003428:	6818      	ldr	r0, [r3, #0]
	if (__p)
 800342a:	b128      	cbz	r0, 8003438 <_GLOBAL__sub_D__ZN11stepping_md13CanController9rx_framesE+0x28>
		      _M_impl._M_end_of_storage - _M_impl._M_start);
 800342c:	6899      	ldr	r1, [r3, #8]
 800342e:	e8bd 4038 	ldmia.w	sp!, {r3, r4, r5, lr}
 8003432:	1a09      	subs	r1, r1, r0
 8003434:	f002 bd0e 	b.w	8005e54 <_ZdlPvj>
 8003438:	bd38      	pop	{r3, r4, r5, pc}
 800343a:	bf00      	nop
 800343c:	20000324 	.word	0x20000324
 8003440:	20000330 	.word	0x20000330

08003444 <_ZN11stepping_md15MotorController18DisableModeContext6updateEv>:
			class DisableModeContext : public IContext{
				private:
					MotorController& parent;
				public:
					explicit DisableModeContext(MotorController& parent): parent(parent){}
					void update(void) override{}
 8003444:	4770      	bx	lr

08003446 <_ZN11stepping_md15MotorController18DisableModeContext6onExitEv>:
					void onInit(void) override{
						HAL_TIM_PWM_Stop(parent.get_pwm_tim(), TIM_CHANNEL_1);
						HAL_GPIO_WritePin(parent.get_ena_port(), parent.get_ena_pin(), GPIO_PIN_RESET);
					}
					void onExit(void) override{}
 8003446:	4770      	bx	lr

08003448 <_ZN11stepping_md15MotorController18DisableModeContext11descriptionEv>:
					MD_MODE description(void) override{return MD_MODE::DISABLE;}
 8003448:	2001      	movs	r0, #1
 800344a:	4770      	bx	lr

0800344c <_ZN11stepping_md15MotorController18DisableModeContext6onInitEv>:
					void onInit(void) override{
 800344c:	b510      	push	{r4, lr}
 800344e:	4604      	mov	r4, r0

    GPIO_PIN MotorController::get_ena_pin(void) const{return ena_pin;}
    GPIO_Port MotorController::get_ena_port(void) const{return ena_port;}
    GPIO_PIN MotorController::get_dir_pin(void) const{return dir_pin;}
    GPIO_Port MotorController::get_dir_port(void) const{return dir_port;}
    TIM_HandleTypeDef* MotorController::get_pwm_tim(void){return pwm_tim;}
 8003450:	6843      	ldr	r3, [r0, #4]
						HAL_TIM_PWM_Stop(parent.get_pwm_tim(), TIM_CHANNEL_1);
 8003452:	2100      	movs	r1, #0
 8003454:	6918      	ldr	r0, [r3, #16]
 8003456:	f002 fc37 	bl	8005cc8 <HAL_TIM_PWM_Stop>
						HAL_GPIO_WritePin(parent.get_ena_port(), parent.get_ena_pin(), GPIO_PIN_RESET);
 800345a:	6863      	ldr	r3, [r4, #4]
 800345c:	2200      	movs	r2, #0
					}
 800345e:	e8bd 4010 	ldmia.w	sp!, {r4, lr}
						HAL_GPIO_WritePin(parent.get_ena_port(), parent.get_ena_pin(), GPIO_PIN_RESET);
 8003462:	8819      	ldrh	r1, [r3, #0]
 8003464:	6858      	ldr	r0, [r3, #4]
 8003466:	f001 becb 	b.w	8005200 <HAL_GPIO_WritePin>
	...

0800346c <_ZN11stepping_md15MotorControllerC1EtP12GPIO_TypeDeftS2_fP17TIM_HandleTypeDefRNS_10ParametersEm>:
    MotorController::MotorController
 800346c:	e92d 41ff 	stmdb	sp!, {r0, r1, r2, r3, r4, r5, r6, r7, r8, lr}
 8003470:	4604      	mov	r4, r0
 8003472:	e9dd 580c 	ldrd	r5, r8, [sp, #48]	; 0x30
		dis_context(DisableModeContext(*this))
 8003476:	8103      	strh	r3, [r0, #8]
 8003478:	9b0a      	ldr	r3, [sp, #40]	; 0x28
 800347a:	f100 061c 	add.w	r6, r0, #28
 800347e:	e9c0 3503 	strd	r3, r5, [r0, #12]
 8003482:	9b0e      	ldr	r3, [sp, #56]	; 0x38
 8003484:	8001      	strh	r1, [r0, #0]
 8003486:	6183      	str	r3, [r0, #24]
 8003488:	4601      	mov	r1, r0
 800348a:	6042      	str	r2, [r0, #4]
 800348c:	f8c0 8014 	str.w	r8, [r0, #20]
 8003490:	f104 0724 	add.w	r7, r4, #36	; 0x24
 8003494:	4630      	mov	r0, r6
 8003496:	f000 fa0b 	bl	80038b0 <_ZN11stepping_md15MotorController19VelocityModeContextC1ERS0_>
 800349a:	4621      	mov	r1, r4
 800349c:	9a0b      	ldr	r2, [sp, #44]	; 0x2c
 800349e:	4638      	mov	r0, r7
 80034a0:	f000 f966 	bl	8003770 <_ZN11stepping_md15MotorController19PositionModeContextC1ERS0_f>
					explicit DisableModeContext(MotorController& parent): parent(parent){}
 80034a4:	4b14      	ldr	r3, [pc, #80]	; (80034f8 <_ZN11stepping_md15MotorControllerC1EtP12GPIO_TypeDeftS2_fP17TIM_HandleTypeDefRNS_10ParametersEm+0x8c>)
    	switch(params.get_motor_param().mode){
 80034a6:	4641      	mov	r1, r8
 80034a8:	e9c4 3410 	strd	r3, r4, [r4, #64]	; 0x40
 80034ac:	4668      	mov	r0, sp
 80034ae:	f000 f8a1 	bl	80035f4 <_ZN11stepping_md10Parameters15get_motor_paramEv>
 80034b2:	f89d 3000 	ldrb.w	r3, [sp]
 80034b6:	2b04      	cmp	r3, #4
 80034b8:	d005      	beq.n	80034c6 <_ZN11stepping_md15MotorControllerC1EtP12GPIO_TypeDeftS2_fP17TIM_HandleTypeDefRNS_10ParametersEm+0x5a>
 80034ba:	2b05      	cmp	r3, #5
 80034bc:	d01a      	beq.n	80034f4 <_ZN11stepping_md15MotorControllerC1EtP12GPIO_TypeDeftS2_fP17TIM_HandleTypeDefRNS_10ParametersEm+0x88>
    			pValied_context = &dis_context;
 80034be:	f104 0340 	add.w	r3, r4, #64	; 0x40
 80034c2:	64a3      	str	r3, [r4, #72]	; 0x48
 80034c4:	e000      	b.n	80034c8 <_ZN11stepping_md15MotorControllerC1EtP12GPIO_TypeDeftS2_fP17TIM_HandleTypeDefRNS_10ParametersEm+0x5c>
    			pValied_context = &pos_context;
 80034c6:	64a7      	str	r7, [r4, #72]	; 0x48
        pwm_tim->Instance->CCR1 =100;
 80034c8:	2264      	movs	r2, #100	; 0x64
 80034ca:	682b      	ldr	r3, [r5, #0]
        pValied_context->onInit();
 80034cc:	6ca0      	ldr	r0, [r4, #72]	; 0x48
        pwm_tim->Instance->CCR1 =100;
 80034ce:	635a      	str	r2, [r3, #52]	; 0x34
        pValied_context->onInit();
 80034d0:	6803      	ldr	r3, [r0, #0]
	 __tmp->_M_hook(__position._M_node);
 80034d2:	4d0a      	ldr	r5, [pc, #40]	; (80034fc <_ZN11stepping_md15MotorControllerC1EtP12GPIO_TypeDeftS2_fP17TIM_HandleTypeDefRNS_10ParametersEm+0x90>)
 80034d4:	685b      	ldr	r3, [r3, #4]
 80034d6:	4798      	blx	r3
	return static_cast<_Tp*>(::operator new(__n * sizeof(_Tp)));
 80034d8:	200c      	movs	r0, #12
 80034da:	f003 f816 	bl	800650a <_Znwj>
 80034de:	4629      	mov	r1, r5
 80034e0:	6084      	str	r4, [r0, #8]
 80034e2:	f003 faf3 	bl	8006acc <_ZNSt8__detail15_List_node_base7_M_hookEPS0_>
    }
 80034e6:	4620      	mov	r0, r4
      void _M_inc_size(size_t __n) { _M_impl._M_node._M_size += __n; }
 80034e8:	68ab      	ldr	r3, [r5, #8]
 80034ea:	3301      	adds	r3, #1
 80034ec:	60ab      	str	r3, [r5, #8]
 80034ee:	b004      	add	sp, #16
 80034f0:	e8bd 81f0 	ldmia.w	sp!, {r4, r5, r6, r7, r8, pc}
    			pValied_context = &vel_context;
 80034f4:	64a6      	str	r6, [r4, #72]	; 0x48
    			break;
 80034f6:	e7e7      	b.n	80034c8 <_ZN11stepping_md15MotorControllerC1EtP12GPIO_TypeDeftS2_fP17TIM_HandleTypeDefRNS_10ParametersEm+0x5c>
 80034f8:	08007294 	.word	0x08007294
 80034fc:	2000033c 	.word	0x2000033c

08003500 <_ZN11stepping_md15MotorController6updateEv>:
    void MotorController::update(){
 8003500:	b530      	push	{r4, r5, lr}
 8003502:	4604      	mov	r4, r0
 8003504:	b089      	sub	sp, #36	; 0x24
    	const MotorParam motor_param = params.get_motor_param();
 8003506:	6941      	ldr	r1, [r0, #20]
 8003508:	4668      	mov	r0, sp
 800350a:	f000 f873 	bl	80035f4 <_ZN11stepping_md10Parameters15get_motor_paramEv>
    	const MD_MODE current_mode = pValied_context->description();
 800350e:	6ca0      	ldr	r0, [r4, #72]	; 0x48
 8003510:	6803      	ldr	r3, [r0, #0]
 8003512:	68db      	ldr	r3, [r3, #12]
 8003514:	4798      	blx	r3
 8003516:	4605      	mov	r5, r0
    	const bool mode_change_detected = params.get_motor_param().mode != current_mode;
 8003518:	6961      	ldr	r1, [r4, #20]
 800351a:	a804      	add	r0, sp, #16
 800351c:	f000 f86a 	bl	80035f4 <_ZN11stepping_md10Parameters15get_motor_paramEv>
 8003520:	4629      	mov	r1, r5
 8003522:	f89d 0010 	ldrb.w	r0, [sp, #16]
 8003526:	f000 f85e 	bl	80035e6 <_ZN11stepping_mdneENS_7MD_MODEES0_>
    	if(mode_change_detected){
 800352a:	b198      	cbz	r0, 8003554 <_ZN11stepping_md15MotorController6updateEv+0x54>
    		pValied_context->onExit();
 800352c:	6ca0      	ldr	r0, [r4, #72]	; 0x48
 800352e:	6803      	ldr	r3, [r0, #0]
 8003530:	689b      	ldr	r3, [r3, #8]
 8003532:	4798      	blx	r3
    		switch(motor_param.mode){
 8003534:	f89d 3000 	ldrb.w	r3, [sp]
 8003538:	2b04      	cmp	r3, #4
 800353a:	d004      	beq.n	8003546 <_ZN11stepping_md15MotorController6updateEv+0x46>
 800353c:	2b05      	cmp	r3, #5
 800353e:	d010      	beq.n	8003562 <_ZN11stepping_md15MotorController6updateEv+0x62>
    				pValied_context = &dis_context;
 8003540:	f104 0340 	add.w	r3, r4, #64	; 0x40
 8003544:	e001      	b.n	800354a <_ZN11stepping_md15MotorController6updateEv+0x4a>
    				pValied_context = &pos_context;
 8003546:	f104 0324 	add.w	r3, r4, #36	; 0x24
    				pValied_context = &dis_context;
 800354a:	64a3      	str	r3, [r4, #72]	; 0x48
    		pValied_context->onInit();
 800354c:	6ca0      	ldr	r0, [r4, #72]	; 0x48
 800354e:	6803      	ldr	r3, [r0, #0]
 8003550:	685b      	ldr	r3, [r3, #4]
 8003552:	4798      	blx	r3
    	pValied_context->update();
 8003554:	6ca0      	ldr	r0, [r4, #72]	; 0x48
 8003556:	6803      	ldr	r3, [r0, #0]
 8003558:	681b      	ldr	r3, [r3, #0]
    }
 800355a:	b009      	add	sp, #36	; 0x24
 800355c:	e8bd 4030 	ldmia.w	sp!, {r4, r5, lr}
    	pValied_context->update();
 8003560:	4718      	bx	r3
    				pValied_context = &vel_context;
 8003562:	f104 031c 	add.w	r3, r4, #28
 8003566:	e7f0      	b.n	800354a <_ZN11stepping_md15MotorController6updateEv+0x4a>

08003568 <_ZNK11stepping_md15MotorController11get_ena_pinEv>:
    GPIO_PIN MotorController::get_ena_pin(void) const{return ena_pin;}
 8003568:	8800      	ldrh	r0, [r0, #0]
 800356a:	4770      	bx	lr

0800356c <_ZNK11stepping_md15MotorController12get_ena_portEv>:
    GPIO_Port MotorController::get_ena_port(void) const{return ena_port;}
 800356c:	6840      	ldr	r0, [r0, #4]
 800356e:	4770      	bx	lr

08003570 <_ZNK11stepping_md15MotorController11get_dir_pinEv>:
    GPIO_PIN MotorController::get_dir_pin(void) const{return dir_pin;}
 8003570:	8900      	ldrh	r0, [r0, #8]
 8003572:	4770      	bx	lr

08003574 <_ZNK11stepping_md15MotorController12get_dir_portEv>:
    GPIO_Port MotorController::get_dir_port(void) const{return dir_port;}
 8003574:	68c0      	ldr	r0, [r0, #12]
 8003576:	4770      	bx	lr

08003578 <_ZN11stepping_md15MotorController11get_pwm_timEv>:
    TIM_HandleTypeDef* MotorController::get_pwm_tim(void){return pwm_tim;}
 8003578:	6900      	ldr	r0, [r0, #16]
 800357a:	4770      	bx	lr

0800357c <_ZN11stepping_md15MotorController10get_paramsEv>:
    Parameters& MotorController::get_params(void){return params;}
 800357c:	6940      	ldr	r0, [r0, #20]
 800357e:	4770      	bx	lr

08003580 <_ZNK11stepping_md15MotorController16get_source_clockEv>:
    unsigned long MotorController::get_source_clock(void) const{return source_clock;}
 8003580:	6980      	ldr	r0, [r0, #24]
 8003582:	4770      	bx	lr

08003584 <_ZN11stepping_md15MotorController14trigger_updateEv>:

    void MotorController::trigger_update(void){
 8003584:	b538      	push	{r3, r4, r5, lr}
      { return iterator(this->_M_impl._M_node._M_next); }
 8003586:	4d05      	ldr	r5, [pc, #20]	; (800359c <_ZN11stepping_md15MotorController14trigger_updateEv+0x18>)
 8003588:	682c      	ldr	r4, [r5, #0]
    	for(MotorController* pController : pInstances){
 800358a:	42ac      	cmp	r4, r5
 800358c:	d004      	beq.n	8003598 <_ZN11stepping_md15MotorController14trigger_updateEv+0x14>
    		pController->update();
 800358e:	68a0      	ldr	r0, [r4, #8]
 8003590:	f7ff ffb6 	bl	8003500 <_ZN11stepping_md15MotorController6updateEv>
	_M_node = _M_node->_M_next;
 8003594:	6824      	ldr	r4, [r4, #0]
	return *this;
 8003596:	e7f8      	b.n	800358a <_ZN11stepping_md15MotorController14trigger_updateEv+0x6>
    	}
    }
 8003598:	bd38      	pop	{r3, r4, r5, pc}
 800359a:	bf00      	nop
 800359c:	2000033c 	.word	0x2000033c

080035a0 <_GLOBAL__sub_I__ZN11stepping_md15MotorController10pInstancesB5cxx11E>:
	this->_M_size = 0;
 80035a0:	2200      	movs	r2, #0
	this->_M_next = this->_M_prev = this;
 80035a2:	4b02      	ldr	r3, [pc, #8]	; (80035ac <_GLOBAL__sub_I__ZN11stepping_md15MotorController10pInstancesB5cxx11E+0xc>)
 80035a4:	e9c3 3300 	strd	r3, r3, [r3]
	this->_M_size = 0;
 80035a8:	609a      	str	r2, [r3, #8]
} // namespace stapping_md
 80035aa:	4770      	bx	lr
 80035ac:	2000033c 	.word	0x2000033c

080035b0 <_GLOBAL__sub_D__ZN11stepping_md15MotorController10pInstancesB5cxx11E>:
 80035b0:	b538      	push	{r3, r4, r5, lr}
      __detail::_List_node_base* __cur = _M_impl._M_node._M_next;
 80035b2:	4c05      	ldr	r4, [pc, #20]	; (80035c8 <_GLOBAL__sub_D__ZN11stepping_md15MotorController10pInstancesB5cxx11E+0x18>)
 80035b4:	6820      	ldr	r0, [r4, #0]
      while (__cur != &_M_impl._M_node)
 80035b6:	42a0      	cmp	r0, r4
 80035b8:	d005      	beq.n	80035c6 <_GLOBAL__sub_D__ZN11stepping_md15MotorController10pInstancesB5cxx11E+0x16>
	  __cur = __tmp->_M_next;
 80035ba:	6805      	ldr	r5, [r0, #0]
	::operator delete(__p
 80035bc:	210c      	movs	r1, #12
 80035be:	f002 fc49 	bl	8005e54 <_ZdlPvj>
 80035c2:	4628      	mov	r0, r5
 80035c4:	e7f7      	b.n	80035b6 <_GLOBAL__sub_D__ZN11stepping_md15MotorController10pInstancesB5cxx11E+0x6>
 80035c6:	bd38      	pop	{r3, r4, r5, pc}
 80035c8:	2000033c 	.word	0x2000033c

080035cc <_ZN11stepping_mdeqENS_7MD_MODEES0_>:

namespace stepping_md{
	bool operator ==(MD_MODE left_val, MD_MODE right_val){
		const bool is_left_disabled = static_cast<uint8_t>(left_val) == static_cast<uint8_t>(MD_MODE::DEFAULT) || static_cast<uint8_t>(left_val) == static_cast<uint8_t>(MD_MODE::DISABLE);
		const bool is_right_disabled = static_cast<uint8_t>(right_val) == static_cast<uint8_t>(MD_MODE::DEFAULT) || static_cast<uint8_t>(right_val) == static_cast<uint8_t>(MD_MODE::DISABLE);
		return static_cast<uint8_t>(left_val) == static_cast<uint8_t>(right_val) || (is_left_disabled && is_right_disabled);
 80035cc:	4288      	cmp	r0, r1
 80035ce:	d006      	beq.n	80035de <_ZN11stepping_mdeqENS_7MD_MODEES0_+0x12>
 80035d0:	2801      	cmp	r0, #1
 80035d2:	d806      	bhi.n	80035e2 <_ZN11stepping_mdeqENS_7MD_MODEES0_+0x16>
 80035d4:	2901      	cmp	r1, #1
 80035d6:	bf8c      	ite	hi
 80035d8:	2000      	movhi	r0, #0
 80035da:	2001      	movls	r0, #1
 80035dc:	4770      	bx	lr
 80035de:	2001      	movs	r0, #1
 80035e0:	4770      	bx	lr
 80035e2:	2000      	movs	r0, #0
	}
 80035e4:	4770      	bx	lr

080035e6 <_ZN11stepping_mdneENS_7MD_MODEES0_>:
	bool operator !=(MD_MODE left_val, MD_MODE right_val){
 80035e6:	b508      	push	{r3, lr}
		return !(left_val == right_val);
 80035e8:	f7ff fff0 	bl	80035cc <_ZN11stepping_mdeqENS_7MD_MODEES0_>
 80035ec:	f080 0001 	eor.w	r0, r0, #1
	}
 80035f0:	b2c0      	uxtb	r0, r0
 80035f2:	bd08      	pop	{r3, pc}

080035f4 <_ZN11stepping_md10Parameters15get_motor_paramEv>:
	std::list<Parameters*> Parameters::pInstances;

    //
	//1
	MotorParam Parameters::get_motor_param()
    {
 80035f4:	b510      	push	{r4, lr}
 80035f6:	4604      	mov	r4, r0
        return SMParam;
 80035f8:	3104      	adds	r1, #4
 80035fa:	c90f      	ldmia	r1, {r0, r1, r2, r3}
 80035fc:	e884 000f 	stmia.w	r4, {r0, r1, r2, r3}
    }
 8003600:	4620      	mov	r0, r4
 8003602:	bd10      	pop	{r4, pc}

08003604 <_ZN11stepping_md10Parameters15set_motor_paramERKNS_10MotorParamE>:

	//
	//1
	void Parameters::set_motor_param(const MotorParam& param)
    {
 8003604:	b510      	push	{r4, lr}
        SMParam = param;
 8003606:	1d04      	adds	r4, r0, #4
 8003608:	c90f      	ldmia	r1, {r0, r1, r2, r3}
 800360a:	e884 000f 	stmia.w	r4, {r0, r1, r2, r3}
    }
 800360e:	bd10      	pop	{r4, pc}

08003610 <_ZN11stepping_md10Parameters7get_BIDEv>:

	//BID
	uint16_t Parameters::get_BID()
    {
        return BID;
    }
 8003610:	8800      	ldrh	r0, [r0, #0]
 8003612:	4770      	bx	lr

08003614 <_ZN11stepping_md10Parameters7set_BIDEt>:

	//BID
	void Parameters::set_BID(const uint16_t bid)
    {
        BID = bid;
 8003614:	8001      	strh	r1, [r0, #0]
    }
 8003616:	4770      	bx	lr

08003618 <_ZN11stepping_md10Parameters26trigger_emergency_callbackEv>:

	void Parameters::trigger_emergency_callback(void){
 8003618:	b510      	push	{r4, lr}
			//Emergency
			//emergency_callbackmodeMD_MODE::DEFAULT
			void emergency_callback(void)
			{
				SMParam.mode = MD_MODE::DEFAULT;
				SMParam.target = 0;
 800361a:	2000      	movs	r0, #0
				SMParam.mode = MD_MODE::DEFAULT;
 800361c:	2400      	movs	r4, #0
      { return iterator(this->_M_impl._M_node._M_next); }
 800361e:	4905      	ldr	r1, [pc, #20]	; (8003634 <_ZN11stepping_md10Parameters26trigger_emergency_callbackEv+0x1c>)
 8003620:	680b      	ldr	r3, [r1, #0]
		for(Parameters* pParameters : pInstances){
 8003622:	428b      	cmp	r3, r1
 8003624:	d004      	beq.n	8003630 <_ZN11stepping_md10Parameters26trigger_emergency_callbackEv+0x18>
 8003626:	689a      	ldr	r2, [r3, #8]
	_M_node = _M_node->_M_next;
 8003628:	681b      	ldr	r3, [r3, #0]
 800362a:	7114      	strb	r4, [r2, #4]
				SMParam.target = 0;
 800362c:	60d0      	str	r0, [r2, #12]
	return *this;
 800362e:	e7f8      	b.n	8003622 <_ZN11stepping_md10Parameters26trigger_emergency_callbackEv+0xa>
			pParameters->emergency_callback();
		}
	}
 8003630:	bd10      	pop	{r4, pc}
 8003632:	bf00      	nop
 8003634:	20000348 	.word	0x20000348

08003638 <_GLOBAL__sub_I__ZN11stepping_mdeqENS_7MD_MODEES0_>:
	this->_M_size = 0;
 8003638:	2200      	movs	r2, #0
	this->_M_next = this->_M_prev = this;
 800363a:	4b02      	ldr	r3, [pc, #8]	; (8003644 <_GLOBAL__sub_I__ZN11stepping_mdeqENS_7MD_MODEES0_+0xc>)
 800363c:	e9c3 3300 	strd	r3, r3, [r3]
	this->_M_size = 0;
 8003640:	609a      	str	r2, [r3, #8]
}
 8003642:	4770      	bx	lr
 8003644:	20000348 	.word	0x20000348

08003648 <_GLOBAL__sub_D__ZN11stepping_mdeqENS_7MD_MODEES0_>:
 8003648:	b538      	push	{r3, r4, r5, lr}
      __detail::_List_node_base* __cur = _M_impl._M_node._M_next;
 800364a:	4c05      	ldr	r4, [pc, #20]	; (8003660 <_GLOBAL__sub_D__ZN11stepping_mdeqENS_7MD_MODEES0_+0x18>)
 800364c:	6820      	ldr	r0, [r4, #0]
      while (__cur != &_M_impl._M_node)
 800364e:	42a0      	cmp	r0, r4
 8003650:	d005      	beq.n	800365e <_GLOBAL__sub_D__ZN11stepping_mdeqENS_7MD_MODEES0_+0x16>
	  __cur = __tmp->_M_next;
 8003652:	6805      	ldr	r5, [r0, #0]
 8003654:	210c      	movs	r1, #12
 8003656:	f002 fbfd 	bl	8005e54 <_ZdlPvj>
 800365a:	4628      	mov	r0, r5
 800365c:	e7f7      	b.n	800364e <_GLOBAL__sub_D__ZN11stepping_mdeqENS_7MD_MODEES0_+0x6>
 800365e:	bd38      	pop	{r3, r4, r5, pc}
 8003660:	20000348 	.word	0x20000348

08003664 <_ZN11stepping_md15MotorController19PositionModeContext11descriptionEv>:
	}
	void MotorController::PositionModeContext::onExit(void){
		stop();
		disable();
	}
	MD_MODE MotorController::PositionModeContext::description(void){return MD_MODE::POS;}
 8003664:	2004      	movs	r0, #4
 8003666:	4770      	bx	lr

08003668 <_ZN11stepping_md15MotorController19PositionModeContext15update_positionEv>:
	void MotorController::PositionModeContext::update_position(void){
 8003668:	b538      	push	{r3, r4, r5, lr}
 800366a:	4604      	mov	r4, r0
		int time_diff = HAL_GetTick() - start_time;//ms
 800366c:	f001 faee 	bl	8004c4c <HAL_GetTick>
 8003670:	68a5      	ldr	r5, [r4, #8]
 8003672:	1b45      	subs	r5, r0, r5
		start_time = HAL_GetTick();
 8003674:	f001 faea 	bl	8004c4c <HAL_GetTick>
 8003678:	60a0      	str	r0, [r4, #8]
		position +=direction * time_diff * current_speed * rpm_to_rad_per_ms;
 800367a:	68e0      	ldr	r0, [r4, #12]
 800367c:	4368      	muls	r0, r5
 800367e:	f7fd fa49 	bl	8000b14 <__aeabi_i2f>
 8003682:	6921      	ldr	r1, [r4, #16]
 8003684:	f7fd fa9a 	bl	8000bbc <__aeabi_fmul>
 8003688:	4904      	ldr	r1, [pc, #16]	; (800369c <_ZN11stepping_md15MotorController19PositionModeContext15update_positionEv+0x34>)
 800368a:	f7fd fa97 	bl	8000bbc <__aeabi_fmul>
 800368e:	4601      	mov	r1, r0
 8003690:	6960      	ldr	r0, [r4, #20]
 8003692:	f7fd f98b 	bl	80009ac <__addsf3>
 8003696:	6160      	str	r0, [r4, #20]
	}
 8003698:	bd38      	pop	{r3, r4, r5, pc}
 800369a:	bf00      	nop
 800369c:	38db9cfe 	.word	0x38db9cfe

080036a0 <_ZN11stepping_md15MotorController19PositionModeContext13set_directionEf>:
	void MotorController::PositionModeContext::set_direction(float _direction){
 80036a0:	b5f8      	push	{r3, r4, r5, r6, r7, lr}
 80036a2:	4604      	mov	r4, r0
		const GPIO_PIN dir_pin = parent.get_dir_pin();
 80036a4:	6840      	ldr	r0, [r0, #4]
	void MotorController::PositionModeContext::set_direction(float _direction){
 80036a6:	460f      	mov	r7, r1
		const GPIO_PIN dir_pin = parent.get_dir_pin();
 80036a8:	f7ff ff62 	bl	8003570 <_ZNK11stepping_md15MotorController11get_dir_pinEv>
 80036ac:	4606      	mov	r6, r0
		const GPIO_Port dir_port = parent.get_dir_port();
 80036ae:	6860      	ldr	r0, [r4, #4]
 80036b0:	f7ff ff60 	bl	8003574 <_ZNK11stepping_md15MotorController12get_dir_portEv>
 80036b4:	4605      	mov	r5, r0
		update_position();
 80036b6:	4620      	mov	r0, r4
 80036b8:	f7ff ffd6 	bl	8003668 <_ZN11stepping_md15MotorController19PositionModeContext15update_positionEv>
		if(_direction > 0){
 80036bc:	2100      	movs	r1, #0
 80036be:	4638      	mov	r0, r7
 80036c0:	f7fd fc38 	bl	8000f34 <__aeabi_fcmpgt>
 80036c4:	4602      	mov	r2, r0
 80036c6:	b138      	cbz	r0, 80036d8 <_ZN11stepping_md15MotorController19PositionModeContext13set_directionEf+0x38>
			direction = 1;
 80036c8:	2201      	movs	r2, #1
 80036ca:	60e2      	str	r2, [r4, #12]
			HAL_GPIO_WritePin(dir_port, dir_pin, GPIO_PIN_RESET);
 80036cc:	4631      	mov	r1, r6
 80036ce:	4628      	mov	r0, r5
	}
 80036d0:	e8bd 40f8 	ldmia.w	sp!, {r3, r4, r5, r6, r7, lr}
			HAL_GPIO_WritePin(dir_port, dir_pin, GPIO_PIN_RESET);
 80036d4:	f001 bd94 	b.w	8005200 <HAL_GPIO_WritePin>
			direction = -1;
 80036d8:	f04f 33ff 	mov.w	r3, #4294967295
 80036dc:	60e3      	str	r3, [r4, #12]
 80036de:	e7f5      	b.n	80036cc <_ZN11stepping_md15MotorController19PositionModeContext13set_directionEf+0x2c>

080036e0 <_ZN11stepping_md15MotorController19PositionModeContext5startEv>:
	void MotorController::PositionModeContext::start(void){
 80036e0:	b51f      	push	{r0, r1, r2, r3, r4, lr}
 80036e2:	4604      	mov	r4, r0
		update_position();
 80036e4:	f7ff ffc0 	bl	8003668 <_ZN11stepping_md15MotorController19PositionModeContext15update_positionEv>
		HAL_TIM_PWM_Start(parent.get_pwm_tim(), TIM_CHANNEL_1);
 80036e8:	6860      	ldr	r0, [r4, #4]
 80036ea:	f7ff ff45 	bl	8003578 <_ZN11stepping_md15MotorController11get_pwm_timEv>
 80036ee:	2100      	movs	r1, #0
 80036f0:	f002 faac 	bl	8005c4c <HAL_TIM_PWM_Start>
		current_speed = parent.get_params().get_motor_param().pos_vel;
 80036f4:	6860      	ldr	r0, [r4, #4]
 80036f6:	f7ff ff41 	bl	800357c <_ZN11stepping_md15MotorController10get_paramsEv>
 80036fa:	4601      	mov	r1, r0
 80036fc:	4668      	mov	r0, sp
 80036fe:	f7ff ff79 	bl	80035f4 <_ZN11stepping_md10Parameters15get_motor_paramEv>
 8003702:	9b03      	ldr	r3, [sp, #12]
 8003704:	6123      	str	r3, [r4, #16]
	}
 8003706:	b004      	add	sp, #16
 8003708:	bd10      	pop	{r4, pc}

0800370a <_ZN11stepping_md15MotorController19PositionModeContext4stopEv>:
	void MotorController::PositionModeContext::stop(){
 800370a:	b510      	push	{r4, lr}
 800370c:	4604      	mov	r4, r0
		update_position();
 800370e:	f7ff ffab 	bl	8003668 <_ZN11stepping_md15MotorController19PositionModeContext15update_positionEv>
		HAL_TIM_PWM_Stop(parent.get_pwm_tim(), TIM_CHANNEL_1);
 8003712:	6860      	ldr	r0, [r4, #4]
 8003714:	f7ff ff30 	bl	8003578 <_ZN11stepping_md15MotorController11get_pwm_timEv>
 8003718:	2100      	movs	r1, #0
 800371a:	f002 fad5 	bl	8005cc8 <HAL_TIM_PWM_Stop>
		current_speed = 0;
 800371e:	2300      	movs	r3, #0
 8003720:	6123      	str	r3, [r4, #16]
	}
 8003722:	bd10      	pop	{r4, pc}

08003724 <_ZN11stepping_md15MotorController19PositionModeContext6enableEv>:
	void MotorController::PositionModeContext::enable(void){
 8003724:	b570      	push	{r4, r5, r6, lr}
 8003726:	4604      	mov	r4, r0
		const GPIO_PIN ena_pin = parent.get_ena_pin();
 8003728:	6840      	ldr	r0, [r0, #4]
 800372a:	f7ff ff1d 	bl	8003568 <_ZNK11stepping_md15MotorController11get_ena_pinEv>
 800372e:	4606      	mov	r6, r0
		const GPIO_Port ena_port = parent.get_ena_port();
 8003730:	6860      	ldr	r0, [r4, #4]
 8003732:	f7ff ff1b 	bl	800356c <_ZNK11stepping_md15MotorController12get_ena_portEv>
 8003736:	4605      	mov	r5, r0
		update_position();
 8003738:	4620      	mov	r0, r4
 800373a:	f7ff ff95 	bl	8003668 <_ZN11stepping_md15MotorController19PositionModeContext15update_positionEv>
		stop();
 800373e:	4620      	mov	r0, r4
 8003740:	f7ff ffe3 	bl	800370a <_ZN11stepping_md15MotorController19PositionModeContext4stopEv>
		HAL_GPIO_WritePin(ena_port, ena_pin, GPIO_PIN_SET);
 8003744:	4631      	mov	r1, r6
 8003746:	4628      	mov	r0, r5
	}
 8003748:	e8bd 4070 	ldmia.w	sp!, {r4, r5, r6, lr}
		HAL_GPIO_WritePin(ena_port, ena_pin, GPIO_PIN_SET);
 800374c:	2201      	movs	r2, #1
 800374e:	f001 bd57 	b.w	8005200 <HAL_GPIO_WritePin>

08003752 <_ZN11stepping_md15MotorController19PositionModeContext6onInitEv>:
	void MotorController::PositionModeContext::onInit(void){
 8003752:	b510      	push	{r4, lr}
 8003754:	4604      	mov	r4, r0
		start_time = HAL_GetTick();
 8003756:	f001 fa79 	bl	8004c4c <HAL_GetTick>
		direction = 1;
 800375a:	2301      	movs	r3, #1
 800375c:	60e3      	str	r3, [r4, #12]
		current_speed = 0;
 800375e:	2300      	movs	r3, #0
		start_time = HAL_GetTick();
 8003760:	60a0      	str	r0, [r4, #8]
		current_speed = 0;
 8003762:	6123      	str	r3, [r4, #16]
		enable();
 8003764:	4620      	mov	r0, r4
		position = 0;
 8003766:	6163      	str	r3, [r4, #20]
	}
 8003768:	e8bd 4010 	ldmia.w	sp!, {r4, lr}
		enable();
 800376c:	f7ff bfda 	b.w	8003724 <_ZN11stepping_md15MotorController19PositionModeContext6enableEv>

08003770 <_ZN11stepping_md15MotorController19PositionModeContextC1ERS0_f>:
	MotorController::PositionModeContext::PositionModeContext(MotorController& parent, const float error_threshold): parent(parent), error_threshold(error_threshold){
 8003770:	4b08      	ldr	r3, [pc, #32]	; (8003794 <_ZN11stepping_md15MotorController19PositionModeContextC1ERS0_f+0x24>)
 8003772:	b510      	push	{r4, lr}
 8003774:	e9c0 3100 	strd	r3, r1, [r0]
 8003778:	2100      	movs	r1, #0
 800377a:	2301      	movs	r3, #1
 800377c:	e9c0 1302 	strd	r1, r3, [r0, #8]
 8003780:	2300      	movs	r3, #0
 8003782:	4604      	mov	r4, r0
 8003784:	6103      	str	r3, [r0, #16]
 8003786:	6143      	str	r3, [r0, #20]
 8003788:	6182      	str	r2, [r0, #24]
		onInit();
 800378a:	f7ff ffe2 	bl	8003752 <_ZN11stepping_md15MotorController19PositionModeContext6onInitEv>
	};
 800378e:	4620      	mov	r0, r4
 8003790:	bd10      	pop	{r4, pc}
 8003792:	bf00      	nop
 8003794:	080072f0 	.word	0x080072f0

08003798 <_ZN11stepping_md15MotorController19PositionModeContext7disableEv>:
	void MotorController::PositionModeContext::disable(void){
 8003798:	b570      	push	{r4, r5, r6, lr}
 800379a:	4604      	mov	r4, r0
		const GPIO_PIN ena_pin = parent.get_ena_pin();
 800379c:	6840      	ldr	r0, [r0, #4]
 800379e:	f7ff fee3 	bl	8003568 <_ZNK11stepping_md15MotorController11get_ena_pinEv>
 80037a2:	4606      	mov	r6, r0
		const GPIO_Port ena_port = parent.get_ena_port();
 80037a4:	6860      	ldr	r0, [r4, #4]
 80037a6:	f7ff fee1 	bl	800356c <_ZNK11stepping_md15MotorController12get_ena_portEv>
 80037aa:	4605      	mov	r5, r0
		update_position();
 80037ac:	4620      	mov	r0, r4
 80037ae:	f7ff ff5b 	bl	8003668 <_ZN11stepping_md15MotorController19PositionModeContext15update_positionEv>
		stop();
 80037b2:	4620      	mov	r0, r4
 80037b4:	f7ff ffa9 	bl	800370a <_ZN11stepping_md15MotorController19PositionModeContext4stopEv>
		HAL_GPIO_WritePin(ena_port, ena_pin, GPIO_PIN_RESET);
 80037b8:	4631      	mov	r1, r6
 80037ba:	4628      	mov	r0, r5
	}
 80037bc:	e8bd 4070 	ldmia.w	sp!, {r4, r5, r6, lr}
		HAL_GPIO_WritePin(ena_port, ena_pin, GPIO_PIN_RESET);
 80037c0:	2200      	movs	r2, #0
 80037c2:	f001 bd1d 	b.w	8005200 <HAL_GPIO_WritePin>

080037c6 <_ZN11stepping_md15MotorController19PositionModeContext6onExitEv>:
	void MotorController::PositionModeContext::onExit(void){
 80037c6:	b510      	push	{r4, lr}
 80037c8:	4604      	mov	r4, r0
		stop();
 80037ca:	f7ff ff9e 	bl	800370a <_ZN11stepping_md15MotorController19PositionModeContext4stopEv>
		disable();
 80037ce:	4620      	mov	r0, r4
	}
 80037d0:	e8bd 4010 	ldmia.w	sp!, {r4, lr}
		disable();
 80037d4:	f7ff bfe0 	b.w	8003798 <_ZN11stepping_md15MotorController19PositionModeContext7disableEv>

080037d8 <_ZN11stepping_md15MotorController19PositionModeContext14move_to_targetEv>:
	void MotorController::PositionModeContext::move_to_target(void){
 80037d8:	b51f      	push	{r0, r1, r2, r3, r4, lr}
 80037da:	4604      	mov	r4, r0
		set_direction(parent.get_params().get_motor_param().target - position);
 80037dc:	6840      	ldr	r0, [r0, #4]
 80037de:	f7ff fecd 	bl	800357c <_ZN11stepping_md15MotorController10get_paramsEv>
 80037e2:	4601      	mov	r1, r0
 80037e4:	4668      	mov	r0, sp
 80037e6:	f7ff ff05 	bl	80035f4 <_ZN11stepping_md10Parameters15get_motor_paramEv>
 80037ea:	6961      	ldr	r1, [r4, #20]
 80037ec:	9802      	ldr	r0, [sp, #8]
 80037ee:	f7fd f8db 	bl	80009a8 <__aeabi_fsub>
 80037f2:	4601      	mov	r1, r0
 80037f4:	4620      	mov	r0, r4
 80037f6:	f7ff ff53 	bl	80036a0 <_ZN11stepping_md15MotorController19PositionModeContext13set_directionEf>
		start();
 80037fa:	4620      	mov	r0, r4
	}
 80037fc:	b004      	add	sp, #16
 80037fe:	e8bd 4010 	ldmia.w	sp!, {r4, lr}
		start();
 8003802:	f7ff bf6d 	b.w	80036e0 <_ZN11stepping_md15MotorController19PositionModeContext5startEv>

08003806 <_ZN11stepping_md15MotorController19PositionModeContext6updateEv>:
	void MotorController::PositionModeContext::update(void){
 8003806:	b51f      	push	{r0, r1, r2, r3, r4, lr}
 8003808:	4604      	mov	r4, r0
		update_position();
 800380a:	f7ff ff2d 	bl	8003668 <_ZN11stepping_md15MotorController19PositionModeContext15update_positionEv>
		stepping_md::MotorParam motor_param = parent.get_params().get_motor_param();
 800380e:	6860      	ldr	r0, [r4, #4]
 8003810:	f7ff feb4 	bl	800357c <_ZN11stepping_md15MotorController10get_paramsEv>
 8003814:	4601      	mov	r1, r0
 8003816:	4668      	mov	r0, sp
 8003818:	f7ff feec 	bl	80035f4 <_ZN11stepping_md10Parameters15get_motor_paramEv>
		if(abs(motor_param.target - position) < error_threshold){
 800381c:	6961      	ldr	r1, [r4, #20]
 800381e:	9802      	ldr	r0, [sp, #8]
 8003820:	f7fd f8c2 	bl	80009a8 <__aeabi_fsub>
 8003824:	f7fd fb90 	bl	8000f48 <__aeabi_f2iz>
 8003828:	2800      	cmp	r0, #0
 800382a:	bfb8      	it	lt
 800382c:	4240      	neglt	r0, r0
 800382e:	f7fd f971 	bl	8000b14 <__aeabi_i2f>
 8003832:	69a1      	ldr	r1, [r4, #24]
 8003834:	f7fd fb60 	bl	8000ef8 <__aeabi_fcmplt>
 8003838:	b128      	cbz	r0, 8003846 <_ZN11stepping_md15MotorController19PositionModeContext6updateEv+0x40>
			stop();
 800383a:	4620      	mov	r0, r4
	}
 800383c:	b004      	add	sp, #16
 800383e:	e8bd 4010 	ldmia.w	sp!, {r4, lr}
			stop();
 8003842:	f7ff bf62 	b.w	800370a <_ZN11stepping_md15MotorController19PositionModeContext4stopEv>
			move_to_target();
 8003846:	4620      	mov	r0, r4
	}
 8003848:	b004      	add	sp, #16
 800384a:	e8bd 4010 	ldmia.w	sp!, {r4, lr}
			move_to_target();
 800384e:	f7ff bfc3 	b.w	80037d8 <_ZN11stepping_md15MotorController19PositionModeContext14move_to_targetEv>

08003852 <_ZN11stepping_md15MotorController19VelocityModeContext11descriptionEv>:
	}
	void MotorController::VelocityModeContext::onExit(void){
		HAL_TIM_PWM_Stop(parent.get_pwm_tim(), TIM_CHANNEL_1);
		HAL_GPIO_WritePin(parent.get_ena_port(), parent.get_ena_pin(), GPIO_PIN_RESET);
	}
	MD_MODE MotorController::VelocityModeContext::description(void){return MD_MODE::VEL;}
 8003852:	2005      	movs	r0, #5
 8003854:	4770      	bx	lr

08003856 <_ZN11stepping_md15MotorController19VelocityModeContext6onInitEv>:
	void MotorController::VelocityModeContext::onInit(void){
 8003856:	b538      	push	{r3, r4, r5, lr}
 8003858:	4604      	mov	r4, r0
		HAL_TIM_PWM_Stop(parent.get_pwm_tim(), TIM_CHANNEL_1);
 800385a:	6840      	ldr	r0, [r0, #4]
 800385c:	f7ff fe8c 	bl	8003578 <_ZN11stepping_md15MotorController11get_pwm_timEv>
 8003860:	2100      	movs	r1, #0
 8003862:	f002 fa31 	bl	8005cc8 <HAL_TIM_PWM_Stop>
		HAL_GPIO_WritePin(parent.get_ena_port(), parent.get_ena_pin(), GPIO_PIN_SET);
 8003866:	6860      	ldr	r0, [r4, #4]
 8003868:	f7ff fe80 	bl	800356c <_ZNK11stepping_md15MotorController12get_ena_portEv>
 800386c:	4605      	mov	r5, r0
 800386e:	6860      	ldr	r0, [r4, #4]
 8003870:	f7ff fe7a 	bl	8003568 <_ZNK11stepping_md15MotorController11get_ena_pinEv>
 8003874:	2201      	movs	r2, #1
 8003876:	4601      	mov	r1, r0
 8003878:	4628      	mov	r0, r5
	}
 800387a:	e8bd 4038 	ldmia.w	sp!, {r3, r4, r5, lr}
		HAL_GPIO_WritePin(parent.get_ena_port(), parent.get_ena_pin(), GPIO_PIN_SET);
 800387e:	f001 bcbf 	b.w	8005200 <HAL_GPIO_WritePin>

08003882 <_ZN11stepping_md15MotorController19VelocityModeContext6onExitEv>:
	void MotorController::VelocityModeContext::onExit(void){
 8003882:	b538      	push	{r3, r4, r5, lr}
 8003884:	4604      	mov	r4, r0
		HAL_TIM_PWM_Stop(parent.get_pwm_tim(), TIM_CHANNEL_1);
 8003886:	6840      	ldr	r0, [r0, #4]
 8003888:	f7ff fe76 	bl	8003578 <_ZN11stepping_md15MotorController11get_pwm_timEv>
 800388c:	2100      	movs	r1, #0
 800388e:	f002 fa1b 	bl	8005cc8 <HAL_TIM_PWM_Stop>
		HAL_GPIO_WritePin(parent.get_ena_port(), parent.get_ena_pin(), GPIO_PIN_RESET);
 8003892:	6860      	ldr	r0, [r4, #4]
 8003894:	f7ff fe6a 	bl	800356c <_ZNK11stepping_md15MotorController12get_ena_portEv>
 8003898:	4605      	mov	r5, r0
 800389a:	6860      	ldr	r0, [r4, #4]
 800389c:	f7ff fe64 	bl	8003568 <_ZNK11stepping_md15MotorController11get_ena_pinEv>
 80038a0:	2200      	movs	r2, #0
 80038a2:	4601      	mov	r1, r0
 80038a4:	4628      	mov	r0, r5
	}
 80038a6:	e8bd 4038 	ldmia.w	sp!, {r3, r4, r5, lr}
		HAL_GPIO_WritePin(parent.get_ena_port(), parent.get_ena_pin(), GPIO_PIN_RESET);
 80038aa:	f001 bca9 	b.w	8005200 <HAL_GPIO_WritePin>
	...

080038b0 <_ZN11stepping_md15MotorController19VelocityModeContextC1ERS0_>:
	MotorController::VelocityModeContext::VelocityModeContext(MotorController& parent): parent(parent){
 80038b0:	b510      	push	{r4, lr}
 80038b2:	4604      	mov	r4, r0
 80038b4:	4b03      	ldr	r3, [pc, #12]	; (80038c4 <_ZN11stepping_md15MotorController19VelocityModeContextC1ERS0_+0x14>)
 80038b6:	e9c0 3100 	strd	r3, r1, [r0]
		onInit();
 80038ba:	f7ff ffcc 	bl	8003856 <_ZN11stepping_md15MotorController19VelocityModeContext6onInitEv>
	}
 80038be:	4620      	mov	r0, r4
 80038c0:	bd10      	pop	{r4, pc}
 80038c2:	bf00      	nop
 80038c4:	0800734c 	.word	0x0800734c

080038c8 <_ZN11stepping_md15MotorController19VelocityModeContext13set_directionEf>:
	void MotorController::VelocityModeContext::set_direction(float _direction){
 80038c8:	b570      	push	{r4, r5, r6, lr}
 80038ca:	4604      	mov	r4, r0
		const GPIO_PIN dir_pin = parent.get_dir_pin();
 80038cc:	6840      	ldr	r0, [r0, #4]
	void MotorController::VelocityModeContext::set_direction(float _direction){
 80038ce:	460e      	mov	r6, r1
		const GPIO_PIN dir_pin = parent.get_dir_pin();
 80038d0:	f7ff fe4e 	bl	8003570 <_ZNK11stepping_md15MotorController11get_dir_pinEv>
 80038d4:	4605      	mov	r5, r0
		const GPIO_Port dir_port = parent.get_dir_port();
 80038d6:	6860      	ldr	r0, [r4, #4]
 80038d8:	f7ff fe4c 	bl	8003574 <_ZNK11stepping_md15MotorController12get_dir_portEv>
		if(_direction > 0) HAL_GPIO_WritePin(dir_port, dir_pin, GPIO_PIN_SET);
 80038dc:	2100      	movs	r1, #0
		const GPIO_Port dir_port = parent.get_dir_port();
 80038de:	4604      	mov	r4, r0
		if(_direction > 0) HAL_GPIO_WritePin(dir_port, dir_pin, GPIO_PIN_SET);
 80038e0:	4630      	mov	r0, r6
 80038e2:	f7fd fb27 	bl	8000f34 <__aeabi_fcmpgt>
 80038e6:	4602      	mov	r2, r0
 80038e8:	b100      	cbz	r0, 80038ec <_ZN11stepping_md15MotorController19VelocityModeContext13set_directionEf+0x24>
 80038ea:	2201      	movs	r2, #1
		else HAL_GPIO_WritePin(dir_port, dir_pin, GPIO_PIN_RESET);
 80038ec:	4629      	mov	r1, r5
 80038ee:	4620      	mov	r0, r4
	}
 80038f0:	e8bd 4070 	ldmia.w	sp!, {r4, r5, r6, lr}
		else HAL_GPIO_WritePin(dir_port, dir_pin, GPIO_PIN_RESET);
 80038f4:	f001 bc84 	b.w	8005200 <HAL_GPIO_WritePin>

080038f8 <_ZN11stepping_md15MotorController19VelocityModeContext11move_at_velEv>:
	void MotorController::VelocityModeContext::move_at_vel(void){
 80038f8:	b5f0      	push	{r4, r5, r6, r7, lr}
 80038fa:	4604      	mov	r4, r0
 80038fc:	b085      	sub	sp, #20
		MotorParam motor_param = parent.get_params().get_motor_param();
 80038fe:	6840      	ldr	r0, [r0, #4]
 8003900:	f7ff fe3c 	bl	800357c <_ZN11stepping_md15MotorController10get_paramsEv>
 8003904:	4601      	mov	r1, r0
 8003906:	4668      	mov	r0, sp
 8003908:	f7ff fe74 	bl	80035f4 <_ZN11stepping_md10Parameters15get_motor_paramEv>
		TIM_HandleTypeDef* pwm_tim = parent.get_pwm_tim();
 800390c:	6860      	ldr	r0, [r4, #4]
		MotorParam motor_param = parent.get_params().get_motor_param();
 800390e:	9e02      	ldr	r6, [sp, #8]
		TIM_HandleTypeDef* pwm_tim = parent.get_pwm_tim();
 8003910:	f7ff fe32 	bl	8003578 <_ZN11stepping_md15MotorController11get_pwm_timEv>
 8003914:	4605      	mov	r5, r0
		set_direction(motor_param.target);
 8003916:	4631      	mov	r1, r6
 8003918:	4620      	mov	r0, r4
 800391a:	f7ff ffd5 	bl	80038c8 <_ZN11stepping_md15MotorController19VelocityModeContext13set_directionEf>
		const uint32_t arr_val = (uint32_t)(parent.get_source_clock()/(pwm_tim->Instance->PSC + 1)/rotate_per_second/motor_param.ppr) - 1;
 800391e:	6860      	ldr	r0, [r4, #4]
 8003920:	f7ff fe2e 	bl	8003580 <_ZNK11stepping_md15MotorController16get_source_clockEv>
 8003924:	682c      	ldr	r4, [r5, #0]
 8003926:	6aa3      	ldr	r3, [r4, #40]	; 0x28
 8003928:	3301      	adds	r3, #1
 800392a:	fbb0 f0f3 	udiv	r0, r0, r3
 800392e:	f7fd f8ed 	bl	8000b0c <__aeabi_ui2f>
 8003932:	4607      	mov	r7, r0
  abs(double __x)
  { return __builtin_fabs(__x); }

  inline _GLIBCXX_CONSTEXPR float
  abs(float __x)
  { return __builtin_fabsf(__x); }
 8003934:	f026 4000 	bic.w	r0, r6, #2147483648	; 0x80000000
		const float rotate_per_second = std::abs(motor_param.target) / (2.0f * std::numbers::pi);
 8003938:	f7fc fd78 	bl	800042c <__aeabi_f2d>
 800393c:	a312      	add	r3, pc, #72	; (adr r3, 8003988 <_ZN11stepping_md15MotorController19VelocityModeContext11move_at_velEv+0x90>)
 800393e:	e9d3 2300 	ldrd	r2, r3, [r3]
 8003942:	f7fc fef5 	bl	8000730 <__aeabi_ddiv>
 8003946:	f7fc ffdb 	bl	8000900 <__aeabi_d2f>
 800394a:	4601      	mov	r1, r0
		const uint32_t arr_val = (uint32_t)(parent.get_source_clock()/(pwm_tim->Instance->PSC + 1)/rotate_per_second/motor_param.ppr) - 1;
 800394c:	4638      	mov	r0, r7
 800394e:	f7fd f9e9 	bl	8000d24 <__aeabi_fdiv>
 8003952:	9901      	ldr	r1, [sp, #4]
 8003954:	f7fd f9e6 	bl	8000d24 <__aeabi_fdiv>
 8003958:	f7fd fb1c 	bl	8000f94 <__aeabi_f2uiz>
 800395c:	1e43      	subs	r3, r0, #1
		pwm_tim->Instance->ARR = arr_val;
 800395e:	62e3      	str	r3, [r4, #44]	; 0x2c
		pwm_tim->Instance->CCR1 = (uint32_t)((arr_val + 1) / 2.0f) - 1;
 8003960:	f7fd f8d4 	bl	8000b0c <__aeabi_ui2f>
 8003964:	f04f 517c 	mov.w	r1, #1056964608	; 0x3f000000
 8003968:	f7fd f928 	bl	8000bbc <__aeabi_fmul>
 800396c:	f7fd fb12 	bl	8000f94 <__aeabi_f2uiz>
 8003970:	3801      	subs	r0, #1
 8003972:	6360      	str	r0, [r4, #52]	; 0x34
		HAL_TIM_PWM_Start(pwm_tim, TIM_CHANNEL_1);
 8003974:	2100      	movs	r1, #0
 8003976:	4628      	mov	r0, r5
	}
 8003978:	b005      	add	sp, #20
 800397a:	e8bd 40f0 	ldmia.w	sp!, {r4, r5, r6, r7, lr}
		HAL_TIM_PWM_Start(pwm_tim, TIM_CHANNEL_1);
 800397e:	f002 b965 	b.w	8005c4c <HAL_TIM_PWM_Start>
 8003982:	bf00      	nop
 8003984:	f3af 8000 	nop.w
 8003988:	54442d18 	.word	0x54442d18
 800398c:	401921fb 	.word	0x401921fb

08003990 <_ZN11stepping_md15MotorController19VelocityModeContext6updateEv>:
	void MotorController::VelocityModeContext::update(void){
 8003990:	b51f      	push	{r0, r1, r2, r3, r4, lr}
 8003992:	4604      	mov	r4, r0
		if(parent.get_params().get_motor_param().target != 0) move_at_vel();
 8003994:	6840      	ldr	r0, [r0, #4]
 8003996:	f7ff fdf1 	bl	800357c <_ZN11stepping_md15MotorController10get_paramsEv>
 800399a:	4601      	mov	r1, r0
 800399c:	4668      	mov	r0, sp
 800399e:	f7ff fe29 	bl	80035f4 <_ZN11stepping_md10Parameters15get_motor_paramEv>
 80039a2:	2100      	movs	r1, #0
 80039a4:	9802      	ldr	r0, [sp, #8]
 80039a6:	f7fd fa9d 	bl	8000ee4 <__aeabi_fcmpeq>
 80039aa:	b928      	cbnz	r0, 80039b8 <_ZN11stepping_md15MotorController19VelocityModeContext6updateEv+0x28>
 80039ac:	4620      	mov	r0, r4
	}
 80039ae:	b004      	add	sp, #16
 80039b0:	e8bd 4010 	ldmia.w	sp!, {r4, lr}
		if(parent.get_params().get_motor_param().target != 0) move_at_vel();
 80039b4:	f7ff bfa0 	b.w	80038f8 <_ZN11stepping_md15MotorController19VelocityModeContext11move_at_velEv>
		else HAL_TIM_PWM_Stop(parent.get_pwm_tim(), TIM_CHANNEL_1);
 80039b8:	6860      	ldr	r0, [r4, #4]
 80039ba:	f7ff fddd 	bl	8003578 <_ZN11stepping_md15MotorController11get_pwm_timEv>
 80039be:	2100      	movs	r1, #0
	}
 80039c0:	b004      	add	sp, #16
 80039c2:	e8bd 4010 	ldmia.w	sp!, {r4, lr}
		else HAL_TIM_PWM_Stop(parent.get_pwm_tim(), TIM_CHANNEL_1);
 80039c6:	f002 b97f 	b.w	8005cc8 <HAL_TIM_PWM_Stop>
	...

080039cc <_ZN11stepping_md7led_mgr11led_processEv>:
static bool is_yellow_led_on = false;
static uint8_t blink_num;
static uint8_t enabled_motor_num = 0;

namespace stepping_md::led_mgr{
	void led_process(void){
 80039cc:	e92d 41f0 	stmdb	sp!, {r4, r5, r6, r7, r8, lr}
		constexpr unsigned int green_led_on_time = 1900; //ms
		constexpr unsigned int green_led_off_time = 100; //ms
		constexpr unsigned int yellow_led_period = 2000; //ms
		constexpr unsigned int yellow_led_margin = 500; //ms
		constexpr unsigned int yellow_led_blink_period = yellow_led_period - yellow_led_margin;
		if(is_can_led_on && ((HAL_GetTick() - can_led_last_on) > can_led_on_time)){
 80039d0:	4c45      	ldr	r4, [pc, #276]	; (8003ae8 <_ZN11stepping_md7led_mgr11led_processEv+0x11c>)
 80039d2:	7823      	ldrb	r3, [r4, #0]
 80039d4:	b173      	cbz	r3, 80039f4 <_ZN11stepping_md7led_mgr11led_processEv+0x28>
 80039d6:	f001 f939 	bl	8004c4c <HAL_GetTick>
 80039da:	4b44      	ldr	r3, [pc, #272]	; (8003aec <_ZN11stepping_md7led_mgr11led_processEv+0x120>)
 80039dc:	681b      	ldr	r3, [r3, #0]
 80039de:	1ac0      	subs	r0, r0, r3
 80039e0:	283c      	cmp	r0, #60	; 0x3c
 80039e2:	d907      	bls.n	80039f4 <_ZN11stepping_md7led_mgr11led_processEv+0x28>
			HAL_GPIO_WritePin(LED_CAN_GPIO_Port, LED_CAN_Pin, GPIO_PIN_RESET);
 80039e4:	2200      	movs	r2, #0
 80039e6:	f44f 4180 	mov.w	r1, #16384	; 0x4000
 80039ea:	4841      	ldr	r0, [pc, #260]	; (8003af0 <_ZN11stepping_md7led_mgr11led_processEv+0x124>)
 80039ec:	f001 fc08 	bl	8005200 <HAL_GPIO_WritePin>
			is_can_led_on = true;
 80039f0:	2301      	movs	r3, #1
 80039f2:	7023      	strb	r3, [r4, #0]
		}

		if(is_green_led_on && ((HAL_GetTick() - green_led_last_toggle) > green_led_on_time)){
 80039f4:	4d3f      	ldr	r5, [pc, #252]	; (8003af4 <_ZN11stepping_md7led_mgr11led_processEv+0x128>)
 80039f6:	4c40      	ldr	r4, [pc, #256]	; (8003af8 <_ZN11stepping_md7led_mgr11led_processEv+0x12c>)
 80039f8:	782b      	ldrb	r3, [r5, #0]
 80039fa:	b14b      	cbz	r3, 8003a10 <_ZN11stepping_md7led_mgr11led_processEv+0x44>
 80039fc:	f001 f926 	bl	8004c4c <HAL_GetTick>
 8003a00:	6823      	ldr	r3, [r4, #0]
 8003a02:	1ac0      	subs	r0, r0, r3
 8003a04:	f240 736c 	movw	r3, #1900	; 0x76c
 8003a08:	4298      	cmp	r0, r3
 8003a0a:	d80e      	bhi.n	8003a2a <_ZN11stepping_md7led_mgr11led_processEv+0x5e>
			HAL_GPIO_WritePin(LED0_GPIO_Port, LED0_Pin, GPIO_PIN_RESET);
			is_green_led_on = false;
			green_led_last_toggle = HAL_GetTick();
		}else if((!is_green_led_on) && ((HAL_GetTick() - green_led_last_toggle) > green_led_off_time)){
 8003a0c:	782b      	ldrb	r3, [r5, #0]
 8003a0e:	b9b3      	cbnz	r3, 8003a3e <_ZN11stepping_md7led_mgr11led_processEv+0x72>
 8003a10:	f001 f91c 	bl	8004c4c <HAL_GetTick>
 8003a14:	6823      	ldr	r3, [r4, #0]
 8003a16:	1ac0      	subs	r0, r0, r3
 8003a18:	2864      	cmp	r0, #100	; 0x64
 8003a1a:	d910      	bls.n	8003a3e <_ZN11stepping_md7led_mgr11led_processEv+0x72>
			HAL_GPIO_WritePin(LED0_GPIO_Port, LED0_Pin, GPIO_PIN_SET);
 8003a1c:	2201      	movs	r2, #1
 8003a1e:	4837      	ldr	r0, [pc, #220]	; (8003afc <_ZN11stepping_md7led_mgr11led_processEv+0x130>)
 8003a20:	4611      	mov	r1, r2
 8003a22:	f001 fbed 	bl	8005200 <HAL_GPIO_WritePin>
			is_green_led_on = true;
 8003a26:	2301      	movs	r3, #1
 8003a28:	e005      	b.n	8003a36 <_ZN11stepping_md7led_mgr11led_processEv+0x6a>
			HAL_GPIO_WritePin(LED0_GPIO_Port, LED0_Pin, GPIO_PIN_RESET);
 8003a2a:	2200      	movs	r2, #0
 8003a2c:	2101      	movs	r1, #1
 8003a2e:	4833      	ldr	r0, [pc, #204]	; (8003afc <_ZN11stepping_md7led_mgr11led_processEv+0x130>)
 8003a30:	f001 fbe6 	bl	8005200 <HAL_GPIO_WritePin>
			is_green_led_on = false;
 8003a34:	2300      	movs	r3, #0
			is_green_led_on = true;
 8003a36:	702b      	strb	r3, [r5, #0]
			green_led_last_toggle = HAL_GetTick();
 8003a38:	f001 f908 	bl	8004c4c <HAL_GetTick>
 8003a3c:	6020      	str	r0, [r4, #0]
		}

		if(enabled_motor_num != 0){
 8003a3e:	f8df 80c0 	ldr.w	r8, [pc, #192]	; 8003b00 <_ZN11stepping_md7led_mgr11led_processEv+0x134>
 8003a42:	4c30      	ldr	r4, [pc, #192]	; (8003b04 <_ZN11stepping_md7led_mgr11led_processEv+0x138>)
 8003a44:	f898 2000 	ldrb.w	r2, [r8]
 8003a48:	2a00      	cmp	r2, #0
 8003a4a:	d047      	beq.n	8003adc <_ZN11stepping_md7led_mgr11led_processEv+0x110>
			int yellow_led_on_time, yellow_led_off_time;
			yellow_led_on_time = yellow_led_off_time = yellow_led_blink_period / enabled_motor_num / 2;
			if(blink_num < enabled_motor_num){
 8003a4c:	4e2e      	ldr	r6, [pc, #184]	; (8003b08 <_ZN11stepping_md7led_mgr11led_processEv+0x13c>)
 8003a4e:	7833      	ldrb	r3, [r6, #0]
 8003a50:	4293      	cmp	r3, r2
 8003a52:	d231      	bcs.n	8003ab8 <_ZN11stepping_md7led_mgr11led_processEv+0xec>
			yellow_led_on_time = yellow_led_off_time = yellow_led_blink_period / enabled_motor_num / 2;
 8003a54:	f240 25ee 	movw	r5, #750	; 0x2ee
				if(is_yellow_led_on && (HAL_GetTick() - yellow_led_last_toggle) > yellow_led_on_time){
 8003a58:	4f2c      	ldr	r7, [pc, #176]	; (8003b0c <_ZN11stepping_md7led_mgr11led_processEv+0x140>)
			yellow_led_on_time = yellow_led_off_time = yellow_led_blink_period / enabled_motor_num / 2;
 8003a5a:	fbb5 f5f2 	udiv	r5, r5, r2
				if(is_yellow_led_on && (HAL_GetTick() - yellow_led_last_toggle) > yellow_led_on_time){
 8003a5e:	783b      	ldrb	r3, [r7, #0]
 8003a60:	b13b      	cbz	r3, 8003a72 <_ZN11stepping_md7led_mgr11led_processEv+0xa6>
 8003a62:	f001 f8f3 	bl	8004c4c <HAL_GetTick>
 8003a66:	6823      	ldr	r3, [r4, #0]
 8003a68:	1ac0      	subs	r0, r0, r3
 8003a6a:	4285      	cmp	r5, r0
 8003a6c:	d318      	bcc.n	8003aa0 <_ZN11stepping_md7led_mgr11led_processEv+0xd4>
					HAL_GPIO_WritePin(LED1_GPIO_Port, LED1_Pin, GPIO_PIN_RESET);
					is_yellow_led_on = false;
					yellow_led_last_toggle = HAL_GetTick();
				}else if((!is_yellow_led_on) && (HAL_GetTick() - yellow_led_last_toggle) > yellow_led_off_time){
 8003a6e:	783b      	ldrb	r3, [r7, #0]
 8003a70:	bb03      	cbnz	r3, 8003ab4 <_ZN11stepping_md7led_mgr11led_processEv+0xe8>
 8003a72:	f001 f8eb 	bl	8004c4c <HAL_GetTick>
 8003a76:	6823      	ldr	r3, [r4, #0]
 8003a78:	1ac0      	subs	r0, r0, r3
 8003a7a:	4285      	cmp	r5, r0
 8003a7c:	d21a      	bcs.n	8003ab4 <_ZN11stepping_md7led_mgr11led_processEv+0xe8>
					if(blink_num < enabled_motor_num - 1){
 8003a7e:	f898 3000 	ldrb.w	r3, [r8]
 8003a82:	7832      	ldrb	r2, [r6, #0]
 8003a84:	3b01      	subs	r3, #1
 8003a86:	429a      	cmp	r2, r3
 8003a88:	da06      	bge.n	8003a98 <_ZN11stepping_md7led_mgr11led_processEv+0xcc>
						HAL_GPIO_WritePin(LED1_GPIO_Port, LED1_Pin, GPIO_PIN_SET);
 8003a8a:	2201      	movs	r2, #1
 8003a8c:	2102      	movs	r1, #2
 8003a8e:	481b      	ldr	r0, [pc, #108]	; (8003afc <_ZN11stepping_md7led_mgr11led_processEv+0x130>)
 8003a90:	f001 fbb6 	bl	8005200 <HAL_GPIO_WritePin>
						is_yellow_led_on = true;
 8003a94:	2301      	movs	r3, #1
 8003a96:	703b      	strb	r3, [r7, #0]
					}
					blink_num++;
 8003a98:	7833      	ldrb	r3, [r6, #0]
 8003a9a:	3301      	adds	r3, #1
 8003a9c:	7033      	strb	r3, [r6, #0]
					yellow_led_last_toggle = HAL_GetTick();
 8003a9e:	e006      	b.n	8003aae <_ZN11stepping_md7led_mgr11led_processEv+0xe2>
					HAL_GPIO_WritePin(LED1_GPIO_Port, LED1_Pin, GPIO_PIN_RESET);
 8003aa0:	2200      	movs	r2, #0
 8003aa2:	2102      	movs	r1, #2
 8003aa4:	4815      	ldr	r0, [pc, #84]	; (8003afc <_ZN11stepping_md7led_mgr11led_processEv+0x130>)
 8003aa6:	f001 fbab 	bl	8005200 <HAL_GPIO_WritePin>
					is_yellow_led_on = false;
 8003aaa:	2300      	movs	r3, #0
 8003aac:	703b      	strb	r3, [r7, #0]
					yellow_led_last_toggle = HAL_GetTick();
				}
			}
		}else{
			HAL_GPIO_WritePin(LED1_GPIO_Port, LED1_Pin, GPIO_PIN_RESET);
			yellow_led_last_toggle = HAL_GetTick();
 8003aae:	f001 f8cd 	bl	8004c4c <HAL_GetTick>
 8003ab2:	6020      	str	r0, [r4, #0]
		}
	}
 8003ab4:	e8bd 81f0 	ldmia.w	sp!, {r4, r5, r6, r7, r8, pc}
				if((HAL_GetTick() - yellow_led_last_toggle) > yellow_led_margin){
 8003ab8:	f001 f8c8 	bl	8004c4c <HAL_GetTick>
 8003abc:	6823      	ldr	r3, [r4, #0]
 8003abe:	1ac0      	subs	r0, r0, r3
 8003ac0:	f5b0 7ffa 	cmp.w	r0, #500	; 0x1f4
 8003ac4:	d9f6      	bls.n	8003ab4 <_ZN11stepping_md7led_mgr11led_processEv+0xe8>
					blink_num = 0;
 8003ac6:	2300      	movs	r3, #0
					HAL_GPIO_WritePin(LED1_GPIO_Port, LED1_Pin, GPIO_PIN_SET);
 8003ac8:	2201      	movs	r2, #1
 8003aca:	2102      	movs	r1, #2
 8003acc:	480b      	ldr	r0, [pc, #44]	; (8003afc <_ZN11stepping_md7led_mgr11led_processEv+0x130>)
					blink_num = 0;
 8003ace:	7033      	strb	r3, [r6, #0]
					HAL_GPIO_WritePin(LED1_GPIO_Port, LED1_Pin, GPIO_PIN_SET);
 8003ad0:	f001 fb96 	bl	8005200 <HAL_GPIO_WritePin>
					is_yellow_led_on = true;
 8003ad4:	2201      	movs	r2, #1
 8003ad6:	4b0d      	ldr	r3, [pc, #52]	; (8003b0c <_ZN11stepping_md7led_mgr11led_processEv+0x140>)
 8003ad8:	701a      	strb	r2, [r3, #0]
					yellow_led_last_toggle = HAL_GetTick();
 8003ada:	e7e8      	b.n	8003aae <_ZN11stepping_md7led_mgr11led_processEv+0xe2>
			HAL_GPIO_WritePin(LED1_GPIO_Port, LED1_Pin, GPIO_PIN_RESET);
 8003adc:	2102      	movs	r1, #2
 8003ade:	4807      	ldr	r0, [pc, #28]	; (8003afc <_ZN11stepping_md7led_mgr11led_processEv+0x130>)
 8003ae0:	f001 fb8e 	bl	8005200 <HAL_GPIO_WritePin>
 8003ae4:	e7e3      	b.n	8003aae <_ZN11stepping_md7led_mgr11led_processEv+0xe2>
 8003ae6:	bf00      	nop
 8003ae8:	20000354 	.word	0x20000354
 8003aec:	20000358 	.word	0x20000358
 8003af0:	40011000 	.word	0x40011000
 8003af4:	20000000 	.word	0x20000000
 8003af8:	20000360 	.word	0x20000360
 8003afc:	40010c00 	.word	0x40010c00
 8003b00:	2000035d 	.word	0x2000035d
 8003b04:	20000364 	.word	0x20000364
 8003b08:	20000368 	.word	0x20000368
 8003b0c:	2000035c 	.word	0x2000035c

08003b10 <_ZN11stepping_md7led_mgr13blink_can_ledEv>:

	void blink_can_led(void){
 8003b10:	b510      	push	{r4, lr}
		is_can_led_on = true;
 8003b12:	2401      	movs	r4, #1
 8003b14:	4b06      	ldr	r3, [pc, #24]	; (8003b30 <_ZN11stepping_md7led_mgr13blink_can_ledEv+0x20>)
 8003b16:	701c      	strb	r4, [r3, #0]
		can_led_last_on = HAL_GetTick();
 8003b18:	f001 f898 	bl	8004c4c <HAL_GetTick>
 8003b1c:	4b05      	ldr	r3, [pc, #20]	; (8003b34 <_ZN11stepping_md7led_mgr13blink_can_ledEv+0x24>)
		HAL_GPIO_WritePin(LED_CAN_GPIO_Port, LED_CAN_Pin, GPIO_PIN_SET);
 8003b1e:	4622      	mov	r2, r4
	}
 8003b20:	e8bd 4010 	ldmia.w	sp!, {r4, lr}
		can_led_last_on = HAL_GetTick();
 8003b24:	6018      	str	r0, [r3, #0]
		HAL_GPIO_WritePin(LED_CAN_GPIO_Port, LED_CAN_Pin, GPIO_PIN_SET);
 8003b26:	f44f 4180 	mov.w	r1, #16384	; 0x4000
 8003b2a:	4803      	ldr	r0, [pc, #12]	; (8003b38 <_ZN11stepping_md7led_mgr13blink_can_ledEv+0x28>)
 8003b2c:	f001 bb68 	b.w	8005200 <HAL_GPIO_WritePin>
 8003b30:	20000354 	.word	0x20000354
 8003b34:	20000358 	.word	0x20000358
 8003b38:	40011000 	.word	0x40011000

08003b3c <_ZN11stepping_md7led_mgr22increase_enabled_motorEv>:

	void increase_enabled_motor(){
 8003b3c:	b510      	push	{r4, lr}
		if(enabled_motor_num == 0){
 8003b3e:	4c07      	ldr	r4, [pc, #28]	; (8003b5c <_ZN11stepping_md7led_mgr22increase_enabled_motorEv+0x20>)
 8003b40:	7823      	ldrb	r3, [r4, #0]
 8003b42:	b93b      	cbnz	r3, 8003b54 <_ZN11stepping_md7led_mgr22increase_enabled_motorEv+0x18>
			HAL_GPIO_WritePin(LED1_GPIO_Port, LED1_Pin, GPIO_PIN_SET);
 8003b44:	2201      	movs	r2, #1
 8003b46:	2102      	movs	r1, #2
 8003b48:	4805      	ldr	r0, [pc, #20]	; (8003b60 <_ZN11stepping_md7led_mgr22increase_enabled_motorEv+0x24>)
 8003b4a:	f001 fb59 	bl	8005200 <HAL_GPIO_WritePin>
			is_yellow_led_on = true;
 8003b4e:	2201      	movs	r2, #1
 8003b50:	4b04      	ldr	r3, [pc, #16]	; (8003b64 <_ZN11stepping_md7led_mgr22increase_enabled_motorEv+0x28>)
 8003b52:	701a      	strb	r2, [r3, #0]
		}
		enabled_motor_num++;
 8003b54:	7823      	ldrb	r3, [r4, #0]
 8003b56:	3301      	adds	r3, #1
 8003b58:	7023      	strb	r3, [r4, #0]
	}
 8003b5a:	bd10      	pop	{r4, pc}
 8003b5c:	2000035d 	.word	0x2000035d
 8003b60:	40010c00 	.word	0x40010c00
 8003b64:	2000035c 	.word	0x2000035c

08003b68 <_ZN11stepping_md7led_mgr22decrease_enabled_motorEv>:

	void decrease_enabled_motor(){
		enabled_motor_num = enabled_motor_num > 0? enabled_motor_num - 1 : 0;
 8003b68:	4a03      	ldr	r2, [pc, #12]	; (8003b78 <_ZN11stepping_md7led_mgr22decrease_enabled_motorEv+0x10>)
 8003b6a:	7813      	ldrb	r3, [r2, #0]
 8003b6c:	b10b      	cbz	r3, 8003b72 <_ZN11stepping_md7led_mgr22decrease_enabled_motorEv+0xa>
 8003b6e:	3b01      	subs	r3, #1
 8003b70:	b2db      	uxtb	r3, r3
 8003b72:	7013      	strb	r3, [r2, #0]
	}
 8003b74:	4770      	bx	lr
 8003b76:	bf00      	nop
 8003b78:	2000035d 	.word	0x2000035d

08003b7c <_ZN11stepping_md7led_mgr17disable_all_motorEv>:

	void disable_all_motor(){
		enabled_motor_num = 0;
 8003b7c:	2200      	movs	r2, #0
 8003b7e:	4b01      	ldr	r3, [pc, #4]	; (8003b84 <_ZN11stepping_md7led_mgr17disable_all_motorEv+0x8>)
 8003b80:	701a      	strb	r2, [r3, #0]
	}
 8003b82:	4770      	bx	lr
 8003b84:	2000035d 	.word	0x2000035d

08003b88 <SystemClock_Config>:
/**
  * @brief System Clock Configuration
  * @retval None
  */
void SystemClock_Config(void)
{
 8003b88:	b510      	push	{r4, lr}
 8003b8a:	b090      	sub	sp, #64	; 0x40
  RCC_OscInitTypeDef RCC_OscInitStruct = {0};
 8003b8c:	2214      	movs	r2, #20
 8003b8e:	2100      	movs	r1, #0
 8003b90:	a808      	add	r0, sp, #32
 8003b92:	f003 f8a3 	bl	8006cdc <memset>
  RCC_ClkInitTypeDef RCC_ClkInitStruct = {0};
 8003b96:	2214      	movs	r2, #20
 8003b98:	2100      	movs	r1, #0
 8003b9a:	a801      	add	r0, sp, #4
 8003b9c:	f003 f89e 	bl	8006cdc <memset>
  */
  RCC_OscInitStruct.OscillatorType = RCC_OSCILLATORTYPE_HSE;
  RCC_OscInitStruct.HSEState = RCC_HSE_ON;
  RCC_OscInitStruct.HSEPredivValue = RCC_HSE_PREDIV_DIV1;
  RCC_OscInitStruct.HSIState = RCC_HSI_ON;
  RCC_OscInitStruct.PLL.PLLState = RCC_PLL_ON;
 8003ba0:	2402      	movs	r4, #2
  RCC_OscInitStruct.HSEState = RCC_HSE_ON;
 8003ba2:	f44f 3380 	mov.w	r3, #65536	; 0x10000
 8003ba6:	2201      	movs	r2, #1
  RCC_OscInitStruct.PLL.PLLSource = RCC_PLLSOURCE_HSE;
 8003ba8:	e9cd 430d 	strd	r4, r3, [sp, #52]	; 0x34
  RCC_OscInitStruct.HSEState = RCC_HSE_ON;
 8003bac:	e9cd 2306 	strd	r2, r3, [sp, #24]
  RCC_OscInitStruct.PLL.PLLMUL = RCC_PLL_MUL9;
 8003bb0:	f44f 13e0 	mov.w	r3, #1835008	; 0x1c0000
  if (HAL_RCC_OscConfig(&RCC_OscInitStruct) != HAL_OK)
 8003bb4:	a806      	add	r0, sp, #24
  RCC_OscInitStruct.HSIState = RCC_HSI_ON;
 8003bb6:	920a      	str	r2, [sp, #40]	; 0x28
  RCC_OscInitStruct.PLL.PLLMUL = RCC_PLL_MUL9;
 8003bb8:	930f      	str	r3, [sp, #60]	; 0x3c
  if (HAL_RCC_OscConfig(&RCC_OscInitStruct) != HAL_OK)
 8003bba:	f001 fb33 	bl	8005224 <HAL_RCC_OscConfig>
 8003bbe:	b108      	cbz	r0, 8003bc4 <SystemClock_Config+0x3c>
  \details Disables IRQ interrupts by setting the I-bit in the CPSR.
           Can only be executed in Privileged modes.
 */
__STATIC_FORCEINLINE void __disable_irq(void)
{
  __ASM volatile ("cpsid i" : : : "memory");
 8003bc0:	b672      	cpsid	i
void Error_Handler(void)
{
  /* USER CODE BEGIN Error_Handler_Debug */
  /* User can add his own implementation to report the HAL error return state */
  __disable_irq();
  while (1)
 8003bc2:	e7fe      	b.n	8003bc2 <SystemClock_Config+0x3a>
  RCC_ClkInitStruct.ClockType = RCC_CLOCKTYPE_HCLK|RCC_CLOCKTYPE_SYSCLK
 8003bc4:	230f      	movs	r3, #15
  RCC_ClkInitStruct.SYSCLKSource = RCC_SYSCLKSOURCE_PLLCLK;
 8003bc6:	e9cd 3401 	strd	r3, r4, [sp, #4]
  RCC_ClkInitStruct.APB1CLKDivider = RCC_HCLK_DIV2;
 8003bca:	f44f 6380 	mov.w	r3, #1024	; 0x400
  RCC_ClkInitStruct.AHBCLKDivider = RCC_SYSCLK_DIV1;
 8003bce:	9003      	str	r0, [sp, #12]
  RCC_ClkInitStruct.APB2CLKDivider = RCC_HCLK_DIV1;
 8003bd0:	e9cd 3004 	strd	r3, r0, [sp, #16]
  if (HAL_RCC_ClockConfig(&RCC_ClkInitStruct, FLASH_LATENCY_2) != HAL_OK)
 8003bd4:	4621      	mov	r1, r4
 8003bd6:	a801      	add	r0, sp, #4
 8003bd8:	f001 fcfa 	bl	80055d0 <HAL_RCC_ClockConfig>
 8003bdc:	b108      	cbz	r0, 8003be2 <SystemClock_Config+0x5a>
 8003bde:	b672      	cpsid	i
  while (1)
 8003be0:	e7fe      	b.n	8003be0 <SystemClock_Config+0x58>
}
 8003be2:	b010      	add	sp, #64	; 0x40
 8003be4:	bd10      	pop	{r4, pc}
	...

08003be8 <main>:
{
 8003be8:	b580      	push	{r7, lr}
 8003bea:	b09a      	sub	sp, #104	; 0x68
  HAL_Init();
 8003bec:	f001 f810 	bl	8004c10 <HAL_Init>
  SystemClock_Config();
 8003bf0:	f7ff ffca 	bl	8003b88 <SystemClock_Config>
  GPIO_InitTypeDef GPIO_InitStruct = {0};
 8003bf4:	2210      	movs	r2, #16
 8003bf6:	2100      	movs	r1, #0
 8003bf8:	a812      	add	r0, sp, #72	; 0x48
 8003bfa:	f003 f86f 	bl	8006cdc <memset>
  __HAL_RCC_GPIOC_CLK_ENABLE();
 8003bfe:	4b99      	ldr	r3, [pc, #612]	; (8003e64 <main+0x27c>)
  HAL_GPIO_WritePin(LED_CAN_GPIO_Port, LED_CAN_Pin, GPIO_PIN_RESET);
 8003c00:	f44f 4180 	mov.w	r1, #16384	; 0x4000
  __HAL_RCC_GPIOC_CLK_ENABLE();
 8003c04:	699a      	ldr	r2, [r3, #24]
  HAL_GPIO_WritePin(LED_CAN_GPIO_Port, LED_CAN_Pin, GPIO_PIN_RESET);
 8003c06:	4898      	ldr	r0, [pc, #608]	; (8003e68 <main+0x280>)
  __HAL_RCC_GPIOC_CLK_ENABLE();
 8003c08:	f042 0210 	orr.w	r2, r2, #16
 8003c0c:	619a      	str	r2, [r3, #24]
 8003c0e:	699a      	ldr	r2, [r3, #24]
  GPIO_InitStruct.Pull = GPIO_PULLDOWN;
 8003c10:	2402      	movs	r4, #2
  __HAL_RCC_GPIOC_CLK_ENABLE();
 8003c12:	f002 0210 	and.w	r2, r2, #16
 8003c16:	9201      	str	r2, [sp, #4]
 8003c18:	9a01      	ldr	r2, [sp, #4]
  __HAL_RCC_GPIOD_CLK_ENABLE();
 8003c1a:	699a      	ldr	r2, [r3, #24]
  GPIO_InitStruct.Mode = GPIO_MODE_OUTPUT_PP;
 8003c1c:	2601      	movs	r6, #1
  __HAL_RCC_GPIOD_CLK_ENABLE();
 8003c1e:	f042 0220 	orr.w	r2, r2, #32
 8003c22:	619a      	str	r2, [r3, #24]
 8003c24:	699a      	ldr	r2, [r3, #24]
  GPIO_InitStruct.Pull = GPIO_NOPULL;
 8003c26:	2500      	movs	r5, #0
  __HAL_RCC_GPIOD_CLK_ENABLE();
 8003c28:	f002 0220 	and.w	r2, r2, #32
 8003c2c:	9202      	str	r2, [sp, #8]
 8003c2e:	9a02      	ldr	r2, [sp, #8]
  __HAL_RCC_GPIOA_CLK_ENABLE();
 8003c30:	699a      	ldr	r2, [r3, #24]
 8003c32:	f042 0204 	orr.w	r2, r2, #4
 8003c36:	619a      	str	r2, [r3, #24]
 8003c38:	699a      	ldr	r2, [r3, #24]
 8003c3a:	f002 0204 	and.w	r2, r2, #4
 8003c3e:	9203      	str	r2, [sp, #12]
 8003c40:	9a03      	ldr	r2, [sp, #12]
  __HAL_RCC_GPIOB_CLK_ENABLE();
 8003c42:	699a      	ldr	r2, [r3, #24]
 8003c44:	f042 0208 	orr.w	r2, r2, #8
 8003c48:	619a      	str	r2, [r3, #24]
 8003c4a:	699b      	ldr	r3, [r3, #24]
  HAL_GPIO_WritePin(LED_CAN_GPIO_Port, LED_CAN_Pin, GPIO_PIN_RESET);
 8003c4c:	2200      	movs	r2, #0
  __HAL_RCC_GPIOB_CLK_ENABLE();
 8003c4e:	f003 0308 	and.w	r3, r3, #8
 8003c52:	9304      	str	r3, [sp, #16]
 8003c54:	9b04      	ldr	r3, [sp, #16]
  HAL_GPIO_WritePin(LED_CAN_GPIO_Port, LED_CAN_Pin, GPIO_PIN_RESET);
 8003c56:	f001 fad3 	bl	8005200 <HAL_GPIO_WritePin>
  HAL_GPIO_WritePin(GPIOB, LED0_Pin|LED1_Pin|ENAC_Pin|DIRC_Pin, GPIO_PIN_RESET);
 8003c5a:	2200      	movs	r2, #0
 8003c5c:	f246 0103 	movw	r1, #24579	; 0x6003
 8003c60:	4882      	ldr	r0, [pc, #520]	; (8003e6c <main+0x284>)
 8003c62:	f001 facd 	bl	8005200 <HAL_GPIO_WritePin>
  HAL_GPIO_WritePin(GPIOA, ENAA_Pin|DIRA_Pin, GPIO_PIN_RESET);
 8003c66:	2200      	movs	r2, #0
 8003c68:	f44f 51c0 	mov.w	r1, #6144	; 0x1800
 8003c6c:	4880      	ldr	r0, [pc, #512]	; (8003e70 <main+0x288>)
 8003c6e:	f001 fac7 	bl	8005200 <HAL_GPIO_WritePin>
  GPIO_InitStruct.Mode = GPIO_MODE_OUTPUT_PP;
 8003c72:	f44f 4380 	mov.w	r3, #16384	; 0x4000
  HAL_GPIO_Init(LED_CAN_GPIO_Port, &GPIO_InitStruct);
 8003c76:	487c      	ldr	r0, [pc, #496]	; (8003e68 <main+0x280>)
 8003c78:	a912      	add	r1, sp, #72	; 0x48
  GPIO_InitStruct.Mode = GPIO_MODE_OUTPUT_PP;
 8003c7a:	e9cd 3612 	strd	r3, r6, [sp, #72]	; 0x48
  GPIO_InitStruct.Speed = GPIO_SPEED_FREQ_LOW;
 8003c7e:	e9cd 4414 	strd	r4, r4, [sp, #80]	; 0x50
  HAL_GPIO_Init(LED_CAN_GPIO_Port, &GPIO_InitStruct);
 8003c82:	f001 f9e1 	bl	8005048 <HAL_GPIO_Init>
  GPIO_InitStruct.Pin = LED0_Pin|ENAC_Pin|DIRC_Pin;
 8003c86:	f246 0301 	movw	r3, #24577	; 0x6001
  HAL_GPIO_Init(GPIOB, &GPIO_InitStruct);
 8003c8a:	4878      	ldr	r0, [pc, #480]	; (8003e6c <main+0x284>)
 8003c8c:	a912      	add	r1, sp, #72	; 0x48
  GPIO_InitStruct.Mode = GPIO_MODE_OUTPUT_PP;
 8003c8e:	e9cd 3612 	strd	r3, r6, [sp, #72]	; 0x48
  GPIO_InitStruct.Speed = GPIO_SPEED_FREQ_LOW;
 8003c92:	e9cd 4414 	strd	r4, r4, [sp, #80]	; 0x50
  HAL_GPIO_Init(GPIOB, &GPIO_InitStruct);
 8003c96:	f001 f9d7 	bl	8005048 <HAL_GPIO_Init>
  HAL_GPIO_Init(LED1_GPIO_Port, &GPIO_InitStruct);
 8003c9a:	4874      	ldr	r0, [pc, #464]	; (8003e6c <main+0x284>)
 8003c9c:	a912      	add	r1, sp, #72	; 0x48
  GPIO_InitStruct.Speed = GPIO_SPEED_FREQ_LOW;
 8003c9e:	e9cd 5414 	strd	r5, r4, [sp, #80]	; 0x50
  GPIO_InitStruct.Mode = GPIO_MODE_OUTPUT_PP;
 8003ca2:	e9cd 4612 	strd	r4, r6, [sp, #72]	; 0x48
  HAL_GPIO_Init(LED1_GPIO_Port, &GPIO_InitStruct);
 8003ca6:	f001 f9cf 	bl	8005048 <HAL_GPIO_Init>
  GPIO_InitStruct.Mode = GPIO_MODE_IT_RISING_FALLING;
 8003caa:	f44f 6280 	mov.w	r2, #1024	; 0x400
 8003cae:	4b71      	ldr	r3, [pc, #452]	; (8003e74 <main+0x28c>)
  HAL_GPIO_Init(EMS_GPIO_Port, &GPIO_InitStruct);
 8003cb0:	486e      	ldr	r0, [pc, #440]	; (8003e6c <main+0x284>)
 8003cb2:	a912      	add	r1, sp, #72	; 0x48
  GPIO_InitStruct.Mode = GPIO_MODE_IT_RISING_FALLING;
 8003cb4:	e9cd 2312 	strd	r2, r3, [sp, #72]	; 0x48
  GPIO_InitStruct.Pull = GPIO_PULLDOWN;
 8003cb8:	9414      	str	r4, [sp, #80]	; 0x50
  HAL_GPIO_Init(EMS_GPIO_Port, &GPIO_InitStruct);
 8003cba:	f001 f9c5 	bl	8005048 <HAL_GPIO_Init>
  GPIO_InitStruct.Pin = ENAA_Pin|DIRA_Pin;
 8003cbe:	f44f 53c0 	mov.w	r3, #6144	; 0x1800
  HAL_GPIO_Init(GPIOA, &GPIO_InitStruct);
 8003cc2:	486b      	ldr	r0, [pc, #428]	; (8003e70 <main+0x288>)
 8003cc4:	a912      	add	r1, sp, #72	; 0x48
  GPIO_InitStruct.Mode = GPIO_MODE_OUTPUT_PP;
 8003cc6:	e9cd 3612 	strd	r3, r6, [sp, #72]	; 0x48
  GPIO_InitStruct.Speed = GPIO_SPEED_FREQ_LOW;
 8003cca:	e9cd 4414 	strd	r4, r4, [sp, #80]	; 0x50
  HAL_GPIO_Init(GPIOA, &GPIO_InitStruct);
 8003cce:	f001 f9bb 	bl	8005048 <HAL_GPIO_Init>
  HAL_NVIC_SetPriority(EXTI15_10_IRQn, 0, 0);
 8003cd2:	462a      	mov	r2, r5
 8003cd4:	4629      	mov	r1, r5
 8003cd6:	2028      	movs	r0, #40	; 0x28
 8003cd8:	f001 f962 	bl	8004fa0 <HAL_NVIC_SetPriority>
  HAL_NVIC_EnableIRQ(EXTI15_10_IRQn);
 8003cdc:	2028      	movs	r0, #40	; 0x28
 8003cde:	f001 f991 	bl	8005004 <HAL_NVIC_EnableIRQ>
  hcan.Instance = CAN1;
 8003ce2:	4865      	ldr	r0, [pc, #404]	; (8003e78 <main+0x290>)
 8003ce4:	4b65      	ldr	r3, [pc, #404]	; (8003e7c <main+0x294>)
  hcan.Init.TimeSeg2 = CAN_BS2_3TQ;
 8003ce6:	f44f 2150 	mov.w	r1, #851968	; 0xd0000
  hcan.Init.Prescaler = 2;
 8003cea:	e9c0 3400 	strd	r3, r4, [r0]
  hcan.Init.TimeSeg2 = CAN_BS2_3TQ;
 8003cee:	f44f 1300 	mov.w	r3, #2097152	; 0x200000
 8003cf2:	e9c0 1304 	strd	r1, r3, [r0, #16]
  hcan.Init.TimeTriggeredMode = DISABLE;
 8003cf6:	f04f 2301 	mov.w	r3, #16777472	; 0x1000100
  hcan.Init.ReceiveFifoLocked = DISABLE;
 8003cfa:	8385      	strh	r5, [r0, #28]
  hcan.Init.TimeTriggeredMode = DISABLE;
 8003cfc:	6183      	str	r3, [r0, #24]
  hcan.Init.SyncJumpWidth = CAN_SJW_1TQ;
 8003cfe:	e9c0 5502 	strd	r5, r5, [r0, #8]
  if (HAL_CAN_Init(&hcan) != HAL_OK)
 8003d02:	f000 ffa9 	bl	8004c58 <HAL_CAN_Init>
 8003d06:	4605      	mov	r5, r0
 8003d08:	b108      	cbz	r0, 8003d0e <main+0x126>
 8003d0a:	b672      	cpsid	i
  while (1)
 8003d0c:	e7fe      	b.n	8003d0c <main+0x124>
  htim1.Init.Prescaler = 71;
 8003d0e:	2747      	movs	r7, #71	; 0x47
  htim1.Init.Period = 65535;
 8003d10:	f64f 76ff 	movw	r6, #65535	; 0xffff
  htim1.Init.AutoReloadPreload = TIM_AUTORELOAD_PRELOAD_ENABLE;
 8003d14:	f04f 0880 	mov.w	r8, #128	; 0x80
  TIM_ClockConfigTypeDef sClockSourceConfig = {0};
 8003d18:	4601      	mov	r1, r0
 8003d1a:	2210      	movs	r2, #16
 8003d1c:	a807      	add	r0, sp, #28
 8003d1e:	f002 ffdd 	bl	8006cdc <memset>
  TIM_OC_InitTypeDef sConfigOC = {0};
 8003d22:	221c      	movs	r2, #28
 8003d24:	4629      	mov	r1, r5
 8003d26:	a80b      	add	r0, sp, #44	; 0x2c
  htim1.Instance = TIM1;
 8003d28:	4c55      	ldr	r4, [pc, #340]	; (8003e80 <main+0x298>)
  TIM_MasterConfigTypeDef sMasterConfig = {0};
 8003d2a:	e9cd 5505 	strd	r5, r5, [sp, #20]
  TIM_OC_InitTypeDef sConfigOC = {0};
 8003d2e:	f002 ffd5 	bl	8006cdc <memset>
  TIM_BreakDeadTimeConfigTypeDef sBreakDeadTimeConfig = {0};
 8003d32:	2220      	movs	r2, #32
 8003d34:	4629      	mov	r1, r5
 8003d36:	a812      	add	r0, sp, #72	; 0x48
 8003d38:	f002 ffd0 	bl	8006cdc <memset>
  htim1.Init.Prescaler = 71;
 8003d3c:	4b51      	ldr	r3, [pc, #324]	; (8003e84 <main+0x29c>)
  if (HAL_TIM_Base_Init(&htim1) != HAL_OK)
 8003d3e:	4620      	mov	r0, r4
  htim1.Init.Prescaler = 71;
 8003d40:	e9c4 3700 	strd	r3, r7, [r4]
  htim1.Init.ClockDivision = TIM_CLOCKDIVISION_DIV1;
 8003d44:	e9c4 6503 	strd	r6, r5, [r4, #12]
  htim1.Init.CounterMode = TIM_COUNTERMODE_UP;
 8003d48:	60a5      	str	r5, [r4, #8]
  htim1.Init.RepetitionCounter = 0;
 8003d4a:	6165      	str	r5, [r4, #20]
  htim1.Init.AutoReloadPreload = TIM_AUTORELOAD_PRELOAD_ENABLE;
 8003d4c:	f8c4 8018 	str.w	r8, [r4, #24]
  if (HAL_TIM_Base_Init(&htim1) != HAL_OK)
 8003d50:	f001 fda2 	bl	8005898 <HAL_TIM_Base_Init>
 8003d54:	b108      	cbz	r0, 8003d5a <main+0x172>
 8003d56:	b672      	cpsid	i
  while (1)
 8003d58:	e7fe      	b.n	8003d58 <main+0x170>
  sClockSourceConfig.ClockSource = TIM_CLOCKSOURCE_INTERNAL;
 8003d5a:	f44f 5580 	mov.w	r5, #4096	; 0x1000
  if (HAL_TIM_ConfigClockSource(&htim1, &sClockSourceConfig) != HAL_OK)
 8003d5e:	4620      	mov	r0, r4
 8003d60:	a907      	add	r1, sp, #28
  sClockSourceConfig.ClockSource = TIM_CLOCKSOURCE_INTERNAL;
 8003d62:	9507      	str	r5, [sp, #28]
  if (HAL_TIM_ConfigClockSource(&htim1, &sClockSourceConfig) != HAL_OK)
 8003d64:	f001 fe81 	bl	8005a6a <HAL_TIM_ConfigClockSource>
 8003d68:	b108      	cbz	r0, 8003d6e <main+0x186>
 8003d6a:	b672      	cpsid	i
  while (1)
 8003d6c:	e7fe      	b.n	8003d6c <main+0x184>
  if (HAL_TIM_PWM_Init(&htim1) != HAL_OK)
 8003d6e:	4620      	mov	r0, r4
 8003d70:	f001 fdbe 	bl	80058f0 <HAL_TIM_PWM_Init>
 8003d74:	b108      	cbz	r0, 8003d7a <main+0x192>
 8003d76:	b672      	cpsid	i
  while (1)
 8003d78:	e7fe      	b.n	8003d78 <main+0x190>
  sMasterConfig.MasterSlaveMode = TIM_MASTERSLAVEMODE_DISABLE;
 8003d7a:	e9cd 0005 	strd	r0, r0, [sp, #20]
  if (HAL_TIMEx_MasterConfigSynchronization(&htim1, &sMasterConfig) != HAL_OK)
 8003d7e:	a905      	add	r1, sp, #20
 8003d80:	4620      	mov	r0, r4
 8003d82:	f001 ffa3 	bl	8005ccc <HAL_TIMEx_MasterConfigSynchronization>
 8003d86:	4602      	mov	r2, r0
 8003d88:	b108      	cbz	r0, 8003d8e <main+0x1a6>
 8003d8a:	b672      	cpsid	i
  while (1)
 8003d8c:	e7fe      	b.n	8003d8c <main+0x1a4>
  sConfigOC.OCMode = TIM_OCMODE_PWM1;
 8003d8e:	2360      	movs	r3, #96	; 0x60
  sConfigOC.OCNPolarity = TIM_OCNPOLARITY_HIGH;
 8003d90:	e9cd 000d 	strd	r0, r0, [sp, #52]	; 0x34
  sConfigOC.Pulse = 0;
 8003d94:	e9cd 300b 	strd	r3, r0, [sp, #44]	; 0x2c
  sConfigOC.OCIdleState = TIM_OCIDLESTATE_RESET;
 8003d98:	e9cd 000f 	strd	r0, r0, [sp, #60]	; 0x3c
  sConfigOC.OCNIdleState = TIM_OCNIDLESTATE_RESET;
 8003d9c:	9011      	str	r0, [sp, #68]	; 0x44
  if (HAL_TIM_PWM_ConfigChannel(&htim1, &sConfigOC, TIM_CHANNEL_1) != HAL_OK)
 8003d9e:	a90b      	add	r1, sp, #44	; 0x2c
 8003da0:	4620      	mov	r0, r4
 8003da2:	f001 fdfd 	bl	80059a0 <HAL_TIM_PWM_ConfigChannel>
 8003da6:	b108      	cbz	r0, 8003dac <main+0x1c4>
 8003da8:	b672      	cpsid	i
  while (1)
 8003daa:	e7fe      	b.n	8003daa <main+0x1c2>
  sBreakDeadTimeConfig.BreakPolarity = TIM_BREAKPOLARITY_HIGH;
 8003dac:	f44f 5300 	mov.w	r3, #8192	; 0x2000
  sBreakDeadTimeConfig.OffStateIDLEMode = TIM_OSSI_DISABLE;
 8003db0:	e9cd 0012 	strd	r0, r0, [sp, #72]	; 0x48
  sBreakDeadTimeConfig.DeadTime = 0;
 8003db4:	e9cd 0014 	strd	r0, r0, [sp, #80]	; 0x50
  sBreakDeadTimeConfig.BreakState = TIM_BREAK_DISABLE;
 8003db8:	9016      	str	r0, [sp, #88]	; 0x58
  sBreakDeadTimeConfig.AutomaticOutput = TIM_AUTOMATICOUTPUT_DISABLE;
 8003dba:	9019      	str	r0, [sp, #100]	; 0x64
  if (HAL_TIMEx_ConfigBreakDeadTime(&htim1, &sBreakDeadTimeConfig) != HAL_OK)
 8003dbc:	a912      	add	r1, sp, #72	; 0x48
 8003dbe:	4620      	mov	r0, r4
  sBreakDeadTimeConfig.BreakPolarity = TIM_BREAKPOLARITY_HIGH;
 8003dc0:	9317      	str	r3, [sp, #92]	; 0x5c
  if (HAL_TIMEx_ConfigBreakDeadTime(&htim1, &sBreakDeadTimeConfig) != HAL_OK)
 8003dc2:	f001 ffad 	bl	8005d20 <HAL_TIMEx_ConfigBreakDeadTime>
 8003dc6:	4681      	mov	r9, r0
 8003dc8:	b108      	cbz	r0, 8003dce <main+0x1e6>
 8003dca:	b672      	cpsid	i
  while (1)
 8003dcc:	e7fe      	b.n	8003dcc <main+0x1e4>
  HAL_TIM_MspPostInit(&htim1);
 8003dce:	4620      	mov	r0, r4
 8003dd0:	f000 f8e6 	bl	8003fa0 <HAL_TIM_MspPostInit>
  TIM_ClockConfigTypeDef sClockSourceConfig = {0};
 8003dd4:	2210      	movs	r2, #16
 8003dd6:	4649      	mov	r1, r9
 8003dd8:	a80b      	add	r0, sp, #44	; 0x2c
 8003dda:	f002 ff7f 	bl	8006cdc <memset>
  TIM_OC_InitTypeDef sConfigOC = {0};
 8003dde:	221c      	movs	r2, #28
 8003de0:	4649      	mov	r1, r9
 8003de2:	a812      	add	r0, sp, #72	; 0x48
  TIM_MasterConfigTypeDef sMasterConfig = {0};
 8003de4:	e9cd 9907 	strd	r9, r9, [sp, #28]
  TIM_OC_InitTypeDef sConfigOC = {0};
 8003de8:	f002 ff78 	bl	8006cdc <memset>
  htim2.Instance = TIM2;
 8003dec:	f04f 4380 	mov.w	r3, #1073741824	; 0x40000000
 8003df0:	4c25      	ldr	r4, [pc, #148]	; (8003e88 <main+0x2a0>)
  if (HAL_TIM_Base_Init(&htim2) != HAL_OK)
 8003df2:	4620      	mov	r0, r4
  htim2.Init.Prescaler = 71;
 8003df4:	e9c4 3700 	strd	r3, r7, [r4]
  htim2.Init.Period = 65535;
 8003df8:	e9c4 9602 	strd	r9, r6, [r4, #8]
  htim2.Init.ClockDivision = TIM_CLOCKDIVISION_DIV1;
 8003dfc:	f8c4 9010 	str.w	r9, [r4, #16]
  htim2.Init.AutoReloadPreload = TIM_AUTORELOAD_PRELOAD_ENABLE;
 8003e00:	f8c4 8018 	str.w	r8, [r4, #24]
  if (HAL_TIM_Base_Init(&htim2) != HAL_OK)
 8003e04:	f001 fd48 	bl	8005898 <HAL_TIM_Base_Init>
 8003e08:	b108      	cbz	r0, 8003e0e <main+0x226>
 8003e0a:	b672      	cpsid	i
  while (1)
 8003e0c:	e7fe      	b.n	8003e0c <main+0x224>
  if (HAL_TIM_ConfigClockSource(&htim2, &sClockSourceConfig) != HAL_OK)
 8003e0e:	4620      	mov	r0, r4
 8003e10:	a90b      	add	r1, sp, #44	; 0x2c
  sClockSourceConfig.ClockSource = TIM_CLOCKSOURCE_INTERNAL;
 8003e12:	950b      	str	r5, [sp, #44]	; 0x2c
  if (HAL_TIM_ConfigClockSource(&htim2, &sClockSourceConfig) != HAL_OK)
 8003e14:	f001 fe29 	bl	8005a6a <HAL_TIM_ConfigClockSource>
 8003e18:	b108      	cbz	r0, 8003e1e <main+0x236>
 8003e1a:	b672      	cpsid	i
  while (1)
 8003e1c:	e7fe      	b.n	8003e1c <main+0x234>
  if (HAL_TIM_PWM_Init(&htim2) != HAL_OK)
 8003e1e:	4620      	mov	r0, r4
 8003e20:	f001 fd66 	bl	80058f0 <HAL_TIM_PWM_Init>
 8003e24:	b108      	cbz	r0, 8003e2a <main+0x242>
 8003e26:	b672      	cpsid	i
  while (1)
 8003e28:	e7fe      	b.n	8003e28 <main+0x240>
  sMasterConfig.MasterOutputTrigger = TIM_TRGO_RESET;
 8003e2a:	2300      	movs	r3, #0
  if (HAL_TIMEx_MasterConfigSynchronization(&htim2, &sMasterConfig) != HAL_OK)
 8003e2c:	4816      	ldr	r0, [pc, #88]	; (8003e88 <main+0x2a0>)
 8003e2e:	a907      	add	r1, sp, #28
  sMasterConfig.MasterSlaveMode = TIM_MASTERSLAVEMODE_DISABLE;
 8003e30:	e9cd 3307 	strd	r3, r3, [sp, #28]
  if (HAL_TIMEx_MasterConfigSynchronization(&htim2, &sMasterConfig) != HAL_OK)
 8003e34:	f001 ff4a 	bl	8005ccc <HAL_TIMEx_MasterConfigSynchronization>
 8003e38:	4602      	mov	r2, r0
 8003e3a:	b108      	cbz	r0, 8003e40 <main+0x258>
 8003e3c:	b672      	cpsid	i
  while (1)
 8003e3e:	e7fe      	b.n	8003e3e <main+0x256>
  sConfigOC.OCMode = TIM_OCMODE_PWM1;
 8003e40:	2360      	movs	r3, #96	; 0x60
  sConfigOC.OCPolarity = TIM_OCPOLARITY_HIGH;
 8003e42:	9014      	str	r0, [sp, #80]	; 0x50
  sConfigOC.Pulse = 0;
 8003e44:	e9cd 3012 	strd	r3, r0, [sp, #72]	; 0x48
  sConfigOC.OCFastMode = TIM_OCFAST_DISABLE;
 8003e48:	9016      	str	r0, [sp, #88]	; 0x58
  if (HAL_TIM_PWM_ConfigChannel(&htim2, &sConfigOC, TIM_CHANNEL_1) != HAL_OK)
 8003e4a:	a912      	add	r1, sp, #72	; 0x48
 8003e4c:	480e      	ldr	r0, [pc, #56]	; (8003e88 <main+0x2a0>)
 8003e4e:	f001 fda7 	bl	80059a0 <HAL_TIM_PWM_ConfigChannel>
 8003e52:	b108      	cbz	r0, 8003e58 <main+0x270>
 8003e54:	b672      	cpsid	i
  while (1)
 8003e56:	e7fe      	b.n	8003e56 <main+0x26e>
  HAL_TIM_MspPostInit(&htim2);
 8003e58:	480b      	ldr	r0, [pc, #44]	; (8003e88 <main+0x2a0>)
 8003e5a:	f000 f8a1 	bl	8003fa0 <HAL_TIM_MspPostInit>
  wrapper_cpp();
 8003e5e:	f000 fd33 	bl	80048c8 <wrapper_cpp>
  while (1)
 8003e62:	e7fe      	b.n	8003e62 <main+0x27a>
 8003e64:	40021000 	.word	0x40021000
 8003e68:	40011000 	.word	0x40011000
 8003e6c:	40010c00 	.word	0x40010c00
 8003e70:	40010800 	.word	0x40010800
 8003e74:	10310000 	.word	0x10310000
 8003e78:	2000036c 	.word	0x2000036c
 8003e7c:	40006400 	.word	0x40006400
 8003e80:	20000394 	.word	0x20000394
 8003e84:	40012c00 	.word	0x40012c00
 8003e88:	200003dc 	.word	0x200003dc

08003e8c <HAL_MspInit>:
{
  /* USER CODE BEGIN MspInit 0 */

  /* USER CODE END MspInit 0 */

  __HAL_RCC_AFIO_CLK_ENABLE();
 8003e8c:	4b0e      	ldr	r3, [pc, #56]	; (8003ec8 <HAL_MspInit+0x3c>)
{
 8003e8e:	b082      	sub	sp, #8
  __HAL_RCC_AFIO_CLK_ENABLE();
 8003e90:	699a      	ldr	r2, [r3, #24]
 8003e92:	f042 0201 	orr.w	r2, r2, #1
 8003e96:	619a      	str	r2, [r3, #24]
 8003e98:	699a      	ldr	r2, [r3, #24]
 8003e9a:	f002 0201 	and.w	r2, r2, #1
 8003e9e:	9200      	str	r2, [sp, #0]
 8003ea0:	9a00      	ldr	r2, [sp, #0]
  __HAL_RCC_PWR_CLK_ENABLE();
 8003ea2:	69da      	ldr	r2, [r3, #28]
 8003ea4:	f042 5280 	orr.w	r2, r2, #268435456	; 0x10000000
 8003ea8:	61da      	str	r2, [r3, #28]
 8003eaa:	69db      	ldr	r3, [r3, #28]

  /* System interrupt init*/

  /** NOJTAG: JTAG-DP Disabled and SW-DP Enabled
  */
  __HAL_AFIO_REMAP_SWJ_NOJTAG();
 8003eac:	4a07      	ldr	r2, [pc, #28]	; (8003ecc <HAL_MspInit+0x40>)
  __HAL_RCC_PWR_CLK_ENABLE();
 8003eae:	f003 5380 	and.w	r3, r3, #268435456	; 0x10000000
 8003eb2:	9301      	str	r3, [sp, #4]
 8003eb4:	9b01      	ldr	r3, [sp, #4]
  __HAL_AFIO_REMAP_SWJ_NOJTAG();
 8003eb6:	6853      	ldr	r3, [r2, #4]
 8003eb8:	f023 63e0 	bic.w	r3, r3, #117440512	; 0x7000000
 8003ebc:	f043 7300 	orr.w	r3, r3, #33554432	; 0x2000000
 8003ec0:	6053      	str	r3, [r2, #4]

  /* USER CODE BEGIN MspInit 1 */

  /* USER CODE END MspInit 1 */
}
 8003ec2:	b002      	add	sp, #8
 8003ec4:	4770      	bx	lr
 8003ec6:	bf00      	nop
 8003ec8:	40021000 	.word	0x40021000
 8003ecc:	40010000 	.word	0x40010000

08003ed0 <HAL_CAN_MspInit>:
* This function configures the hardware resources used in this example
* @param hcan: CAN handle pointer
* @retval None
*/
void HAL_CAN_MspInit(CAN_HandleTypeDef* hcan)
{
 8003ed0:	b510      	push	{r4, lr}
 8003ed2:	4604      	mov	r4, r0
 8003ed4:	b086      	sub	sp, #24
  GPIO_InitTypeDef GPIO_InitStruct = {0};
 8003ed6:	2210      	movs	r2, #16
 8003ed8:	2100      	movs	r1, #0
 8003eda:	a802      	add	r0, sp, #8
 8003edc:	f002 fefe 	bl	8006cdc <memset>
  if(hcan->Instance==CAN1)
 8003ee0:	6822      	ldr	r2, [r4, #0]
 8003ee2:	4b1a      	ldr	r3, [pc, #104]	; (8003f4c <HAL_CAN_MspInit+0x7c>)
 8003ee4:	429a      	cmp	r2, r3
 8003ee6:	d12e      	bne.n	8003f46 <HAL_CAN_MspInit+0x76>
  {
  /* USER CODE BEGIN CAN1_MspInit 0 */

  /* USER CODE END CAN1_MspInit 0 */
    /* Peripheral clock enable */
    __HAL_RCC_CAN1_CLK_ENABLE();
 8003ee8:	f503 33d6 	add.w	r3, r3, #109568	; 0x1ac00
 8003eec:	69da      	ldr	r2, [r3, #28]
    PB9     ------> CAN_TX
    */
    GPIO_InitStruct.Pin = GPIO_PIN_8;
    GPIO_InitStruct.Mode = GPIO_MODE_INPUT;
    GPIO_InitStruct.Pull = GPIO_NOPULL;
    HAL_GPIO_Init(GPIOB, &GPIO_InitStruct);
 8003eee:	4818      	ldr	r0, [pc, #96]	; (8003f50 <HAL_CAN_MspInit+0x80>)
    __HAL_RCC_CAN1_CLK_ENABLE();
 8003ef0:	f042 7200 	orr.w	r2, r2, #33554432	; 0x2000000
 8003ef4:	61da      	str	r2, [r3, #28]
 8003ef6:	69da      	ldr	r2, [r3, #28]
    HAL_GPIO_Init(GPIOB, &GPIO_InitStruct);
 8003ef8:	a902      	add	r1, sp, #8
    __HAL_RCC_CAN1_CLK_ENABLE();
 8003efa:	f002 7200 	and.w	r2, r2, #33554432	; 0x2000000
 8003efe:	9200      	str	r2, [sp, #0]
 8003f00:	9a00      	ldr	r2, [sp, #0]
    __HAL_RCC_GPIOB_CLK_ENABLE();
 8003f02:	699a      	ldr	r2, [r3, #24]
 8003f04:	f042 0208 	orr.w	r2, r2, #8
 8003f08:	619a      	str	r2, [r3, #24]
 8003f0a:	699b      	ldr	r3, [r3, #24]
 8003f0c:	f003 0308 	and.w	r3, r3, #8
 8003f10:	9301      	str	r3, [sp, #4]
 8003f12:	9b01      	ldr	r3, [sp, #4]
    GPIO_InitStruct.Pin = GPIO_PIN_8;
 8003f14:	f44f 7380 	mov.w	r3, #256	; 0x100
 8003f18:	9302      	str	r3, [sp, #8]
    HAL_GPIO_Init(GPIOB, &GPIO_InitStruct);
 8003f1a:	f001 f895 	bl	8005048 <HAL_GPIO_Init>

    GPIO_InitStruct.Pin = GPIO_PIN_9;
    GPIO_InitStruct.Mode = GPIO_MODE_AF_PP;
 8003f1e:	f44f 7200 	mov.w	r2, #512	; 0x200
 8003f22:	2302      	movs	r3, #2
 8003f24:	e9cd 2302 	strd	r2, r3, [sp, #8]
    GPIO_InitStruct.Speed = GPIO_SPEED_FREQ_HIGH;
 8003f28:	2303      	movs	r3, #3
    HAL_GPIO_Init(GPIOB, &GPIO_InitStruct);
 8003f2a:	4809      	ldr	r0, [pc, #36]	; (8003f50 <HAL_CAN_MspInit+0x80>)
 8003f2c:	a902      	add	r1, sp, #8
    GPIO_InitStruct.Speed = GPIO_SPEED_FREQ_HIGH;
 8003f2e:	9305      	str	r3, [sp, #20]
    HAL_GPIO_Init(GPIOB, &GPIO_InitStruct);
 8003f30:	f001 f88a 	bl	8005048 <HAL_GPIO_Init>

    __HAL_AFIO_REMAP_CAN1_2();
 8003f34:	4a07      	ldr	r2, [pc, #28]	; (8003f54 <HAL_CAN_MspInit+0x84>)
 8003f36:	6853      	ldr	r3, [r2, #4]
 8003f38:	f423 43c0 	bic.w	r3, r3, #24576	; 0x6000
 8003f3c:	f043 63e0 	orr.w	r3, r3, #117440512	; 0x7000000
 8003f40:	f443 4380 	orr.w	r3, r3, #16384	; 0x4000
 8003f44:	6053      	str	r3, [r2, #4]
  /* USER CODE BEGIN CAN1_MspInit 1 */

  /* USER CODE END CAN1_MspInit 1 */
  }

}
 8003f46:	b006      	add	sp, #24
 8003f48:	bd10      	pop	{r4, pc}
 8003f4a:	bf00      	nop
 8003f4c:	40006400 	.word	0x40006400
 8003f50:	40010c00 	.word	0x40010c00
 8003f54:	40010000 	.word	0x40010000

08003f58 <HAL_TIM_Base_MspInit>:
* @param htim_base: TIM_Base handle pointer
* @retval None
*/
void HAL_TIM_Base_MspInit(TIM_HandleTypeDef* htim_base)
{
  if(htim_base->Instance==TIM1)
 8003f58:	6803      	ldr	r3, [r0, #0]
 8003f5a:	4a0f      	ldr	r2, [pc, #60]	; (8003f98 <HAL_TIM_Base_MspInit+0x40>)
{
 8003f5c:	b082      	sub	sp, #8
  if(htim_base->Instance==TIM1)
 8003f5e:	4293      	cmp	r3, r2
 8003f60:	d10b      	bne.n	8003f7a <HAL_TIM_Base_MspInit+0x22>
  {
  /* USER CODE BEGIN TIM1_MspInit 0 */

  /* USER CODE END TIM1_MspInit 0 */
    /* Peripheral clock enable */
    __HAL_RCC_TIM1_CLK_ENABLE();
 8003f62:	4b0e      	ldr	r3, [pc, #56]	; (8003f9c <HAL_TIM_Base_MspInit+0x44>)
 8003f64:	699a      	ldr	r2, [r3, #24]
 8003f66:	f442 6200 	orr.w	r2, r2, #2048	; 0x800
 8003f6a:	619a      	str	r2, [r3, #24]
 8003f6c:	699b      	ldr	r3, [r3, #24]
 8003f6e:	f403 6300 	and.w	r3, r3, #2048	; 0x800
 8003f72:	9300      	str	r3, [sp, #0]
 8003f74:	9b00      	ldr	r3, [sp, #0]
  /* USER CODE BEGIN TIM2_MspInit 1 */

  /* USER CODE END TIM2_MspInit 1 */
  }

}
 8003f76:	b002      	add	sp, #8
 8003f78:	4770      	bx	lr
  else if(htim_base->Instance==TIM2)
 8003f7a:	f1b3 4f80 	cmp.w	r3, #1073741824	; 0x40000000
 8003f7e:	d1fa      	bne.n	8003f76 <HAL_TIM_Base_MspInit+0x1e>
    __HAL_RCC_TIM2_CLK_ENABLE();
 8003f80:	f503 3304 	add.w	r3, r3, #135168	; 0x21000
 8003f84:	69da      	ldr	r2, [r3, #28]
 8003f86:	f042 0201 	orr.w	r2, r2, #1
 8003f8a:	61da      	str	r2, [r3, #28]
 8003f8c:	69db      	ldr	r3, [r3, #28]
 8003f8e:	f003 0301 	and.w	r3, r3, #1
 8003f92:	9301      	str	r3, [sp, #4]
 8003f94:	9b01      	ldr	r3, [sp, #4]
}
 8003f96:	e7ee      	b.n	8003f76 <HAL_TIM_Base_MspInit+0x1e>
 8003f98:	40012c00 	.word	0x40012c00
 8003f9c:	40021000 	.word	0x40021000

08003fa0 <HAL_TIM_MspPostInit>:

void HAL_TIM_MspPostInit(TIM_HandleTypeDef* htim)
{
 8003fa0:	b510      	push	{r4, lr}
 8003fa2:	4604      	mov	r4, r0
 8003fa4:	b086      	sub	sp, #24
  GPIO_InitTypeDef GPIO_InitStruct = {0};
 8003fa6:	2210      	movs	r2, #16
 8003fa8:	2100      	movs	r1, #0
 8003faa:	a802      	add	r0, sp, #8
 8003fac:	f002 fe96 	bl	8006cdc <memset>
  if(htim->Instance==TIM1)
 8003fb0:	6823      	ldr	r3, [r4, #0]
 8003fb2:	4a14      	ldr	r2, [pc, #80]	; (8004004 <HAL_TIM_MspPostInit+0x64>)
 8003fb4:	4293      	cmp	r3, r2
 8003fb6:	d115      	bne.n	8003fe4 <HAL_TIM_MspPostInit+0x44>
  {
  /* USER CODE BEGIN TIM1_MspPostInit 0 */

  /* USER CODE END TIM1_MspPostInit 0 */
    __HAL_RCC_GPIOA_CLK_ENABLE();
 8003fb8:	4b13      	ldr	r3, [pc, #76]	; (8004008 <HAL_TIM_MspPostInit+0x68>)
 8003fba:	699a      	ldr	r2, [r3, #24]
 8003fbc:	f042 0204 	orr.w	r2, r2, #4
 8003fc0:	619a      	str	r2, [r3, #24]
 8003fc2:	699b      	ldr	r3, [r3, #24]
 8003fc4:	f003 0304 	and.w	r3, r3, #4
 8003fc8:	9300      	str	r3, [sp, #0]
 8003fca:	9b00      	ldr	r3, [sp, #0]
    /**TIM1 GPIO Configuration
    PA8     ------> TIM1_CH1
    */
    GPIO_InitStruct.Pin = GPIO_PIN_8;
 8003fcc:	f44f 7380 	mov.w	r3, #256	; 0x100

    __HAL_RCC_GPIOA_CLK_ENABLE();
    /**TIM2 GPIO Configuration
    PA0-WKUP     ------> TIM2_CH1
    */
    GPIO_InitStruct.Pin = GPIO_PIN_0;
 8003fd0:	9302      	str	r3, [sp, #8]
    GPIO_InitStruct.Mode = GPIO_MODE_AF_PP;
 8003fd2:	2302      	movs	r3, #2
    GPIO_InitStruct.Speed = GPIO_SPEED_FREQ_LOW;
    HAL_GPIO_Init(GPIOA, &GPIO_InitStruct);
 8003fd4:	480d      	ldr	r0, [pc, #52]	; (800400c <HAL_TIM_MspPostInit+0x6c>)
 8003fd6:	a902      	add	r1, sp, #8
    GPIO_InitStruct.Mode = GPIO_MODE_AF_PP;
 8003fd8:	9303      	str	r3, [sp, #12]
    GPIO_InitStruct.Speed = GPIO_SPEED_FREQ_LOW;
 8003fda:	9305      	str	r3, [sp, #20]
    HAL_GPIO_Init(GPIOA, &GPIO_InitStruct);
 8003fdc:	f001 f834 	bl	8005048 <HAL_GPIO_Init>
  /* USER CODE BEGIN TIM2_MspPostInit 1 */

  /* USER CODE END TIM2_MspPostInit 1 */
  }

}
 8003fe0:	b006      	add	sp, #24
 8003fe2:	bd10      	pop	{r4, pc}
  else if(htim->Instance==TIM2)
 8003fe4:	f1b3 4f80 	cmp.w	r3, #1073741824	; 0x40000000
 8003fe8:	d1fa      	bne.n	8003fe0 <HAL_TIM_MspPostInit+0x40>
    __HAL_RCC_GPIOA_CLK_ENABLE();
 8003fea:	f503 3304 	add.w	r3, r3, #135168	; 0x21000
 8003fee:	699a      	ldr	r2, [r3, #24]
 8003ff0:	f042 0204 	orr.w	r2, r2, #4
 8003ff4:	619a      	str	r2, [r3, #24]
 8003ff6:	699b      	ldr	r3, [r3, #24]
 8003ff8:	f003 0304 	and.w	r3, r3, #4
 8003ffc:	9301      	str	r3, [sp, #4]
 8003ffe:	9b01      	ldr	r3, [sp, #4]
    GPIO_InitStruct.Pin = GPIO_PIN_0;
 8004000:	2301      	movs	r3, #1
 8004002:	e7e5      	b.n	8003fd0 <HAL_TIM_MspPostInit+0x30>
 8004004:	40012c00 	.word	0x40012c00
 8004008:	40021000 	.word	0x40021000
 800400c:	40010800 	.word	0x40010800

08004010 <NMI_Handler>:
{
  /* USER CODE BEGIN NonMaskableInt_IRQn 0 */

  /* USER CODE END NonMaskableInt_IRQn 0 */
  /* USER CODE BEGIN NonMaskableInt_IRQn 1 */
  while (1)
 8004010:	e7fe      	b.n	8004010 <NMI_Handler>

08004012 <HardFault_Handler>:
void HardFault_Handler(void)
{
  /* USER CODE BEGIN HardFault_IRQn 0 */

  /* USER CODE END HardFault_IRQn 0 */
  while (1)
 8004012:	e7fe      	b.n	8004012 <HardFault_Handler>

08004014 <MemManage_Handler>:
void MemManage_Handler(void)
{
  /* USER CODE BEGIN MemoryManagement_IRQn 0 */

  /* USER CODE END MemoryManagement_IRQn 0 */
  while (1)
 8004014:	e7fe      	b.n	8004014 <MemManage_Handler>

08004016 <BusFault_Handler>:
void BusFault_Handler(void)
{
  /* USER CODE BEGIN BusFault_IRQn 0 */

  /* USER CODE END BusFault_IRQn 0 */
  while (1)
 8004016:	e7fe      	b.n	8004016 <BusFault_Handler>

08004018 <UsageFault_Handler>:
void UsageFault_Handler(void)
{
  /* USER CODE BEGIN UsageFault_IRQn 0 */

  /* USER CODE END UsageFault_IRQn 0 */
  while (1)
 8004018:	e7fe      	b.n	8004018 <UsageFault_Handler>

0800401a <SVC_Handler>:

  /* USER CODE END SVCall_IRQn 0 */
  /* USER CODE BEGIN SVCall_IRQn 1 */

  /* USER CODE END SVCall_IRQn 1 */
}
 800401a:	4770      	bx	lr

0800401c <DebugMon_Handler>:
 800401c:	4770      	bx	lr

0800401e <PendSV_Handler>:
 800401e:	4770      	bx	lr

08004020 <SysTick_Handler>:
void SysTick_Handler(void)
{
  /* USER CODE BEGIN SysTick_IRQn 0 */

  /* USER CODE END SysTick_IRQn 0 */
  HAL_IncTick();
 8004020:	f000 be08 	b.w	8004c34 <HAL_IncTick>

08004024 <EXTI15_10_IRQHandler>:
void EXTI15_10_IRQHandler(void)
{
  /* USER CODE BEGIN EXTI15_10_IRQn 0 */

  /* USER CODE END EXTI15_10_IRQn 0 */
  HAL_GPIO_EXTI_IRQHandler(EMS_Pin);
 8004024:	f44f 6080 	mov.w	r0, #1024	; 0x400
 8004028:	f001 b8f0 	b.w	800520c <HAL_GPIO_EXTI_IRQHandler>

0800402c <_getpid>:
}

int _getpid(void)
{
	return 1;
}
 800402c:	2001      	movs	r0, #1
 800402e:	4770      	bx	lr

08004030 <_kill>:

int _kill(int pid, int sig)
{
 8004030:	b508      	push	{r3, lr}
	errno = EINVAL;
 8004032:	f002 fdf1 	bl	8006c18 <__errno>
 8004036:	2316      	movs	r3, #22
 8004038:	6003      	str	r3, [r0, #0]
	return -1;
}
 800403a:	f04f 30ff 	mov.w	r0, #4294967295
 800403e:	bd08      	pop	{r3, pc}

08004040 <_exit>:

void _exit (int status)
{
 8004040:	b508      	push	{r3, lr}
	errno = EINVAL;
 8004042:	f002 fde9 	bl	8006c18 <__errno>
 8004046:	2316      	movs	r3, #22
 8004048:	6003      	str	r3, [r0, #0]
	_kill(status, -1);
	while (1) {}		/* Make sure we hang here */
 800404a:	e7fe      	b.n	800404a <_exit+0xa>

0800404c <_sbrk>:
  const uint32_t stack_limit = (uint32_t)&_estack - (uint32_t)&_Min_Stack_Size;
  const uint8_t *max_heap = (uint8_t *)stack_limit;
  uint8_t *prev_heap_end;

  /* Initialize heap end at first call */
  if (NULL == __sbrk_heap_end)
 800404c:	4a0b      	ldr	r2, [pc, #44]	; (800407c <_sbrk+0x30>)
{
 800404e:	4603      	mov	r3, r0
  if (NULL == __sbrk_heap_end)
 8004050:	6811      	ldr	r1, [r2, #0]
{
 8004052:	b510      	push	{r4, lr}
  if (NULL == __sbrk_heap_end)
 8004054:	b909      	cbnz	r1, 800405a <_sbrk+0xe>
  {
    __sbrk_heap_end = &_end;
 8004056:	490a      	ldr	r1, [pc, #40]	; (8004080 <_sbrk+0x34>)
 8004058:	6011      	str	r1, [r2, #0]
  }

  /* Protect heap from growing into the reserved MSP stack */
  if (__sbrk_heap_end + incr > max_heap)
 800405a:	6810      	ldr	r0, [r2, #0]
 800405c:	4909      	ldr	r1, [pc, #36]	; (8004084 <_sbrk+0x38>)
 800405e:	4c0a      	ldr	r4, [pc, #40]	; (8004088 <_sbrk+0x3c>)
 8004060:	4403      	add	r3, r0
 8004062:	1b09      	subs	r1, r1, r4
 8004064:	428b      	cmp	r3, r1
 8004066:	d906      	bls.n	8004076 <_sbrk+0x2a>
  {
    errno = ENOMEM;
 8004068:	f002 fdd6 	bl	8006c18 <__errno>
 800406c:	230c      	movs	r3, #12
 800406e:	6003      	str	r3, [r0, #0]
    return (void *)-1;
 8004070:	f04f 30ff 	mov.w	r0, #4294967295

  prev_heap_end = __sbrk_heap_end;
  __sbrk_heap_end += incr;

  return (void *)prev_heap_end;
}
 8004074:	bd10      	pop	{r4, pc}
  __sbrk_heap_end += incr;
 8004076:	6013      	str	r3, [r2, #0]
  return (void *)prev_heap_end;
 8004078:	e7fc      	b.n	8004074 <_sbrk+0x28>
 800407a:	bf00      	nop
 800407c:	20000424 	.word	0x20000424
 8004080:	20000450 	.word	0x20000450
 8004084:	20002800 	.word	0x20002800
 8004088:	00000400 	.word	0x00000400

0800408c <SystemInit>:

  /* Configure the Vector Table location -------------------------------------*/
#if defined(USER_VECT_TAB_ADDRESS)
  SCB->VTOR = VECT_TAB_BASE_ADDRESS | VECT_TAB_OFFSET; /* Vector Table Relocation in Internal SRAM. */
#endif /* USER_VECT_TAB_ADDRESS */
}
 800408c:	4770      	bx	lr
	...

08004090 <_ZL22common_target_callbackfRN11stepping_md10ParametersE>:
		current_param.target = 0;
		param.set_motor_param(current_param);
	}
}

void common_target_callback(float value, Parameters& param){
 8004090:	b530      	push	{r4, r5, lr}
 8004092:	b085      	sub	sp, #20
 8004094:	4605      	mov	r5, r0
	MotorParam current_param = param.get_motor_param();
 8004096:	4668      	mov	r0, sp
void common_target_callback(float value, Parameters& param){
 8004098:	460c      	mov	r4, r1
	MotorParam current_param = param.get_motor_param();
 800409a:	f7ff faab 	bl	80035f4 <_ZN11stepping_md10Parameters15get_motor_paramEv>

	if((!IS_EMERGENCY()) && current_param.mode != MD_MODE::DISABLE){
 800409e:	f44f 6180 	mov.w	r1, #1024	; 0x400
 80040a2:	4808      	ldr	r0, [pc, #32]	; (80040c4 <_ZL22common_target_callbackfRN11stepping_md10ParametersE+0x34>)
 80040a4:	f001 f8a6 	bl	80051f4 <HAL_GPIO_ReadPin>
 80040a8:	b150      	cbz	r0, 80040c0 <_ZL22common_target_callbackfRN11stepping_md10ParametersE+0x30>
 80040aa:	2101      	movs	r1, #1
 80040ac:	f89d 0000 	ldrb.w	r0, [sp]
 80040b0:	f7ff fa99 	bl	80035e6 <_ZN11stepping_mdneENS_7MD_MODEES0_>
 80040b4:	b120      	cbz	r0, 80040c0 <_ZL22common_target_callbackfRN11stepping_md10ParametersE+0x30>
		current_param.target = value;
		param.set_motor_param(current_param);
 80040b6:	4669      	mov	r1, sp
 80040b8:	4620      	mov	r0, r4
		current_param.target = value;
 80040ba:	9502      	str	r5, [sp, #8]
		param.set_motor_param(current_param);
 80040bc:	f7ff faa2 	bl	8003604 <_ZN11stepping_md10Parameters15set_motor_paramERKNS_10MotorParamE>
	}
}
 80040c0:	b005      	add	sp, #20
 80040c2:	bd30      	pop	{r4, r5, pc}
 80040c4:	40010c00 	.word	0x40010c00

080040c8 <_ZNSt17_Function_handlerIFifmEZ11wrapper_cppEUlfmE1_E9_M_invokeERKSt9_Any_dataOfOm>:
      _M_invoke(const _Any_data& __functor, _ArgTypes&&... __args)
 80040c8:	b508      	push	{r3, lr}
 80040ca:	460b      	mov	r3, r1
				common_target_callback(value, parameters[A]);
 80040cc:	6801      	ldr	r1, [r0, #0]
 80040ce:	6818      	ldr	r0, [r3, #0]
 80040d0:	f7ff ffde 	bl	8004090 <_ZL22common_target_callbackfRN11stepping_md10ParametersE>
      }
 80040d4:	2000      	movs	r0, #0
 80040d6:	bd08      	pop	{r3, pc}

080040d8 <_ZNSt17_Function_handlerIFifmEZ11wrapper_cppEUlfmE2_E9_M_invokeERKSt9_Any_dataOfOm>:
      _M_invoke(const _Any_data& __functor, _ArgTypes&&... __args)
 80040d8:	b508      	push	{r3, lr}
 80040da:	460b      	mov	r3, r1
				common_target_callback(value, parameters[C]);
 80040dc:	6801      	ldr	r1, [r0, #0]
 80040de:	6818      	ldr	r0, [r3, #0]
 80040e0:	3114      	adds	r1, #20
 80040e2:	f7ff ffd5 	bl	8004090 <_ZL22common_target_callbackfRN11stepping_md10ParametersE>
      }
 80040e6:	2000      	movs	r0, #0
 80040e8:	bd08      	pop	{r3, pc}
	...

080040ec <_ZL19common_cmd_callbackhRN11stepping_md10ParametersERNS_15MotorControllerE.constprop.0>:
void common_cmd_callback(uint8_t value, Parameters& param, MotorController& motor){
 80040ec:	b57f      	push	{r0, r1, r2, r3, r4, r5, r6, lr}
 80040ee:	4604      	mov	r4, r0
	const bool is_same_mode = static_cast<MD_MODE>(value) == param.get_motor_param().mode;
 80040f0:	4668      	mov	r0, sp
void common_cmd_callback(uint8_t value, Parameters& param, MotorController& motor){
 80040f2:	460d      	mov	r5, r1
	const bool is_same_mode = static_cast<MD_MODE>(value) == param.get_motor_param().mode;
 80040f4:	f7ff fa7e 	bl	80035f4 <_ZN11stepping_md10Parameters15get_motor_paramEv>
 80040f8:	f89d 1000 	ldrb.w	r1, [sp]
 80040fc:	4620      	mov	r0, r4
 80040fe:	f7ff fa65 	bl	80035cc <_ZN11stepping_mdeqENS_7MD_MODEES0_>
	if(!IS_EMERGENCY() && is_appropriate_val && (!is_same_mode)){
 8004102:	f44f 6180 	mov.w	r1, #1024	; 0x400
	const bool is_same_mode = static_cast<MD_MODE>(value) == param.get_motor_param().mode;
 8004106:	4606      	mov	r6, r0
	if(!IS_EMERGENCY() && is_appropriate_val && (!is_same_mode)){
 8004108:	4818      	ldr	r0, [pc, #96]	; (800416c <_ZL19common_cmd_callbackhRN11stepping_md10ParametersERNS_15MotorControllerE.constprop.0+0x80>)
 800410a:	f001 f873 	bl	80051f4 <HAL_GPIO_ReadPin>
 800410e:	b358      	cbz	r0, 8004168 <_ZL19common_cmd_callbackhRN11stepping_md10ParametersERNS_15MotorControllerE.constprop.0+0x7c>
 8004110:	f014 0ffa 	tst.w	r4, #250	; 0xfa
 8004114:	d128      	bne.n	8004168 <_ZL19common_cmd_callbackhRN11stepping_md10ParametersERNS_15MotorControllerE.constprop.0+0x7c>
 8004116:	bb3e      	cbnz	r6, 8004168 <_ZL19common_cmd_callbackhRN11stepping_md10ParametersERNS_15MotorControllerE.constprop.0+0x7c>
		MotorParam current_param = param.get_motor_param();
 8004118:	4629      	mov	r1, r5
 800411a:	4668      	mov	r0, sp
 800411c:	f7ff fa6a 	bl	80035f4 <_ZN11stepping_md10Parameters15get_motor_paramEv>
		if(current_param.mode == MD_MODE::DISABLE && static_cast<MD_MODE>(value) != MD_MODE::DISABLE) led_mgr::increase_enabled_motor();
 8004120:	2101      	movs	r1, #1
 8004122:	f89d 0000 	ldrb.w	r0, [sp]
 8004126:	f7ff fa51 	bl	80035cc <_ZN11stepping_mdeqENS_7MD_MODEES0_>
 800412a:	b968      	cbnz	r0, 8004148 <_ZL19common_cmd_callbackhRN11stepping_md10ParametersERNS_15MotorControllerE.constprop.0+0x5c>
		else if(current_param.mode != MD_MODE::DISABLE && static_cast<MD_MODE>(value) == MD_MODE::DISABLE) led_mgr::decrease_enabled_motor();
 800412c:	2101      	movs	r1, #1
 800412e:	f89d 0000 	ldrb.w	r0, [sp]
 8004132:	f7ff fa58 	bl	80035e6 <_ZN11stepping_mdneENS_7MD_MODEES0_>
 8004136:	b178      	cbz	r0, 8004158 <_ZL19common_cmd_callbackhRN11stepping_md10ParametersERNS_15MotorControllerE.constprop.0+0x6c>
 8004138:	2101      	movs	r1, #1
 800413a:	4620      	mov	r0, r4
 800413c:	f7ff fa46 	bl	80035cc <_ZN11stepping_mdeqENS_7MD_MODEES0_>
 8004140:	b150      	cbz	r0, 8004158 <_ZL19common_cmd_callbackhRN11stepping_md10ParametersERNS_15MotorControllerE.constprop.0+0x6c>
 8004142:	f7ff fd11 	bl	8003b68 <_ZN11stepping_md7led_mgr22decrease_enabled_motorEv>
 8004146:	e007      	b.n	8004158 <_ZL19common_cmd_callbackhRN11stepping_md10ParametersERNS_15MotorControllerE.constprop.0+0x6c>
		if(current_param.mode == MD_MODE::DISABLE && static_cast<MD_MODE>(value) != MD_MODE::DISABLE) led_mgr::increase_enabled_motor();
 8004148:	2101      	movs	r1, #1
 800414a:	4620      	mov	r0, r4
 800414c:	f7ff fa4b 	bl	80035e6 <_ZN11stepping_mdneENS_7MD_MODEES0_>
 8004150:	2800      	cmp	r0, #0
 8004152:	d0eb      	beq.n	800412c <_ZL19common_cmd_callbackhRN11stepping_md10ParametersERNS_15MotorControllerE.constprop.0+0x40>
 8004154:	f7ff fcf2 	bl	8003b3c <_ZN11stepping_md7led_mgr22increase_enabled_motorEv>
		current_param.target = 0;
 8004158:	2300      	movs	r3, #0
		param.set_motor_param(current_param);
 800415a:	4669      	mov	r1, sp
 800415c:	4628      	mov	r0, r5
		current_param.mode = static_cast<MD_MODE>(value);
 800415e:	f88d 4000 	strb.w	r4, [sp]
		current_param.target = 0;
 8004162:	9302      	str	r3, [sp, #8]
		param.set_motor_param(current_param);
 8004164:	f7ff fa4e 	bl	8003604 <_ZN11stepping_md10Parameters15set_motor_paramERKNS_10MotorParamE>
}
 8004168:	b004      	add	sp, #16
 800416a:	bd70      	pop	{r4, r5, r6, pc}
 800416c:	40010c00 	.word	0x40010c00

08004170 <_ZNSt17_Function_handlerIFihmEZ11wrapper_cppEUlhmE_E9_M_invokeERKSt9_Any_dataOhOm>:
      _M_invoke(const _Any_data& __functor, _ArgTypes&&... __args)
 8004170:	b508      	push	{r3, lr}
 8004172:	460b      	mov	r3, r1
				common_cmd_callback(value, parameters[A], motors[A]);
 8004174:	6801      	ldr	r1, [r0, #0]
 8004176:	7818      	ldrb	r0, [r3, #0]
 8004178:	f7ff ffb8 	bl	80040ec <_ZL19common_cmd_callbackhRN11stepping_md10ParametersERNS_15MotorControllerE.constprop.0>
      }
 800417c:	2000      	movs	r0, #0
 800417e:	bd08      	pop	{r3, pc}

08004180 <_ZNSt17_Function_handlerIFihmEZ11wrapper_cppEUlhmE0_E9_M_invokeERKSt9_Any_dataOhOm>:
      _M_invoke(const _Any_data& __functor, _ArgTypes&&... __args)
 8004180:	b508      	push	{r3, lr}
 8004182:	460b      	mov	r3, r1
				common_cmd_callback(value, parameters[C], motors[C]);
 8004184:	6801      	ldr	r1, [r0, #0]
 8004186:	7818      	ldrb	r0, [r3, #0]
 8004188:	3114      	adds	r1, #20
 800418a:	f7ff ffaf 	bl	80040ec <_ZL19common_cmd_callbackhRN11stepping_md10ParametersERNS_15MotorControllerE.constprop.0>
      }
 800418e:	2000      	movs	r0, #0
 8004190:	bd08      	pop	{r3, pc}

08004192 <_ZSt13move_backwardIPhS0_ET0_T_S2_S1_.isra.0>:
    move_backward(_BI1 __first, _BI1 __last, _BI2 __result)
 8004192:	4613      	mov	r3, r2
	  if (_Num)
 8004194:	1a0a      	subs	r2, r1, r0
 8004196:	d003      	beq.n	80041a0 <_ZSt13move_backwardIPhS0_ET0_T_S2_S1_.isra.0+0xe>
	    __builtin_memmove(__result - _Num, __first, sizeof(_Tp) * _Num);
 8004198:	4601      	mov	r1, r0
 800419a:	1a98      	subs	r0, r3, r2
 800419c:	f002 bd84 	b.w	8006ca8 <memmove>
    }
 80041a0:	4770      	bx	lr

080041a2 <_ZNSt17_Function_handlerIFiPhmEZN11stepping_md13CanController12set_callbackIfEEvSt8functionIFiT_mEEEUlS0_mE_E9_M_invokeERKSt9_Any_dataOS0_Om>:
      _M_invoke(const _Any_data& __functor, _ArgTypes&&... __args)
 80041a2:	b507      	push	{r0, r1, r2, lr}
 80041a4:	6813      	ldr	r3, [r2, #0]
	    return __source._M_access<_Functor*>();
 80041a6:	6800      	ldr	r0, [r0, #0]

			//Can
			template<typename T>
			void set_callback(const std::function<int(T, uint32_t)> callback){
				this->callback = [callback](unsigned char* pValue, uint32_t id)->int{
					return callback(*reinterpret_cast<T*>(pValue), id);
 80041a8:	680a      	ldr	r2, [r1, #0]
 80041aa:	6812      	ldr	r2, [r2, #0]
 80041ac:	9301      	str	r3, [sp, #4]
      if (_M_empty())
 80041ae:	6883      	ldr	r3, [r0, #8]
 80041b0:	9200      	str	r2, [sp, #0]
 80041b2:	b90b      	cbnz	r3, 80041b8 <_ZNSt17_Function_handlerIFiPhmEZN11stepping_md13CanController12set_callbackIfEEvSt8functionIFiT_mEEEUlS0_mE_E9_M_invokeERKSt9_Any_dataOS0_Om+0x16>
	__throw_bad_function_call();
 80041b4:	f002 fc94 	bl	8006ae0 <_ZSt25__throw_bad_function_callv>
      return _M_invoker(_M_functor, std::forward<_ArgTypes>(__args)...);
 80041b8:	4669      	mov	r1, sp
 80041ba:	68c3      	ldr	r3, [r0, #12]
 80041bc:	aa01      	add	r2, sp, #4
 80041be:	4798      	blx	r3
      }
 80041c0:	b003      	add	sp, #12
 80041c2:	f85d fb04 	ldr.w	pc, [sp], #4
	...

080041c8 <_ZNSt17_Function_handlerIFifmEZ11wrapper_cppEUlfmE2_E10_M_managerERSt9_Any_dataRKS3_St18_Manager_operation>:
	switch (__op)
 80041c8:	b12a      	cbz	r2, 80041d6 <_ZNSt17_Function_handlerIFifmEZ11wrapper_cppEUlfmE2_E10_M_managerERSt9_Any_dataRKS3_St18_Manager_operation+0xe>
 80041ca:	2a01      	cmp	r2, #1
 80041cc:	d006      	beq.n	80041dc <_ZNSt17_Function_handlerIFifmEZ11wrapper_cppEUlfmE2_E10_M_managerERSt9_Any_dataRKS3_St18_Manager_operation+0x14>
	  switch (__op)
 80041ce:	2a02      	cmp	r2, #2
 80041d0:	d105      	bne.n	80041de <_ZNSt17_Function_handlerIFifmEZ11wrapper_cppEUlfmE2_E10_M_managerERSt9_Any_dataRKS3_St18_Manager_operation+0x16>
 80041d2:	680b      	ldr	r3, [r1, #0]
 80041d4:	e000      	b.n	80041d8 <_ZNSt17_Function_handlerIFifmEZ11wrapper_cppEUlfmE2_E10_M_managerERSt9_Any_dataRKS3_St18_Manager_operation+0x10>
	    __dest._M_access<const type_info*>() = &typeid(_Functor);
 80041d6:	4b03      	ldr	r3, [pc, #12]	; (80041e4 <_ZNSt17_Function_handlerIFifmEZ11wrapper_cppEUlfmE2_E10_M_managerERSt9_Any_dataRKS3_St18_Manager_operation+0x1c>)
 80041d8:	6003      	str	r3, [r0, #0]
	      break;
 80041da:	e000      	b.n	80041de <_ZNSt17_Function_handlerIFifmEZ11wrapper_cppEUlfmE2_E10_M_managerERSt9_Any_dataRKS3_St18_Manager_operation+0x16>
	    __dest._M_access<_Functor*>() = _Base::_M_get_pointer(__source);
 80041dc:	6001      	str	r1, [r0, #0]
      }
 80041de:	2000      	movs	r0, #0
 80041e0:	4770      	bx	lr
 80041e2:	bf00      	nop
 80041e4:	0800742c 	.word	0x0800742c

080041e8 <_ZNSt17_Function_handlerIFifmEZ11wrapper_cppEUlfmE1_E10_M_managerERSt9_Any_dataRKS3_St18_Manager_operation>:
	switch (__op)
 80041e8:	b12a      	cbz	r2, 80041f6 <_ZNSt17_Function_handlerIFifmEZ11wrapper_cppEUlfmE1_E10_M_managerERSt9_Any_dataRKS3_St18_Manager_operation+0xe>
 80041ea:	2a01      	cmp	r2, #1
 80041ec:	d006      	beq.n	80041fc <_ZNSt17_Function_handlerIFifmEZ11wrapper_cppEUlfmE1_E10_M_managerERSt9_Any_dataRKS3_St18_Manager_operation+0x14>
	  switch (__op)
 80041ee:	2a02      	cmp	r2, #2
 80041f0:	d105      	bne.n	80041fe <_ZNSt17_Function_handlerIFifmEZ11wrapper_cppEUlfmE1_E10_M_managerERSt9_Any_dataRKS3_St18_Manager_operation+0x16>
 80041f2:	680b      	ldr	r3, [r1, #0]
 80041f4:	e000      	b.n	80041f8 <_ZNSt17_Function_handlerIFifmEZ11wrapper_cppEUlfmE1_E10_M_managerERSt9_Any_dataRKS3_St18_Manager_operation+0x10>
	    __dest._M_access<const type_info*>() = &typeid(_Functor);
 80041f6:	4b03      	ldr	r3, [pc, #12]	; (8004204 <_ZNSt17_Function_handlerIFifmEZ11wrapper_cppEUlfmE1_E10_M_managerERSt9_Any_dataRKS3_St18_Manager_operation+0x1c>)
 80041f8:	6003      	str	r3, [r0, #0]
	      break;
 80041fa:	e000      	b.n	80041fe <_ZNSt17_Function_handlerIFifmEZ11wrapper_cppEUlfmE1_E10_M_managerERSt9_Any_dataRKS3_St18_Manager_operation+0x16>
	    __dest._M_access<_Functor*>() = _Base::_M_get_pointer(__source);
 80041fc:	6001      	str	r1, [r0, #0]
      }
 80041fe:	2000      	movs	r0, #0
 8004200:	4770      	bx	lr
 8004202:	bf00      	nop
 8004204:	08007424 	.word	0x08007424

08004208 <_ZNSt17_Function_handlerIFihmEZ11wrapper_cppEUlhmE0_E10_M_managerERSt9_Any_dataRKS3_St18_Manager_operation>:
      _M_manager(_Any_data& __dest, const _Any_data& __source,
 8004208:	4603      	mov	r3, r0
	switch (__op)
 800420a:	b142      	cbz	r2, 800421e <_ZNSt17_Function_handlerIFihmEZ11wrapper_cppEUlhmE0_E10_M_managerERSt9_Any_dataRKS3_St18_Manager_operation+0x16>
 800420c:	2a01      	cmp	r2, #1
 800420e:	d00a      	beq.n	8004226 <_ZNSt17_Function_handlerIFihmEZ11wrapper_cppEUlhmE0_E10_M_managerERSt9_Any_dataRKS3_St18_Manager_operation+0x1e>
	  switch (__op)
 8004210:	2a02      	cmp	r2, #2
 8004212:	bf04      	itt	eq
 8004214:	e9d1 0100 	ldrdeq	r0, r1, [r1]
 8004218:	e9c3 0100 	strdeq	r0, r1, [r3]
	      break;
 800421c:	e001      	b.n	8004222 <_ZNSt17_Function_handlerIFihmEZ11wrapper_cppEUlhmE0_E10_M_managerERSt9_Any_dataRKS3_St18_Manager_operation+0x1a>
	    __dest._M_access<const type_info*>() = &typeid(_Functor);
 800421e:	4a03      	ldr	r2, [pc, #12]	; (800422c <_ZNSt17_Function_handlerIFihmEZ11wrapper_cppEUlhmE0_E10_M_managerERSt9_Any_dataRKS3_St18_Manager_operation+0x24>)
 8004220:	6002      	str	r2, [r0, #0]
      }
 8004222:	2000      	movs	r0, #0
 8004224:	4770      	bx	lr
	    __dest._M_access<_Functor*>() = _Base::_M_get_pointer(__source);
 8004226:	6001      	str	r1, [r0, #0]
	    break;
 8004228:	e7fb      	b.n	8004222 <_ZNSt17_Function_handlerIFihmEZ11wrapper_cppEUlhmE0_E10_M_managerERSt9_Any_dataRKS3_St18_Manager_operation+0x1a>
 800422a:	bf00      	nop
 800422c:	08007434 	.word	0x08007434

08004230 <_ZNSt17_Function_handlerIFihmEZ11wrapper_cppEUlhmE_E10_M_managerERSt9_Any_dataRKS3_St18_Manager_operation>:
      _M_manager(_Any_data& __dest, const _Any_data& __source,
 8004230:	4603      	mov	r3, r0
	switch (__op)
 8004232:	b142      	cbz	r2, 8004246 <_ZNSt17_Function_handlerIFihmEZ11wrapper_cppEUlhmE_E10_M_managerERSt9_Any_dataRKS3_St18_Manager_operation+0x16>
 8004234:	2a01      	cmp	r2, #1
 8004236:	d00a      	beq.n	800424e <_ZNSt17_Function_handlerIFihmEZ11wrapper_cppEUlhmE_E10_M_managerERSt9_Any_dataRKS3_St18_Manager_operation+0x1e>
	  switch (__op)
 8004238:	2a02      	cmp	r2, #2
 800423a:	bf04      	itt	eq
 800423c:	e9d1 0100 	ldrdeq	r0, r1, [r1]
 8004240:	e9c3 0100 	strdeq	r0, r1, [r3]
	      break;
 8004244:	e001      	b.n	800424a <_ZNSt17_Function_handlerIFihmEZ11wrapper_cppEUlhmE_E10_M_managerERSt9_Any_dataRKS3_St18_Manager_operation+0x1a>
	    __dest._M_access<const type_info*>() = &typeid(_Functor);
 8004246:	4a03      	ldr	r2, [pc, #12]	; (8004254 <_ZNSt17_Function_handlerIFihmEZ11wrapper_cppEUlhmE_E10_M_managerERSt9_Any_dataRKS3_St18_Manager_operation+0x24>)
 8004248:	6002      	str	r2, [r0, #0]
      }
 800424a:	2000      	movs	r0, #0
 800424c:	4770      	bx	lr
	    __dest._M_access<_Functor*>() = _Base::_M_get_pointer(__source);
 800424e:	6001      	str	r1, [r0, #0]
	    break;
 8004250:	e7fb      	b.n	800424a <_ZNSt17_Function_handlerIFihmEZ11wrapper_cppEUlhmE_E10_M_managerERSt9_Any_dataRKS3_St18_Manager_operation+0x1a>
 8004252:	bf00      	nop
 8004254:	0800743c 	.word	0x0800743c

08004258 <_ZNSt17_Function_handlerIFiPhmEZN11stepping_md13CanController12set_callbackIhEEvSt8functionIFiT_mEEEUlS0_mE_E9_M_invokeERKSt9_Any_dataOS0_Om>:
      _M_invoke(const _Any_data& __functor, _ArgTypes&&... __args)
 8004258:	b507      	push	{r0, r1, r2, lr}
 800425a:	6813      	ldr	r3, [r2, #0]
	    return __source._M_access<_Functor*>();
 800425c:	6800      	ldr	r0, [r0, #0]
    __invoke_impl(__invoke_other, _Fn&& __f, _Args&&... __args)
 800425e:	680a      	ldr	r2, [r1, #0]
 8004260:	7812      	ldrb	r2, [r2, #0]
				this->callback = [callback](unsigned char* pValue, uint32_t id)->int{
 8004262:	9301      	str	r3, [sp, #4]
      if (_M_empty())
 8004264:	6883      	ldr	r3, [r0, #8]
 8004266:	f88d 2003 	strb.w	r2, [sp, #3]
 800426a:	b90b      	cbnz	r3, 8004270 <_ZNSt17_Function_handlerIFiPhmEZN11stepping_md13CanController12set_callbackIhEEvSt8functionIFiT_mEEEUlS0_mE_E9_M_invokeERKSt9_Any_dataOS0_Om+0x18>
	__throw_bad_function_call();
 800426c:	f002 fc38 	bl	8006ae0 <_ZSt25__throw_bad_function_callv>
      return _M_invoker(_M_functor, std::forward<_ArgTypes>(__args)...);
 8004270:	68c3      	ldr	r3, [r0, #12]
 8004272:	aa01      	add	r2, sp, #4
 8004274:	f10d 0103 	add.w	r1, sp, #3
 8004278:	4798      	blx	r3
      }
 800427a:	b003      	add	sp, #12
 800427c:	f85d fb04 	ldr.w	pc, [sp], #4

08004280 <_ZNSt14_Function_baseD1Ev>:
      if (_M_manager)
 8004280:	6883      	ldr	r3, [r0, #8]
    ~_Function_base()
 8004282:	b510      	push	{r4, lr}
 8004284:	4604      	mov	r4, r0
      if (_M_manager)
 8004286:	b113      	cbz	r3, 800428e <_ZNSt14_Function_baseD1Ev+0xe>
	_M_manager(_M_functor, _M_functor, __destroy_functor);
 8004288:	2203      	movs	r2, #3
 800428a:	4601      	mov	r1, r0
 800428c:	4798      	blx	r3
    }
 800428e:	4620      	mov	r0, r4
 8004290:	bd10      	pop	{r4, pc}
	...

08004294 <HAL_GPIO_EXTI_Callback>:
	if(((RCC->CFGR & RCC_CFGR_PPRE2)>>11) >= 0b100) result *= 2; //APB2/1PCLK22
	return result;
}

void HAL_GPIO_EXTI_Callback(uint16_t GPIO_Pin){
	if(GPIO_Pin == EMS_Pin){
 8004294:	f5b0 6f80 	cmp.w	r0, #1024	; 0x400
void HAL_GPIO_EXTI_Callback(uint16_t GPIO_Pin){
 8004298:	4601      	mov	r1, r0
 800429a:	b508      	push	{r3, lr}
	if(GPIO_Pin == EMS_Pin){
 800429c:	d106      	bne.n	80042ac <HAL_GPIO_EXTI_Callback+0x18>
		if(IS_EMERGENCY()) error_request_flag = true;
 800429e:	4804      	ldr	r0, [pc, #16]	; (80042b0 <HAL_GPIO_EXTI_Callback+0x1c>)
 80042a0:	f000 ffa8 	bl	80051f4 <HAL_GPIO_ReadPin>
 80042a4:	b910      	cbnz	r0, 80042ac <HAL_GPIO_EXTI_Callback+0x18>
 80042a6:	2201      	movs	r2, #1
 80042a8:	4b02      	ldr	r3, [pc, #8]	; (80042b4 <HAL_GPIO_EXTI_Callback+0x20>)
 80042aa:	701a      	strb	r2, [r3, #0]
	}
}
 80042ac:	bd08      	pop	{r3, pc}
 80042ae:	bf00      	nop
 80042b0:	40010c00 	.word	0x40010c00
 80042b4:	20000428 	.word	0x20000428

080042b8 <_ZNSt8functionIFihmEEC1ERKS1_>:
    function<_Res(_ArgTypes...)>::
 80042b8:	b538      	push	{r3, r4, r5, lr}
    _Function_base() : _M_manager(nullptr) { }
 80042ba:	2300      	movs	r3, #0
 80042bc:	6083      	str	r3, [r0, #8]
    bool _M_empty() const { return !_M_manager; }
 80042be:	688b      	ldr	r3, [r1, #8]
    function<_Res(_ArgTypes...)>::
 80042c0:	4604      	mov	r4, r0
 80042c2:	460d      	mov	r5, r1
      if (static_cast<bool>(__x))
 80042c4:	b12b      	cbz	r3, 80042d2 <_ZNSt8functionIFihmEEC1ERKS1_+0x1a>
	  __x._M_manager(_M_functor, __x._M_functor, __clone_functor);
 80042c6:	2202      	movs	r2, #2
 80042c8:	4798      	blx	r3
	  _M_invoker = __x._M_invoker;
 80042ca:	68eb      	ldr	r3, [r5, #12]
 80042cc:	60e3      	str	r3, [r4, #12]
	  _M_manager = __x._M_manager;
 80042ce:	68ab      	ldr	r3, [r5, #8]
 80042d0:	60a3      	str	r3, [r4, #8]
    }
 80042d2:	4620      	mov	r0, r4
 80042d4:	bd38      	pop	{r3, r4, r5, pc}
    : _Function_base()
 80042d6:	4620      	mov	r0, r4
 80042d8:	f7ff ffd2 	bl	8004280 <_ZNSt14_Function_baseD1Ev>
 80042dc:	f001 fdbc 	bl	8005e58 <__cxa_end_cleanup>

080042e0 <_ZNSt17_Function_handlerIFiPhmEZN11stepping_md13CanController12set_callbackIhEEvSt8functionIFiT_mEEEUlS0_mE_E10_M_managerERSt9_Any_dataRKSB_St18_Manager_operation>:
      _M_manager(_Any_data& __dest, const _Any_data& __source,
 80042e0:	b570      	push	{r4, r5, r6, lr}
 80042e2:	4604      	mov	r4, r0
	switch (__op)
 80042e4:	b17a      	cbz	r2, 8004306 <_ZNSt17_Function_handlerIFiPhmEZN11stepping_md13CanController12set_callbackIhEEvSt8functionIFiT_mEEEUlS0_mE_E10_M_managerERSt9_Any_dataRKSB_St18_Manager_operation+0x26>
 80042e6:	2a01      	cmp	r2, #1
 80042e8:	d011      	beq.n	800430e <_ZNSt17_Function_handlerIFiPhmEZN11stepping_md13CanController12set_callbackIhEEvSt8functionIFiT_mEEEUlS0_mE_E10_M_managerERSt9_Any_dataRKSB_St18_Manager_operation+0x2e>
	  switch (__op)
 80042ea:	2a02      	cmp	r2, #2
 80042ec:	d011      	beq.n	8004312 <_ZNSt17_Function_handlerIFiPhmEZN11stepping_md13CanController12set_callbackIhEEvSt8functionIFiT_mEEEUlS0_mE_E10_M_managerERSt9_Any_dataRKSB_St18_Manager_operation+0x32>
 80042ee:	2a03      	cmp	r2, #3
 80042f0:	d10b      	bne.n	800430a <_ZNSt17_Function_handlerIFiPhmEZN11stepping_md13CanController12set_callbackIhEEvSt8functionIFiT_mEEEUlS0_mE_E10_M_managerERSt9_Any_dataRKSB_St18_Manager_operation+0x2a>
	  delete __victim._M_access<_Functor*>();
 80042f2:	6804      	ldr	r4, [r0, #0]
 80042f4:	b14c      	cbz	r4, 800430a <_ZNSt17_Function_handlerIFiPhmEZN11stepping_md13CanController12set_callbackIhEEvSt8functionIFiT_mEEEUlS0_mE_E10_M_managerERSt9_Any_dataRKSB_St18_Manager_operation+0x2a>
    class function<_Res(_ArgTypes...)>
 80042f6:	4620      	mov	r0, r4
 80042f8:	f7ff ffc2 	bl	8004280 <_ZNSt14_Function_baseD1Ev>
	  delete __victim._M_access<_Functor*>();
 80042fc:	2110      	movs	r1, #16
 80042fe:	4620      	mov	r0, r4
 8004300:	f001 fda8 	bl	8005e54 <_ZdlPvj>
 8004304:	e001      	b.n	800430a <_ZNSt17_Function_handlerIFiPhmEZN11stepping_md13CanController12set_callbackIhEEvSt8functionIFiT_mEEEUlS0_mE_E10_M_managerERSt9_Any_dataRKSB_St18_Manager_operation+0x2a>
	    __dest._M_access<const type_info*>() = &typeid(_Functor);
 8004306:	4b0b      	ldr	r3, [pc, #44]	; (8004334 <_ZNSt17_Function_handlerIFiPhmEZN11stepping_md13CanController12set_callbackIhEEvSt8functionIFiT_mEEEUlS0_mE_E10_M_managerERSt9_Any_dataRKSB_St18_Manager_operation+0x54>)
	    __dest._M_access<_Functor*>() = _Base::_M_get_pointer(__source);
 8004308:	6023      	str	r3, [r4, #0]
      }
 800430a:	2000      	movs	r0, #0
 800430c:	bd70      	pop	{r4, r5, r6, pc}
	    return __source._M_access<_Functor*>();
 800430e:	680b      	ldr	r3, [r1, #0]
 8004310:	e7fa      	b.n	8004308 <_ZNSt17_Function_handlerIFiPhmEZN11stepping_md13CanController12set_callbackIhEEvSt8functionIFiT_mEEEUlS0_mE_E10_M_managerERSt9_Any_dataRKSB_St18_Manager_operation+0x28>
	    new _Functor(*__source._M_access<const _Functor*>());
 8004312:	2010      	movs	r0, #16
	  __dest._M_access<_Functor*>() =
 8004314:	680e      	ldr	r6, [r1, #0]
	    new _Functor(*__source._M_access<const _Functor*>());
 8004316:	f002 f8f8 	bl	800650a <_Znwj>
 800431a:	4631      	mov	r1, r6
 800431c:	4605      	mov	r5, r0
 800431e:	f7ff ffcb 	bl	80042b8 <_ZNSt8functionIFihmEEC1ERKS1_>
	  __dest._M_access<_Functor*>() =
 8004322:	6025      	str	r5, [r4, #0]
	}
 8004324:	e7f1      	b.n	800430a <_ZNSt17_Function_handlerIFiPhmEZN11stepping_md13CanController12set_callbackIhEEvSt8functionIFiT_mEEEUlS0_mE_E10_M_managerERSt9_Any_dataRKSB_St18_Manager_operation+0x2a>
	    new _Functor(*__source._M_access<const _Functor*>());
 8004326:	2110      	movs	r1, #16
 8004328:	4628      	mov	r0, r5
 800432a:	f001 fd93 	bl	8005e54 <_ZdlPvj>
 800432e:	f001 fd93 	bl	8005e58 <__cxa_end_cleanup>
 8004332:	bf00      	nop
 8004334:	080073c4 	.word	0x080073c4

08004338 <_ZNSt8functionIFifmEEC1ERKS1_>:
    function<_Res(_ArgTypes...)>::
 8004338:	b538      	push	{r3, r4, r5, lr}
    _Function_base() : _M_manager(nullptr) { }
 800433a:	2300      	movs	r3, #0
 800433c:	6083      	str	r3, [r0, #8]
    bool _M_empty() const { return !_M_manager; }
 800433e:	688b      	ldr	r3, [r1, #8]
    function<_Res(_ArgTypes...)>::
 8004340:	4604      	mov	r4, r0
 8004342:	460d      	mov	r5, r1
      if (static_cast<bool>(__x))
 8004344:	b12b      	cbz	r3, 8004352 <_ZNSt8functionIFifmEEC1ERKS1_+0x1a>
	  __x._M_manager(_M_functor, __x._M_functor, __clone_functor);
 8004346:	2202      	movs	r2, #2
 8004348:	4798      	blx	r3
	  _M_invoker = __x._M_invoker;
 800434a:	68eb      	ldr	r3, [r5, #12]
 800434c:	60e3      	str	r3, [r4, #12]
	  _M_manager = __x._M_manager;
 800434e:	68ab      	ldr	r3, [r5, #8]
 8004350:	60a3      	str	r3, [r4, #8]
    }
 8004352:	4620      	mov	r0, r4
 8004354:	bd38      	pop	{r3, r4, r5, pc}
    : _Function_base()
 8004356:	4620      	mov	r0, r4
 8004358:	f7ff ff92 	bl	8004280 <_ZNSt14_Function_baseD1Ev>
 800435c:	f001 fd7c 	bl	8005e58 <__cxa_end_cleanup>

08004360 <_ZNSt17_Function_handlerIFiPhmEZN11stepping_md13CanController12set_callbackIfEEvSt8functionIFiT_mEEEUlS0_mE_E10_M_managerERSt9_Any_dataRKSB_St18_Manager_operation>:
      _M_manager(_Any_data& __dest, const _Any_data& __source,
 8004360:	b570      	push	{r4, r5, r6, lr}
 8004362:	4604      	mov	r4, r0
	switch (__op)
 8004364:	b17a      	cbz	r2, 8004386 <_ZNSt17_Function_handlerIFiPhmEZN11stepping_md13CanController12set_callbackIfEEvSt8functionIFiT_mEEEUlS0_mE_E10_M_managerERSt9_Any_dataRKSB_St18_Manager_operation+0x26>
 8004366:	2a01      	cmp	r2, #1
 8004368:	d011      	beq.n	800438e <_ZNSt17_Function_handlerIFiPhmEZN11stepping_md13CanController12set_callbackIfEEvSt8functionIFiT_mEEEUlS0_mE_E10_M_managerERSt9_Any_dataRKSB_St18_Manager_operation+0x2e>
	  switch (__op)
 800436a:	2a02      	cmp	r2, #2
 800436c:	d011      	beq.n	8004392 <_ZNSt17_Function_handlerIFiPhmEZN11stepping_md13CanController12set_callbackIfEEvSt8functionIFiT_mEEEUlS0_mE_E10_M_managerERSt9_Any_dataRKSB_St18_Manager_operation+0x32>
 800436e:	2a03      	cmp	r2, #3
 8004370:	d10b      	bne.n	800438a <_ZNSt17_Function_handlerIFiPhmEZN11stepping_md13CanController12set_callbackIfEEvSt8functionIFiT_mEEEUlS0_mE_E10_M_managerERSt9_Any_dataRKSB_St18_Manager_operation+0x2a>
	  delete __victim._M_access<_Functor*>();
 8004372:	6804      	ldr	r4, [r0, #0]
 8004374:	b14c      	cbz	r4, 800438a <_ZNSt17_Function_handlerIFiPhmEZN11stepping_md13CanController12set_callbackIfEEvSt8functionIFiT_mEEEUlS0_mE_E10_M_managerERSt9_Any_dataRKSB_St18_Manager_operation+0x2a>
    class function<_Res(_ArgTypes...)>
 8004376:	4620      	mov	r0, r4
 8004378:	f7ff ff82 	bl	8004280 <_ZNSt14_Function_baseD1Ev>
	  delete __victim._M_access<_Functor*>();
 800437c:	2110      	movs	r1, #16
 800437e:	4620      	mov	r0, r4
 8004380:	f001 fd68 	bl	8005e54 <_ZdlPvj>
 8004384:	e001      	b.n	800438a <_ZNSt17_Function_handlerIFiPhmEZN11stepping_md13CanController12set_callbackIfEEvSt8functionIFiT_mEEEUlS0_mE_E10_M_managerERSt9_Any_dataRKSB_St18_Manager_operation+0x2a>
	    __dest._M_access<const type_info*>() = &typeid(_Functor);
 8004386:	4b0b      	ldr	r3, [pc, #44]	; (80043b4 <_ZNSt17_Function_handlerIFiPhmEZN11stepping_md13CanController12set_callbackIfEEvSt8functionIFiT_mEEEUlS0_mE_E10_M_managerERSt9_Any_dataRKSB_St18_Manager_operation+0x54>)
	    __dest._M_access<_Functor*>() = _Base::_M_get_pointer(__source);
 8004388:	6023      	str	r3, [r4, #0]
      }
 800438a:	2000      	movs	r0, #0
 800438c:	bd70      	pop	{r4, r5, r6, pc}
	    return __source._M_access<_Functor*>();
 800438e:	680b      	ldr	r3, [r1, #0]
 8004390:	e7fa      	b.n	8004388 <_ZNSt17_Function_handlerIFiPhmEZN11stepping_md13CanController12set_callbackIfEEvSt8functionIFiT_mEEEUlS0_mE_E10_M_managerERSt9_Any_dataRKSB_St18_Manager_operation+0x28>
	    new _Functor(*__source._M_access<const _Functor*>());
 8004392:	2010      	movs	r0, #16
	  __dest._M_access<_Functor*>() =
 8004394:	680e      	ldr	r6, [r1, #0]
	    new _Functor(*__source._M_access<const _Functor*>());
 8004396:	f002 f8b8 	bl	800650a <_Znwj>
 800439a:	4631      	mov	r1, r6
 800439c:	4605      	mov	r5, r0
 800439e:	f7ff ffcb 	bl	8004338 <_ZNSt8functionIFifmEEC1ERKS1_>
	  __dest._M_access<_Functor*>() =
 80043a2:	6025      	str	r5, [r4, #0]
	}
 80043a4:	e7f1      	b.n	800438a <_ZNSt17_Function_handlerIFiPhmEZN11stepping_md13CanController12set_callbackIfEEvSt8functionIFiT_mEEEUlS0_mE_E10_M_managerERSt9_Any_dataRKSB_St18_Manager_operation+0x2a>
	    new _Functor(*__source._M_access<const _Functor*>());
 80043a6:	2110      	movs	r1, #16
 80043a8:	4628      	mov	r0, r5
 80043aa:	f001 fd53 	bl	8005e54 <_ZdlPvj>
 80043ae:	f001 fd53 	bl	8005e58 <__cxa_end_cleanup>
 80043b2:	bf00      	nop
 80043b4:	0800741c 	.word	0x0800741c

080043b8 <_ZSt4swapISt9_Any_dataENSt9enable_ifIXsrSt6__and_IJSt6__not_ISt15__is_tuple_likeIT_EESt21is_move_constructibleIS5_ESt18is_move_assignableIS5_EEE5valueEvE4typeERS5_SF_>:
    swap(_Tp& __a, _Tp& __b)
 80043b8:	b513      	push	{r0, r1, r4, lr}
      _Tp __tmp = _GLIBCXX_MOVE(__a);
 80043ba:	466c      	mov	r4, sp
    swap(_Tp& __a, _Tp& __b)
 80043bc:	460b      	mov	r3, r1
 80043be:	4602      	mov	r2, r0
      _Tp __tmp = _GLIBCXX_MOVE(__a);
 80043c0:	c803      	ldmia	r0, {r0, r1}
 80043c2:	e884 0003 	stmia.w	r4, {r0, r1}
      __a = _GLIBCXX_MOVE(__b);
 80043c6:	e893 0003 	ldmia.w	r3, {r0, r1}
 80043ca:	e882 0003 	stmia.w	r2, {r0, r1}
      __b = _GLIBCXX_MOVE(__tmp);
 80043ce:	e894 0003 	ldmia.w	r4, {r0, r1}
 80043d2:	e883 0003 	stmia.w	r3, {r0, r1}
    }
 80043d6:	b002      	add	sp, #8
 80043d8:	bd10      	pop	{r4, pc}
	...

080043dc <_ZN11stepping_md13CanController12set_callbackIhEEvSt8functionIFiT_mEE>:
			void set_callback(const std::function<int(T, uint32_t)> callback){
 80043dc:	b570      	push	{r4, r5, r6, lr}
 80043de:	4604      	mov	r4, r0
 80043e0:	b08c      	sub	sp, #48	; 0x30
				this->callback = [callback](unsigned char* pValue, uint32_t id)->int{
 80043e2:	4668      	mov	r0, sp
 80043e4:	f7ff ff68 	bl	80042b8 <_ZNSt8functionIFihmEEC1ERKS1_>
 80043e8:	4669      	mov	r1, sp
 80043ea:	a808      	add	r0, sp, #32
 80043ec:	1d26      	adds	r6, r4, #4
 80043ee:	f7ff ff63 	bl	80042b8 <_ZNSt8functionIFihmEEC1ERKS1_>
    _Function_base() : _M_manager(nullptr) { }
 80043f2:	2300      	movs	r3, #0
	{ __functor._M_access<_Functor*>() = new _Functor(std::move(__f)); }
 80043f4:	2010      	movs	r0, #16
    _Function_base() : _M_manager(nullptr) { }
 80043f6:	9306      	str	r3, [sp, #24]
	{ __functor._M_access<_Functor*>() = new _Functor(std::move(__f)); }
 80043f8:	f002 f887 	bl	800650a <_Znwj>
 80043fc:	a908      	add	r1, sp, #32
 80043fe:	4605      	mov	r5, r0
 8004400:	f7ff ff5a 	bl	80042b8 <_ZNSt8functionIFihmEEC1ERKS1_>
	    _M_invoker = &_My_handler::_M_invoke;
 8004404:	4b16      	ldr	r3, [pc, #88]	; (8004460 <_ZN11stepping_md13CanController12set_callbackIhEEvSt8functionIFiT_mEE+0x84>)
	std::swap(_M_functor, __x._M_functor);
 8004406:	4631      	mov	r1, r6
	    _M_invoker = &_My_handler::_M_invoke;
 8004408:	9307      	str	r3, [sp, #28]
	    _M_manager = &_My_handler::_M_manager;
 800440a:	4b16      	ldr	r3, [pc, #88]	; (8004464 <_ZN11stepping_md13CanController12set_callbackIhEEvSt8functionIFiT_mEE+0x88>)
	std::swap(_M_functor, __x._M_functor);
 800440c:	a804      	add	r0, sp, #16
	    _M_manager = &_My_handler::_M_manager;
 800440e:	9306      	str	r3, [sp, #24]
	{ __functor._M_access<_Functor*>() = new _Functor(std::move(__f)); }
 8004410:	9504      	str	r5, [sp, #16]
	std::swap(_M_functor, __x._M_functor);
 8004412:	f7ff ffd1 	bl	80043b8 <_ZSt4swapISt9_Any_dataENSt9enable_ifIXsrSt6__and_IJSt6__not_ISt15__is_tuple_likeIT_EESt21is_move_constructibleIS5_ESt18is_move_assignableIS5_EEE5valueEvE4typeERS5_SF_>
      _Tp __tmp = _GLIBCXX_MOVE(__a);
 8004416:	9b06      	ldr	r3, [sp, #24]
      __a = _GLIBCXX_MOVE(__b);
 8004418:	68e2      	ldr	r2, [r4, #12]
      __b = _GLIBCXX_MOVE(__tmp);
 800441a:	60e3      	str	r3, [r4, #12]
      _Tp __tmp = _GLIBCXX_MOVE(__a);
 800441c:	9b07      	ldr	r3, [sp, #28]
      __a = _GLIBCXX_MOVE(__b);
 800441e:	9206      	str	r2, [sp, #24]
 8004420:	6922      	ldr	r2, [r4, #16]
    class function<_Res(_ArgTypes...)>
 8004422:	a804      	add	r0, sp, #16
      __b = _GLIBCXX_MOVE(__tmp);
 8004424:	6123      	str	r3, [r4, #16]
      __a = _GLIBCXX_MOVE(__b);
 8004426:	9207      	str	r2, [sp, #28]
 8004428:	f7ff ff2a 	bl	8004280 <_ZNSt14_Function_baseD1Ev>
 800442c:	a808      	add	r0, sp, #32
 800442e:	f7ff ff27 	bl	8004280 <_ZNSt14_Function_baseD1Ev>
 8004432:	4668      	mov	r0, sp
 8004434:	f7ff ff24 	bl	8004280 <_ZNSt14_Function_baseD1Ev>
				};
			}
 8004438:	b00c      	add	sp, #48	; 0x30
 800443a:	bd70      	pop	{r4, r5, r6, pc}
	{ __functor._M_access<_Functor*>() = new _Functor(std::move(__f)); }
 800443c:	2110      	movs	r1, #16
 800443e:	4628      	mov	r0, r5
 8004440:	f001 fd08 	bl	8005e54 <_ZdlPvj>
      : _Function_base()
 8004444:	a804      	add	r0, sp, #16
 8004446:	f7ff ff1b 	bl	8004280 <_ZNSt14_Function_baseD1Ev>
    class function<_Res(_ArgTypes...)>
 800444a:	a808      	add	r0, sp, #32
 800444c:	f7ff ff18 	bl	8004280 <_ZNSt14_Function_baseD1Ev>
 8004450:	4668      	mov	r0, sp
 8004452:	f7ff ff15 	bl	8004280 <_ZNSt14_Function_baseD1Ev>
 8004456:	f001 fcff 	bl	8005e58 <__cxa_end_cleanup>
 800445a:	e7f3      	b.n	8004444 <_ZN11stepping_md13CanController12set_callbackIhEEvSt8functionIFiT_mEE+0x68>
 800445c:	e7f8      	b.n	8004450 <_ZN11stepping_md13CanController12set_callbackIhEEvSt8functionIFiT_mEE+0x74>
 800445e:	bf00      	nop
 8004460:	08004259 	.word	0x08004259
 8004464:	080042e1 	.word	0x080042e1

08004468 <_ZN11stepping_md13CanController12set_callbackIfEEvSt8functionIFiT_mEE>:
			void set_callback(const std::function<int(T, uint32_t)> callback){
 8004468:	b570      	push	{r4, r5, r6, lr}
 800446a:	4604      	mov	r4, r0
 800446c:	b08c      	sub	sp, #48	; 0x30
				this->callback = [callback](unsigned char* pValue, uint32_t id)->int{
 800446e:	4668      	mov	r0, sp
 8004470:	f7ff ff62 	bl	8004338 <_ZNSt8functionIFifmEEC1ERKS1_>
 8004474:	4669      	mov	r1, sp
 8004476:	a808      	add	r0, sp, #32
 8004478:	1d26      	adds	r6, r4, #4
 800447a:	f7ff ff5d 	bl	8004338 <_ZNSt8functionIFifmEEC1ERKS1_>
    _Function_base() : _M_manager(nullptr) { }
 800447e:	2300      	movs	r3, #0
	{ __functor._M_access<_Functor*>() = new _Functor(std::move(__f)); }
 8004480:	2010      	movs	r0, #16
    _Function_base() : _M_manager(nullptr) { }
 8004482:	9306      	str	r3, [sp, #24]
	{ __functor._M_access<_Functor*>() = new _Functor(std::move(__f)); }
 8004484:	f002 f841 	bl	800650a <_Znwj>
 8004488:	a908      	add	r1, sp, #32
 800448a:	4605      	mov	r5, r0
 800448c:	f7ff ff54 	bl	8004338 <_ZNSt8functionIFifmEEC1ERKS1_>
	    _M_invoker = &_My_handler::_M_invoke;
 8004490:	4b16      	ldr	r3, [pc, #88]	; (80044ec <_ZN11stepping_md13CanController12set_callbackIfEEvSt8functionIFiT_mEE+0x84>)
	std::swap(_M_functor, __x._M_functor);
 8004492:	4631      	mov	r1, r6
	    _M_invoker = &_My_handler::_M_invoke;
 8004494:	9307      	str	r3, [sp, #28]
	    _M_manager = &_My_handler::_M_manager;
 8004496:	4b16      	ldr	r3, [pc, #88]	; (80044f0 <_ZN11stepping_md13CanController12set_callbackIfEEvSt8functionIFiT_mEE+0x88>)
	std::swap(_M_functor, __x._M_functor);
 8004498:	a804      	add	r0, sp, #16
	    _M_manager = &_My_handler::_M_manager;
 800449a:	9306      	str	r3, [sp, #24]
	{ __functor._M_access<_Functor*>() = new _Functor(std::move(__f)); }
 800449c:	9504      	str	r5, [sp, #16]
	std::swap(_M_functor, __x._M_functor);
 800449e:	f7ff ff8b 	bl	80043b8 <_ZSt4swapISt9_Any_dataENSt9enable_ifIXsrSt6__and_IJSt6__not_ISt15__is_tuple_likeIT_EESt21is_move_constructibleIS5_ESt18is_move_assignableIS5_EEE5valueEvE4typeERS5_SF_>
      _Tp __tmp = _GLIBCXX_MOVE(__a);
 80044a2:	9b06      	ldr	r3, [sp, #24]
      __a = _GLIBCXX_MOVE(__b);
 80044a4:	68e2      	ldr	r2, [r4, #12]
      __b = _GLIBCXX_MOVE(__tmp);
 80044a6:	60e3      	str	r3, [r4, #12]
      _Tp __tmp = _GLIBCXX_MOVE(__a);
 80044a8:	9b07      	ldr	r3, [sp, #28]
      __a = _GLIBCXX_MOVE(__b);
 80044aa:	9206      	str	r2, [sp, #24]
 80044ac:	6922      	ldr	r2, [r4, #16]
    class function<_Res(_ArgTypes...)>
 80044ae:	a804      	add	r0, sp, #16
      __b = _GLIBCXX_MOVE(__tmp);
 80044b0:	6123      	str	r3, [r4, #16]
      __a = _GLIBCXX_MOVE(__b);
 80044b2:	9207      	str	r2, [sp, #28]
 80044b4:	f7ff fee4 	bl	8004280 <_ZNSt14_Function_baseD1Ev>
 80044b8:	a808      	add	r0, sp, #32
 80044ba:	f7ff fee1 	bl	8004280 <_ZNSt14_Function_baseD1Ev>
 80044be:	4668      	mov	r0, sp
 80044c0:	f7ff fede 	bl	8004280 <_ZNSt14_Function_baseD1Ev>
			}
 80044c4:	b00c      	add	sp, #48	; 0x30
 80044c6:	bd70      	pop	{r4, r5, r6, pc}
	{ __functor._M_access<_Functor*>() = new _Functor(std::move(__f)); }
 80044c8:	2110      	movs	r1, #16
 80044ca:	4628      	mov	r0, r5
 80044cc:	f001 fcc2 	bl	8005e54 <_ZdlPvj>
      : _Function_base()
 80044d0:	a804      	add	r0, sp, #16
 80044d2:	f7ff fed5 	bl	8004280 <_ZNSt14_Function_baseD1Ev>
    class function<_Res(_ArgTypes...)>
 80044d6:	a808      	add	r0, sp, #32
 80044d8:	f7ff fed2 	bl	8004280 <_ZNSt14_Function_baseD1Ev>
 80044dc:	4668      	mov	r0, sp
 80044de:	f7ff fecf 	bl	8004280 <_ZNSt14_Function_baseD1Ev>
 80044e2:	f001 fcb9 	bl	8005e58 <__cxa_end_cleanup>
 80044e6:	e7f3      	b.n	80044d0 <_ZN11stepping_md13CanController12set_callbackIfEEvSt8functionIFiT_mEE+0x68>
 80044e8:	e7f8      	b.n	80044dc <_ZN11stepping_md13CanController12set_callbackIfEEvSt8functionIFiT_mEE+0x74>
 80044ea:	bf00      	nop
 80044ec:	080041a3 	.word	0x080041a3
 80044f0:	08004361 	.word	0x08004361

080044f4 <_ZSt16__insertion_sortIPhN9__gnu_cxx5__ops15_Iter_comp_iterIZNSt6ranges8__detail16__make_comp_projINS4_4lessEZN6CRSLib3Can6RM000813FilterManager9Implement16FilterManagerImp22set_filter_match_indexIJLNS9_11FilterWidthE0ELSF_0EEJLNS9_10FilterModeE0ELSG_0EEEEvhDpRNSB_15ConfigFilterArgIXT_EXT0_EEEEUlT_E0_EEDaRSL_RT0_EUlOSL_OSO_E_EEEvSL_SL_SO_>:
    __insertion_sort(_RandomAccessIterator __first,
 80044f4:	b5f7      	push	{r0, r1, r2, r4, r5, r6, r7, lr}
 80044f6:	460e      	mov	r6, r1
 80044f8:	a902      	add	r1, sp, #8
      if (__first == __last) return;
 80044fa:	42b0      	cmp	r0, r6
    __insertion_sort(_RandomAccessIterator __first,
 80044fc:	4604      	mov	r4, r0
 80044fe:	e901 000c 	stmdb	r1, {r2, r3}
      if (__first == __last) return;
 8004502:	d01e      	beq.n	8004542 <_ZSt16__insertion_sortIPhN9__gnu_cxx5__ops15_Iter_comp_iterIZNSt6ranges8__detail16__make_comp_projINS4_4lessEZN6CRSLib3Can6RM000813FilterManager9Implement16FilterManagerImp22set_filter_match_indexIJLNS9_11FilterWidthE0ELSF_0EEJLNS9_10FilterModeE0ELSG_0EEEEvhDpRNSB_15ConfigFilterArgIXT_EXT0_EEEEUlT_E0_EEDaRSL_RT0_EUlOSL_OSO_E_EEEvSL_SL_SO_+0x4e>
      for (_RandomAccessIterator __i = __first + 1; __i != __last; ++__i)
 8004504:	1c41      	adds	r1, r0, #1
 8004506:	42b1      	cmp	r1, r6
 8004508:	d01b      	beq.n	8004542 <_ZSt16__insertion_sortIPhN9__gnu_cxx5__ops15_Iter_comp_iterIZNSt6ranges8__detail16__make_comp_projINS4_4lessEZN6CRSLib3Can6RM000813FilterManager9Implement16FilterManagerImp22set_filter_match_indexIJLNS9_11FilterWidthE0ELSF_0EEJLNS9_10FilterModeE0ELSG_0EEEEvhDpRNSB_15ConfigFilterArgIXT_EXT0_EEEEUlT_E0_EEDaRSL_RT0_EUlOSL_OSO_E_EEEvSL_SL_SO_+0x4e>
    { return std::forward<_Fn>(__f)(std::forward<_Args>(__args)...); }
 800450a:	460d      	mov	r5, r1
	  if (__comp(__i, __first))
 800450c:	7823      	ldrb	r3, [r4, #0]
 800450e:	f815 7b01 	ldrb.w	r7, [r5], #1
 8004512:	f003 0303 	and.w	r3, r3, #3
 8004516:	f007 0203 	and.w	r2, r7, #3
 800451a:	429a      	cmp	r2, r3
 800451c:	d206      	bcs.n	800452c <_ZSt16__insertion_sortIPhN9__gnu_cxx5__ops15_Iter_comp_iterIZNSt6ranges8__detail16__make_comp_projINS4_4lessEZN6CRSLib3Can6RM000813FilterManager9Implement16FilterManagerImp22set_filter_match_indexIJLNS9_11FilterWidthE0ELSF_0EEJLNS9_10FilterModeE0ELSG_0EEEEvhDpRNSB_15ConfigFilterArgIXT_EXT0_EEEEUlT_E0_EEDaRSL_RT0_EUlOSL_OSO_E_EEEvSL_SL_SO_+0x38>
	      _GLIBCXX_MOVE_BACKWARD3(__first, __i, __i + 1);
 800451e:	462a      	mov	r2, r5
 8004520:	4620      	mov	r0, r4
 8004522:	f7ff fe36 	bl	8004192 <_ZSt13move_backwardIPhS0_ET0_T_S2_S1_.isra.0>
	      *__first = _GLIBCXX_MOVE(__val);
 8004526:	7027      	strb	r7, [r4, #0]
      for (_RandomAccessIterator __i = __first + 1; __i != __last; ++__i)
 8004528:	4629      	mov	r1, r5
 800452a:	e7ec      	b.n	8004506 <_ZSt16__insertion_sortIPhN9__gnu_cxx5__ops15_Iter_comp_iterIZNSt6ranges8__detail16__make_comp_projINS4_4lessEZN6CRSLib3Can6RM000813FilterManager9Implement16FilterManagerImp22set_filter_match_indexIJLNS9_11FilterWidthE0ELSF_0EEJLNS9_10FilterModeE0ELSG_0EEEEvhDpRNSB_15ConfigFilterArgIXT_EXT0_EEEEUlT_E0_EEDaRSL_RT0_EUlOSL_OSO_E_EEEvSL_SL_SO_+0x12>
 800452c:	f811 3c01 	ldrb.w	r3, [r1, #-1]
      while (__comp(__val, __next))
 8004530:	f003 0003 	and.w	r0, r3, #3
 8004534:	4282      	cmp	r2, r0
 8004536:	d202      	bcs.n	800453e <_ZSt16__insertion_sortIPhN9__gnu_cxx5__ops15_Iter_comp_iterIZNSt6ranges8__detail16__make_comp_projINS4_4lessEZN6CRSLib3Can6RM000813FilterManager9Implement16FilterManagerImp22set_filter_match_indexIJLNS9_11FilterWidthE0ELSF_0EEJLNS9_10FilterModeE0ELSG_0EEEEvhDpRNSB_15ConfigFilterArgIXT_EXT0_EEEEUlT_E0_EEDaRSL_RT0_EUlOSL_OSO_E_EEEvSL_SL_SO_+0x4a>
	  *__last = _GLIBCXX_MOVE(*__next);
 8004538:	f801 3901 	strb.w	r3, [r1], #-1
      while (__comp(__val, __next))
 800453c:	e7f6      	b.n	800452c <_ZSt16__insertion_sortIPhN9__gnu_cxx5__ops15_Iter_comp_iterIZNSt6ranges8__detail16__make_comp_projINS4_4lessEZN6CRSLib3Can6RM000813FilterManager9Implement16FilterManagerImp22set_filter_match_indexIJLNS9_11FilterWidthE0ELSF_0EEJLNS9_10FilterModeE0ELSG_0EEEEvhDpRNSB_15ConfigFilterArgIXT_EXT0_EEEEUlT_E0_EEDaRSL_RT0_EUlOSL_OSO_E_EEEvSL_SL_SO_+0x38>
      *__last = _GLIBCXX_MOVE(__val);
 800453e:	700f      	strb	r7, [r1, #0]
    }
 8004540:	e7f2      	b.n	8004528 <_ZSt16__insertion_sortIPhN9__gnu_cxx5__ops15_Iter_comp_iterIZNSt6ranges8__detail16__make_comp_projINS4_4lessEZN6CRSLib3Can6RM000813FilterManager9Implement16FilterManagerImp22set_filter_match_indexIJLNS9_11FilterWidthE0ELSF_0EEJLNS9_10FilterModeE0ELSG_0EEEEvhDpRNSB_15ConfigFilterArgIXT_EXT0_EEEEUlT_E0_EEDaRSL_RT0_EUlOSL_OSO_E_EEEvSL_SL_SO_+0x34>
    }
 8004542:	b003      	add	sp, #12
 8004544:	bdf0      	pop	{r4, r5, r6, r7, pc}

08004546 <_ZSt13__adjust_heapIPhihN9__gnu_cxx5__ops15_Iter_comp_iterIZNSt6ranges8__detail16__make_comp_projINS4_4lessEZN6CRSLib3Can6RM000813FilterManager9Implement16FilterManagerImp22set_filter_match_indexIJLNS9_11FilterWidthE0ELSF_0EEJLNS9_10FilterModeE0ELSG_0EEEEvhDpRNSB_15ConfigFilterArgIXT_EXT0_EEEEUlT_E0_EEDaRSL_RT0_EUlOSL_OSO_E_EEEvSL_SO_SO_T1_T2_>:
    __adjust_heap(_RandomAccessIterator __first, _Distance __holeIndex,
 8004546:	b5f0      	push	{r4, r5, r6, r7, lr}
      while (__secondChild < (__len - 1) / 2)
 8004548:	1e54      	subs	r4, r2, #1
 800454a:	eb04 74d4 	add.w	r4, r4, r4, lsr #31
 800454e:	1065      	asrs	r5, r4, #1
 8004550:	460c      	mov	r4, r1
 8004552:	42a5      	cmp	r5, r4
 8004554:	dd13      	ble.n	800457e <_ZSt13__adjust_heapIPhihN9__gnu_cxx5__ops15_Iter_comp_iterIZNSt6ranges8__detail16__make_comp_projINS4_4lessEZN6CRSLib3Can6RM000813FilterManager9Implement16FilterManagerImp22set_filter_match_indexIJLNS9_11FilterWidthE0ELSF_0EEJLNS9_10FilterModeE0ELSG_0EEEEvhDpRNSB_15ConfigFilterArgIXT_EXT0_EEEEUlT_E0_EEDaRSL_RT0_EUlOSL_OSO_E_EEEvSL_SO_SO_T1_T2_+0x38>
	  __secondChild = 2 * (__secondChild + 1);
 8004556:	1c67      	adds	r7, r4, #1
 8004558:	eb00 0c47 	add.w	ip, r0, r7, lsl #1
 800455c:	007e      	lsls	r6, r7, #1
	  if (__comp(__first + __secondChild,
 800455e:	f81c cc01 	ldrb.w	ip, [ip, #-1]
 8004562:	f810 7017 	ldrb.w	r7, [r0, r7, lsl #1]
 8004566:	f00c 0c03 	and.w	ip, ip, #3
 800456a:	f007 0703 	and.w	r7, r7, #3
 800456e:	45bc      	cmp	ip, r7
	    __secondChild--;
 8004570:	bf88      	it	hi
 8004572:	f106 36ff 	addhi.w	r6, r6, #4294967295
	  *(__first + __holeIndex) = _GLIBCXX_MOVE(*(__first + __secondChild));
 8004576:	5d87      	ldrb	r7, [r0, r6]
 8004578:	5507      	strb	r7, [r0, r4]
	  __holeIndex = __secondChild;
 800457a:	4634      	mov	r4, r6
      while (__secondChild < (__len - 1) / 2)
 800457c:	e7e9      	b.n	8004552 <_ZSt13__adjust_heapIPhihN9__gnu_cxx5__ops15_Iter_comp_iterIZNSt6ranges8__detail16__make_comp_projINS4_4lessEZN6CRSLib3Can6RM000813FilterManager9Implement16FilterManagerImp22set_filter_match_indexIJLNS9_11FilterWidthE0ELSF_0EEJLNS9_10FilterModeE0ELSG_0EEEEvhDpRNSB_15ConfigFilterArgIXT_EXT0_EEEEUlT_E0_EEDaRSL_RT0_EUlOSL_OSO_E_EEEvSL_SO_SO_T1_T2_+0xc>
      if ((__len & 1) == 0 && __secondChild == (__len - 2) / 2)
 800457e:	07d5      	lsls	r5, r2, #31
 8004580:	d40d      	bmi.n	800459e <_ZSt13__adjust_heapIPhihN9__gnu_cxx5__ops15_Iter_comp_iterIZNSt6ranges8__detail16__make_comp_projINS4_4lessEZN6CRSLib3Can6RM000813FilterManager9Implement16FilterManagerImp22set_filter_match_indexIJLNS9_11FilterWidthE0ELSF_0EEJLNS9_10FilterModeE0ELSG_0EEEEvhDpRNSB_15ConfigFilterArgIXT_EXT0_EEEEUlT_E0_EEDaRSL_RT0_EUlOSL_OSO_E_EEEvSL_SO_SO_T1_T2_+0x58>
 8004582:	3a02      	subs	r2, #2
 8004584:	eb02 72d2 	add.w	r2, r2, r2, lsr #31
 8004588:	ebb4 0f62 	cmp.w	r4, r2, asr #1
 800458c:	d107      	bne.n	800459e <_ZSt13__adjust_heapIPhihN9__gnu_cxx5__ops15_Iter_comp_iterIZNSt6ranges8__detail16__make_comp_projINS4_4lessEZN6CRSLib3Can6RM000813FilterManager9Implement16FilterManagerImp22set_filter_match_indexIJLNS9_11FilterWidthE0ELSF_0EEJLNS9_10FilterModeE0ELSG_0EEEEvhDpRNSB_15ConfigFilterArgIXT_EXT0_EEEEUlT_E0_EEDaRSL_RT0_EUlOSL_OSO_E_EEEvSL_SO_SO_T1_T2_+0x58>
	  __secondChild = 2 * (__secondChild + 1);
 800458e:	1c62      	adds	r2, r4, #1
 8004590:	0055      	lsls	r5, r2, #1
	  *(__first + __holeIndex) = _GLIBCXX_MOVE(*(__first
 8004592:	eb00 0242 	add.w	r2, r0, r2, lsl #1
 8004596:	f812 2c01 	ldrb.w	r2, [r2, #-1]
 800459a:	5502      	strb	r2, [r0, r4]
	  __holeIndex = __secondChild - 1;
 800459c:	1e6c      	subs	r4, r5, #1
      _Distance __parent = (__holeIndex - 1) / 2;
 800459e:	1e62      	subs	r2, r4, #1
 80045a0:	eb02 72d2 	add.w	r2, r2, r2, lsr #31
 80045a4:	1052      	asrs	r2, r2, #1
      while (__holeIndex > __topIndex && __comp(__first + __parent, __value))
 80045a6:	f003 0603 	and.w	r6, r3, #3
 80045aa:	42a1      	cmp	r1, r4
	  *(__first + __holeIndex) = _GLIBCXX_MOVE(*(__first + __parent));
 80045ac:	eb00 0504 	add.w	r5, r0, r4
      while (__holeIndex > __topIndex && __comp(__first + __parent, __value))
 80045b0:	da0b      	bge.n	80045ca <_ZSt13__adjust_heapIPhihN9__gnu_cxx5__ops15_Iter_comp_iterIZNSt6ranges8__detail16__make_comp_projINS4_4lessEZN6CRSLib3Can6RM000813FilterManager9Implement16FilterManagerImp22set_filter_match_indexIJLNS9_11FilterWidthE0ELSF_0EEJLNS9_10FilterModeE0ELSG_0EEEEvhDpRNSB_15ConfigFilterArgIXT_EXT0_EEEEUlT_E0_EEDaRSL_RT0_EUlOSL_OSO_E_EEEvSL_SO_SO_T1_T2_+0x84>
 80045b2:	5c84      	ldrb	r4, [r0, r2]
 80045b4:	f004 0703 	and.w	r7, r4, #3
 80045b8:	42b7      	cmp	r7, r6
 80045ba:	d206      	bcs.n	80045ca <_ZSt13__adjust_heapIPhihN9__gnu_cxx5__ops15_Iter_comp_iterIZNSt6ranges8__detail16__make_comp_projINS4_4lessEZN6CRSLib3Can6RM000813FilterManager9Implement16FilterManagerImp22set_filter_match_indexIJLNS9_11FilterWidthE0ELSF_0EEJLNS9_10FilterModeE0ELSG_0EEEEvhDpRNSB_15ConfigFilterArgIXT_EXT0_EEEEUlT_E0_EEDaRSL_RT0_EUlOSL_OSO_E_EEEvSL_SO_SO_T1_T2_+0x84>
	  *(__first + __holeIndex) = _GLIBCXX_MOVE(*(__first + __parent));
 80045bc:	702c      	strb	r4, [r5, #0]
	  __parent = (__holeIndex - 1) / 2;
 80045be:	1e54      	subs	r4, r2, #1
 80045c0:	eb04 75d4 	add.w	r5, r4, r4, lsr #31
	  __holeIndex = __parent;
 80045c4:	4614      	mov	r4, r2
	  __parent = (__holeIndex - 1) / 2;
 80045c6:	106a      	asrs	r2, r5, #1
      while (__holeIndex > __topIndex && __comp(__first + __parent, __value))
 80045c8:	e7ef      	b.n	80045aa <_ZSt13__adjust_heapIPhihN9__gnu_cxx5__ops15_Iter_comp_iterIZNSt6ranges8__detail16__make_comp_projINS4_4lessEZN6CRSLib3Can6RM000813FilterManager9Implement16FilterManagerImp22set_filter_match_indexIJLNS9_11FilterWidthE0ELSF_0EEJLNS9_10FilterModeE0ELSG_0EEEEvhDpRNSB_15ConfigFilterArgIXT_EXT0_EEEEUlT_E0_EEDaRSL_RT0_EUlOSL_OSO_E_EEEvSL_SO_SO_T1_T2_+0x64>
      *(__first + __holeIndex) = _GLIBCXX_MOVE(__value);
 80045ca:	702b      	strb	r3, [r5, #0]
    }
 80045cc:	bdf0      	pop	{r4, r5, r6, r7, pc}

080045ce <_ZSt16__introsort_loopIPhiN9__gnu_cxx5__ops15_Iter_comp_iterIZNSt6ranges8__detail16__make_comp_projINS4_4lessEZN6CRSLib3Can6RM000813FilterManager9Implement16FilterManagerImp22set_filter_match_indexIJLNS9_11FilterWidthE0ELSF_0EEJLNS9_10FilterModeE0ELSG_0EEEEvhDpRNSB_15ConfigFilterArgIXT_EXT0_EEEEUlT_E0_EEDaRSL_RT0_EUlOSL_OSO_E_EEEvSL_SL_SO_T1_>:
    __introsort_loop(_RandomAccessIterator __first,
 80045ce:	b082      	sub	sp, #8
 80045d0:	e92d 43f0 	stmdb	sp!, {r4, r5, r6, r7, r8, r9, lr}
 80045d4:	4604      	mov	r4, r0
 80045d6:	460d      	mov	r5, r1
 80045d8:	4617      	mov	r7, r2
 80045da:	b087      	sub	sp, #28
 80045dc:	930f      	str	r3, [sp, #60]	; 0x3c
      std::__move_median_to_first(__first, __first + 1, __mid, __last - 1,
 80045de:	f100 0801 	add.w	r8, r0, #1
      while (__last - __first > int(_S_threshold))
 80045e2:	1b2e      	subs	r6, r5, r4
 80045e4:	2e10      	cmp	r6, #16
 80045e6:	dd29      	ble.n	800463c <_ZSt16__introsort_loopIPhiN9__gnu_cxx5__ops15_Iter_comp_iterIZNSt6ranges8__detail16__make_comp_projINS4_4lessEZN6CRSLib3Can6RM000813FilterManager9Implement16FilterManagerImp22set_filter_match_indexIJLNS9_11FilterWidthE0ELSF_0EEJLNS9_10FilterModeE0ELSG_0EEEEvhDpRNSB_15ConfigFilterArgIXT_EXT0_EEEEUlT_E0_EEDaRSL_RT0_EUlOSL_OSO_E_EEEvSL_SL_SO_T1_+0x6e>
	  if (__depth_limit == 0)
 80045e8:	bb6f      	cbnz	r7, 8004646 <_ZSt16__introsort_loopIPhiN9__gnu_cxx5__ops15_Iter_comp_iterIZNSt6ranges8__detail16__make_comp_projINS4_4lessEZN6CRSLib3Can6RM000813FilterManager9Implement16FilterManagerImp22set_filter_match_indexIJLNS9_11FilterWidthE0ELSF_0EEJLNS9_10FilterModeE0ELSG_0EEEEvhDpRNSB_15ConfigFilterArgIXT_EXT0_EEEEUlT_E0_EEDaRSL_RT0_EUlOSL_OSO_E_EEEvSL_SL_SO_T1_+0x78>
 80045ea:	e9dd 010f 	ldrd	r0, r1, [sp, #60]	; 0x3c
 80045ee:	f10d 0808 	add.w	r8, sp, #8
 80045f2:	f10d 0910 	add.w	r9, sp, #16
 80045f6:	e888 0003 	stmia.w	r8, {r0, r1}
    __partial_sort(_RandomAccessIterator __first,
 80045fa:	e889 0003 	stmia.w	r9, {r0, r1}
      _DistanceType __parent = (__len - 2) / 2;
 80045fe:	1eb7      	subs	r7, r6, #2
 8004600:	107f      	asrs	r7, r7, #1
	  std::__adjust_heap(__first, __parent, __len, _GLIBCXX_MOVE(__value),
 8004602:	e899 0003 	ldmia.w	r9, {r0, r1}
 8004606:	4632      	mov	r2, r6
 8004608:	e88d 0003 	stmia.w	sp, {r0, r1}
 800460c:	5de3      	ldrb	r3, [r4, r7]
 800460e:	4639      	mov	r1, r7
 8004610:	4620      	mov	r0, r4
 8004612:	f7ff ff98 	bl	8004546 <_ZSt13__adjust_heapIPhihN9__gnu_cxx5__ops15_Iter_comp_iterIZNSt6ranges8__detail16__make_comp_projINS4_4lessEZN6CRSLib3Can6RM000813FilterManager9Implement16FilterManagerImp22set_filter_match_indexIJLNS9_11FilterWidthE0ELSF_0EEJLNS9_10FilterModeE0ELSG_0EEEEvhDpRNSB_15ConfigFilterArgIXT_EXT0_EEEEUlT_E0_EEDaRSL_RT0_EUlOSL_OSO_E_EEEvSL_SO_SO_T1_T2_>
	  if (__parent == 0)
 8004616:	b10f      	cbz	r7, 800461c <_ZSt16__introsort_loopIPhiN9__gnu_cxx5__ops15_Iter_comp_iterIZNSt6ranges8__detail16__make_comp_projINS4_4lessEZN6CRSLib3Can6RM000813FilterManager9Implement16FilterManagerImp22set_filter_match_indexIJLNS9_11FilterWidthE0ELSF_0EEJLNS9_10FilterModeE0ELSG_0EEEEvhDpRNSB_15ConfigFilterArgIXT_EXT0_EEEEUlT_E0_EEDaRSL_RT0_EUlOSL_OSO_E_EEEvSL_SL_SO_T1_+0x4e>
	  __parent--;
 8004618:	3f01      	subs	r7, #1
      while (true)
 800461a:	e7f2      	b.n	8004602 <_ZSt16__introsort_loopIPhiN9__gnu_cxx5__ops15_Iter_comp_iterIZNSt6ranges8__detail16__make_comp_projINS4_4lessEZN6CRSLib3Can6RM000813FilterManager9Implement16FilterManagerImp22set_filter_match_indexIJLNS9_11FilterWidthE0ELSF_0EEJLNS9_10FilterModeE0ELSG_0EEEEvhDpRNSB_15ConfigFilterArgIXT_EXT0_EEEEUlT_E0_EEDaRSL_RT0_EUlOSL_OSO_E_EEEvSL_SL_SO_T1_+0x34>
      _ValueType __value = _GLIBCXX_MOVE(*__result);
 800461c:	f815 3d01 	ldrb.w	r3, [r5, #-1]!
      *__result = _GLIBCXX_MOVE(*__first);
 8004620:	7822      	ldrb	r2, [r4, #0]
			 _DistanceType(__last - __first),
 8004622:	1b2e      	subs	r6, r5, r4
      std::__adjust_heap(__first, _DistanceType(0),
 8004624:	e898 0003 	ldmia.w	r8, {r0, r1}
      *__result = _GLIBCXX_MOVE(*__first);
 8004628:	702a      	strb	r2, [r5, #0]
      std::__adjust_heap(__first, _DistanceType(0),
 800462a:	e88d 0003 	stmia.w	sp, {r0, r1}
 800462e:	4632      	mov	r2, r6
 8004630:	2100      	movs	r1, #0
 8004632:	4620      	mov	r0, r4
 8004634:	f7ff ff87 	bl	8004546 <_ZSt13__adjust_heapIPhihN9__gnu_cxx5__ops15_Iter_comp_iterIZNSt6ranges8__detail16__make_comp_projINS4_4lessEZN6CRSLib3Can6RM000813FilterManager9Implement16FilterManagerImp22set_filter_match_indexIJLNS9_11FilterWidthE0ELSF_0EEJLNS9_10FilterModeE0ELSG_0EEEEvhDpRNSB_15ConfigFilterArgIXT_EXT0_EEEEUlT_E0_EEDaRSL_RT0_EUlOSL_OSO_E_EEEvSL_SO_SO_T1_T2_>
      while (__last - __first > 1)
 8004638:	2e01      	cmp	r6, #1
 800463a:	dcef      	bgt.n	800461c <_ZSt16__introsort_loopIPhiN9__gnu_cxx5__ops15_Iter_comp_iterIZNSt6ranges8__detail16__make_comp_projINS4_4lessEZN6CRSLib3Can6RM000813FilterManager9Implement16FilterManagerImp22set_filter_match_indexIJLNS9_11FilterWidthE0ELSF_0EEJLNS9_10FilterModeE0ELSG_0EEEEvhDpRNSB_15ConfigFilterArgIXT_EXT0_EEEEUlT_E0_EEDaRSL_RT0_EUlOSL_OSO_E_EEEvSL_SL_SO_T1_+0x4e>
    }
 800463c:	b007      	add	sp, #28
 800463e:	e8bd 43f0 	ldmia.w	sp!, {r4, r5, r6, r7, r8, r9, lr}
 8004642:	b002      	add	sp, #8
 8004644:	4770      	bx	lr
      _RandomAccessIterator __mid = __first + (__last - __first) / 2;
 8004646:	1076      	asrs	r6, r6, #1
 8004648:	f894 e001 	ldrb.w	lr, [r4, #1]
 800464c:	5da1      	ldrb	r1, [r4, r6]
 800464e:	f815 0c01 	ldrb.w	r0, [r5, #-1]
 8004652:	f00e 0903 	and.w	r9, lr, #3
 8004656:	f001 0c03 	and.w	ip, r1, #3
      if (__comp(__a, __b))
 800465a:	45e1      	cmp	r9, ip
      _Tp __tmp = _GLIBCXX_MOVE(__a);
 800465c:	7823      	ldrb	r3, [r4, #0]
	  --__depth_limit;
 800465e:	f107 37ff 	add.w	r7, r7, #4294967295
    __invoke_impl(__invoke_other, _Fn&& __f, _Args&&... __args)
 8004662:	f000 0203 	and.w	r2, r0, #3
      if (__comp(__a, __b))
 8004666:	d229      	bcs.n	80046bc <_ZSt16__introsort_loopIPhiN9__gnu_cxx5__ops15_Iter_comp_iterIZNSt6ranges8__detail16__make_comp_projINS4_4lessEZN6CRSLib3Can6RM000813FilterManager9Implement16FilterManagerImp22set_filter_match_indexIJLNS9_11FilterWidthE0ELSF_0EEJLNS9_10FilterModeE0ELSG_0EEEEvhDpRNSB_15ConfigFilterArgIXT_EXT0_EEEEUlT_E0_EEDaRSL_RT0_EUlOSL_OSO_E_EEEvSL_SL_SO_T1_+0xee>
	  if (__comp(__b, __c))
 8004668:	4594      	cmp	ip, r2
 800466a:	d221      	bcs.n	80046b0 <_ZSt16__introsort_loopIPhiN9__gnu_cxx5__ops15_Iter_comp_iterIZNSt6ranges8__detail16__make_comp_projINS4_4lessEZN6CRSLib3Can6RM000813FilterManager9Implement16FilterManagerImp22set_filter_match_indexIJLNS9_11FilterWidthE0ELSF_0EEJLNS9_10FilterModeE0ELSG_0EEEEvhDpRNSB_15ConfigFilterArgIXT_EXT0_EEEEUlT_E0_EEDaRSL_RT0_EUlOSL_OSO_E_EEEvSL_SL_SO_T1_+0xe2>
      __a = _GLIBCXX_MOVE(__b);
 800466c:	7021      	strb	r1, [r4, #0]
      __b = _GLIBCXX_MOVE(__tmp);
 800466e:	55a3      	strb	r3, [r4, r6]
 8004670:	4642      	mov	r2, r8
      while (__last - __first > int(_S_threshold))
 8004672:	462b      	mov	r3, r5
 8004674:	4616      	mov	r6, r2
 8004676:	7821      	ldrb	r1, [r4, #0]
    { return std::forward<_Fn>(__f)(std::forward<_Args>(__args)...); }
 8004678:	f812 cb01 	ldrb.w	ip, [r2], #1
    __invoke_impl(__invoke_other, _Fn&& __f, _Args&&... __args)
 800467c:	f001 0103 	and.w	r1, r1, #3
	  while (__comp(__first, __pivot))
 8004680:	f00c 0003 	and.w	r0, ip, #3
 8004684:	4288      	cmp	r0, r1
 8004686:	d3f5      	bcc.n	8004674 <_ZSt16__introsort_loopIPhiN9__gnu_cxx5__ops15_Iter_comp_iterIZNSt6ranges8__detail16__make_comp_projINS4_4lessEZN6CRSLib3Can6RM000813FilterManager9Implement16FilterManagerImp22set_filter_match_indexIJLNS9_11FilterWidthE0ELSF_0EEJLNS9_10FilterModeE0ELSG_0EEEEvhDpRNSB_15ConfigFilterArgIXT_EXT0_EEEEUlT_E0_EEDaRSL_RT0_EUlOSL_OSO_E_EEEvSL_SL_SO_T1_+0xa6>
	  --__last;
 8004688:	1e58      	subs	r0, r3, #1
 800468a:	4603      	mov	r3, r0
    { return std::forward<_Fn>(__f)(std::forward<_Args>(__args)...); }
 800468c:	f810 e901 	ldrb.w	lr, [r0], #-1
	  while (__comp(__pivot, __last))
 8004690:	f00e 0903 	and.w	r9, lr, #3
 8004694:	4549      	cmp	r1, r9
 8004696:	d3f8      	bcc.n	800468a <_ZSt16__introsort_loopIPhiN9__gnu_cxx5__ops15_Iter_comp_iterIZNSt6ranges8__detail16__make_comp_projINS4_4lessEZN6CRSLib3Can6RM000813FilterManager9Implement16FilterManagerImp22set_filter_match_indexIJLNS9_11FilterWidthE0ELSF_0EEJLNS9_10FilterModeE0ELSG_0EEEEvhDpRNSB_15ConfigFilterArgIXT_EXT0_EEEEUlT_E0_EEDaRSL_RT0_EUlOSL_OSO_E_EEEvSL_SL_SO_T1_+0xbc>
	  if (!(__first < __last))
 8004698:	429e      	cmp	r6, r3
 800469a:	d318      	bcc.n	80046ce <_ZSt16__introsort_loopIPhiN9__gnu_cxx5__ops15_Iter_comp_iterIZNSt6ranges8__detail16__make_comp_projINS4_4lessEZN6CRSLib3Can6RM000813FilterManager9Implement16FilterManagerImp22set_filter_match_indexIJLNS9_11FilterWidthE0ELSF_0EEJLNS9_10FilterModeE0ELSG_0EEEEvhDpRNSB_15ConfigFilterArgIXT_EXT0_EEEEUlT_E0_EEDaRSL_RT0_EUlOSL_OSO_E_EEEvSL_SL_SO_T1_+0x100>
	  std::__introsort_loop(__cut, __last, __depth_limit, __comp);
 800469c:	9b10      	ldr	r3, [sp, #64]	; 0x40
 800469e:	4629      	mov	r1, r5
 80046a0:	9300      	str	r3, [sp, #0]
 80046a2:	463a      	mov	r2, r7
 80046a4:	4630      	mov	r0, r6
 80046a6:	9b0f      	ldr	r3, [sp, #60]	; 0x3c
 80046a8:	f7ff ff91 	bl	80045ce <_ZSt16__introsort_loopIPhiN9__gnu_cxx5__ops15_Iter_comp_iterIZNSt6ranges8__detail16__make_comp_projINS4_4lessEZN6CRSLib3Can6RM000813FilterManager9Implement16FilterManagerImp22set_filter_match_indexIJLNS9_11FilterWidthE0ELSF_0EEJLNS9_10FilterModeE0ELSG_0EEEEvhDpRNSB_15ConfigFilterArgIXT_EXT0_EEEEUlT_E0_EEDaRSL_RT0_EUlOSL_OSO_E_EEEvSL_SL_SO_T1_>
      while (__last - __first > int(_S_threshold))
 80046ac:	4635      	mov	r5, r6
 80046ae:	e798      	b.n	80045e2 <_ZSt16__introsort_loopIPhiN9__gnu_cxx5__ops15_Iter_comp_iterIZNSt6ranges8__detail16__make_comp_projINS4_4lessEZN6CRSLib3Can6RM000813FilterManager9Implement16FilterManagerImp22set_filter_match_indexIJLNS9_11FilterWidthE0ELSF_0EEJLNS9_10FilterModeE0ELSG_0EEEEvhDpRNSB_15ConfigFilterArgIXT_EXT0_EEEEUlT_E0_EEDaRSL_RT0_EUlOSL_OSO_E_EEEvSL_SL_SO_T1_+0x14>
	  else if (__comp(__a, __c))
 80046b0:	4591      	cmp	r9, r2
 80046b2:	d205      	bcs.n	80046c0 <_ZSt16__introsort_loopIPhiN9__gnu_cxx5__ops15_Iter_comp_iterIZNSt6ranges8__detail16__make_comp_projINS4_4lessEZN6CRSLib3Can6RM000813FilterManager9Implement16FilterManagerImp22set_filter_match_indexIJLNS9_11FilterWidthE0ELSF_0EEJLNS9_10FilterModeE0ELSG_0EEEEvhDpRNSB_15ConfigFilterArgIXT_EXT0_EEEEUlT_E0_EEDaRSL_RT0_EUlOSL_OSO_E_EEEvSL_SL_SO_T1_+0xf2>
      __a = _GLIBCXX_MOVE(__b);
 80046b4:	7020      	strb	r0, [r4, #0]
      __b = _GLIBCXX_MOVE(__tmp);
 80046b6:	f805 3c01 	strb.w	r3, [r5, #-1]
    }
 80046ba:	e7d9      	b.n	8004670 <_ZSt16__introsort_loopIPhiN9__gnu_cxx5__ops15_Iter_comp_iterIZNSt6ranges8__detail16__make_comp_projINS4_4lessEZN6CRSLib3Can6RM000813FilterManager9Implement16FilterManagerImp22set_filter_match_indexIJLNS9_11FilterWidthE0ELSF_0EEJLNS9_10FilterModeE0ELSG_0EEEEvhDpRNSB_15ConfigFilterArgIXT_EXT0_EEEEUlT_E0_EEDaRSL_RT0_EUlOSL_OSO_E_EEEvSL_SL_SO_T1_+0xa2>
      else if (__comp(__a, __c))
 80046bc:	4591      	cmp	r9, r2
 80046be:	d203      	bcs.n	80046c8 <_ZSt16__introsort_loopIPhiN9__gnu_cxx5__ops15_Iter_comp_iterIZNSt6ranges8__detail16__make_comp_projINS4_4lessEZN6CRSLib3Can6RM000813FilterManager9Implement16FilterManagerImp22set_filter_match_indexIJLNS9_11FilterWidthE0ELSF_0EEJLNS9_10FilterModeE0ELSG_0EEEEvhDpRNSB_15ConfigFilterArgIXT_EXT0_EEEEUlT_E0_EEDaRSL_RT0_EUlOSL_OSO_E_EEEvSL_SL_SO_T1_+0xfa>
      __a = _GLIBCXX_MOVE(__b);
 80046c0:	f884 e000 	strb.w	lr, [r4]
      __b = _GLIBCXX_MOVE(__tmp);
 80046c4:	7063      	strb	r3, [r4, #1]
 80046c6:	e7d3      	b.n	8004670 <_ZSt16__introsort_loopIPhiN9__gnu_cxx5__ops15_Iter_comp_iterIZNSt6ranges8__detail16__make_comp_projINS4_4lessEZN6CRSLib3Can6RM000813FilterManager9Implement16FilterManagerImp22set_filter_match_indexIJLNS9_11FilterWidthE0ELSF_0EEJLNS9_10FilterModeE0ELSG_0EEEEvhDpRNSB_15ConfigFilterArgIXT_EXT0_EEEEUlT_E0_EEDaRSL_RT0_EUlOSL_OSO_E_EEEvSL_SL_SO_T1_+0xa2>
      else if (__comp(__b, __c))
 80046c8:	4594      	cmp	ip, r2
 80046ca:	d2cf      	bcs.n	800466c <_ZSt16__introsort_loopIPhiN9__gnu_cxx5__ops15_Iter_comp_iterIZNSt6ranges8__detail16__make_comp_projINS4_4lessEZN6CRSLib3Can6RM000813FilterManager9Implement16FilterManagerImp22set_filter_match_indexIJLNS9_11FilterWidthE0ELSF_0EEJLNS9_10FilterModeE0ELSG_0EEEEvhDpRNSB_15ConfigFilterArgIXT_EXT0_EEEEUlT_E0_EEDaRSL_RT0_EUlOSL_OSO_E_EEEvSL_SL_SO_T1_+0x9e>
 80046cc:	e7f2      	b.n	80046b4 <_ZSt16__introsort_loopIPhiN9__gnu_cxx5__ops15_Iter_comp_iterIZNSt6ranges8__detail16__make_comp_projINS4_4lessEZN6CRSLib3Can6RM000813FilterManager9Implement16FilterManagerImp22set_filter_match_indexIJLNS9_11FilterWidthE0ELSF_0EEJLNS9_10FilterModeE0ELSG_0EEEEvhDpRNSB_15ConfigFilterArgIXT_EXT0_EEEEUlT_E0_EEDaRSL_RT0_EUlOSL_OSO_E_EEEvSL_SL_SO_T1_+0xe6>
      __a = _GLIBCXX_MOVE(__b);
 80046ce:	f802 ec01 	strb.w	lr, [r2, #-1]
      __b = _GLIBCXX_MOVE(__tmp);
 80046d2:	f883 c000 	strb.w	ip, [r3]
	  while (__comp(__first, __pivot))
 80046d6:	e7cd      	b.n	8004674 <_ZSt16__introsort_loopIPhiN9__gnu_cxx5__ops15_Iter_comp_iterIZNSt6ranges8__detail16__make_comp_projINS4_4lessEZN6CRSLib3Can6RM000813FilterManager9Implement16FilterManagerImp22set_filter_match_indexIJLNS9_11FilterWidthE0ELSF_0EEJLNS9_10FilterModeE0ELSG_0EEEEvhDpRNSB_15ConfigFilterArgIXT_EXT0_EEEEUlT_E0_EEDaRSL_RT0_EUlOSL_OSO_E_EEEvSL_SL_SO_T1_+0xa6>

080046d8 <_ZN6CRSLib3Can6RM000813FilterManager9Implement16FilterManagerImp22set_filter_match_indexIJLNS0_11FilterWidthE0ELS6_0EEJLNS0_10FilterModeE0ELS7_0EEEEvhDpRNS2_15ConfigFilterArgIXT_EXT0_EEE>:
			[can2_start, &priorities, &filter_args...]<u8 ... indices>(std::integer_sequence<u8, indices ...>) noexcept
 80046d8:	688b      	ldr	r3, [r1, #8]
		void set_filter_match_index(const u8 can2_start, ConfigFilterArg<filter_widthes, filter_modes>& ... filter_args) noexcept
 80046da:	b5f0      	push	{r4, r5, r6, r7, lr}
			return (can2_start <= index) << (u8)5 | (filter_arg.fifo == FifoIndex::fifo1) << (u8)4 | (filter_width == FilterWidth::bit16) << (u8)3 | (filter_mode == FilterMode::mask) << (u8)2 | index;
 80046dc:	2800      	cmp	r0, #0
		void set_filter_match_index(const u8 can2_start, ConfigFilterArg<filter_widthes, filter_modes>& ... filter_args) noexcept
 80046de:	4614      	mov	r4, r2
			return (can2_start <= index) << (u8)5 | (filter_arg.fifo == FifoIndex::fifo1) << (u8)4 | (filter_width == FilterWidth::bit16) << (u8)3 | (filter_mode == FilterMode::mask) << (u8)2 | index;
 80046e0:	bf0c      	ite	eq
 80046e2:	2220      	moveq	r2, #32
 80046e4:	2200      	movne	r2, #0
 80046e6:	2b01      	cmp	r3, #1
 80046e8:	bf0c      	ite	eq
 80046ea:	2310      	moveq	r3, #16
 80046ec:	2300      	movne	r3, #0
		void set_filter_match_index(const u8 can2_start, ConfigFilterArg<filter_widthes, filter_modes>& ... filter_args) noexcept
 80046ee:	460d      	mov	r5, r1
		constexpr u8 convert_to_priority(const u8 index, const u8 can2_start, const ConfigFilterArg<filter_width, filter_mode>& filter_arg) noexcept
 80046f0:	68a1      	ldr	r1, [r4, #8]
			return (can2_start <= index) << (u8)5 | (filter_arg.fifo == FifoIndex::fifo1) << (u8)4 | (filter_width == FilterWidth::bit16) << (u8)3 | (filter_mode == FilterMode::mask) << (u8)2 | index;
 80046f2:	2802      	cmp	r0, #2
 80046f4:	ea42 0203 	orr.w	r2, r2, r3
 80046f8:	bf34      	ite	cc
 80046fa:	2320      	movcc	r3, #32
 80046fc:	2300      	movcs	r3, #0
 80046fe:	2901      	cmp	r1, #1
 8004700:	bf0c      	ite	eq
 8004702:	2110      	moveq	r1, #16
 8004704:	2100      	movne	r1, #0
 8004706:	430b      	orrs	r3, r1
		void set_filter_match_index(const u8 can2_start, ConfigFilterArg<filter_widthes, filter_modes>& ... filter_args) noexcept
 8004708:	b08d      	sub	sp, #52	; 0x34
			return (can2_start <= index) << (u8)5 | (filter_arg.fifo == FifoIndex::fifo1) << (u8)4 | (filter_width == FilterWidth::bit16) << (u8)3 | (filter_mode == FilterMode::mask) << (u8)2 | index;
 800470a:	f043 0305 	orr.w	r3, r3, #5
				priorities = {convert_to_priority(indices, can2_start, filter_args) ...};
 800470e:	f88d 3015 	strb.w	r3, [sp, #21]
 8004712:	f04f 0300 	mov.w	r3, #0
			return (can2_start <= index) << (u8)5 | (filter_arg.fifo == FifoIndex::fifo1) << (u8)4 | (filter_width == FilterWidth::bit16) << (u8)3 | (filter_mode == FilterMode::mask) << (u8)2 | index;
 8004716:	f042 0204 	orr.w	r2, r2, #4
 800471a:	ae0a      	add	r6, sp, #40	; 0x28
				priorities = {convert_to_priority(indices, can2_start, filter_args) ...};
 800471c:	f88d 2014 	strb.w	r2, [sp, #20]
 8004720:	f88d 3028 	strb.w	r3, [sp, #40]	; 0x28
 8004724:	f88d 3020 	strb.w	r3, [sp, #32]
      std::__sort(__first, __last, __gnu_cxx::__ops::__iter_comp_iter(__comp));
 8004728:	a805      	add	r0, sp, #20
 800472a:	ab08      	add	r3, sp, #32
 800472c:	4632      	mov	r2, r6
 800472e:	f10d 0116 	add.w	r1, sp, #22
 8004732:	9307      	str	r3, [sp, #28]
 8004734:	9606      	str	r6, [sp, #24]
 8004736:	f7fd fced 	bl	8002114 <_ZSt6__sortIPhN9__gnu_cxx5__ops15_Iter_comp_iterIZNSt6ranges8__detail16__make_comp_projINS4_4lessESt8identityEEDaRT_RT0_EUlOS9_OSB_E_EEEvS9_S9_SB_>
			for(u32 can_fifo = 0b00; can_fifo <= 0b11; ++can_fifo)
 800473a:	f89d 0014 	ldrb.w	r0, [sp, #20]
 800473e:	f89d 3015 	ldrb.w	r3, [sp, #21]
					if(!((priority & 0b11 << 4) ^ can_fifo << 4))
 8004742:	f010 0030 	ands.w	r0, r0, #48	; 0x30
 8004746:	d003      	beq.n	8004750 <_ZN6CRSLib3Can6RM000813FilterManager9Implement16FilterManagerImp22set_filter_match_indexIJLNS0_11FilterWidthE0ELS6_0EEJLNS0_10FilterModeE0ELS7_0EEEEvhDpRNS2_15ConfigFilterArgIXT_EXT0_EEE+0x78>
 8004748:	2810      	cmp	r0, #16
					priority |= (i << 6);
 800474a:	f043 0340 	orr.w	r3, r3, #64	; 0x40
					if(!((priority & 0b11 << 4) ^ can_fifo << 4))
 800474e:	d003      	beq.n	8004758 <_ZN6CRSLib3Can6RM000813FilterManager9Implement16FilterManagerImp22set_filter_match_indexIJLNS0_11FilterWidthE0ELS6_0EEJLNS0_10FilterModeE0ELS7_0EEEEvhDpRNS2_15ConfigFilterArgIXT_EXT0_EEE+0x80>
 8004750:	2820      	cmp	r0, #32
					priority |= (i << 6);
 8004752:	f043 0340 	orr.w	r3, r3, #64	; 0x40
					if(!((priority & 0b11 << 4) ^ can_fifo << 4))
 8004756:	d003      	beq.n	8004760 <_ZN6CRSLib3Can6RM000813FilterManager9Implement16FilterManagerImp22set_filter_match_indexIJLNS0_11FilterWidthE0ELS6_0EEJLNS0_10FilterModeE0ELS7_0EEEEvhDpRNS2_15ConfigFilterArgIXT_EXT0_EEE+0x88>
 8004758:	2830      	cmp	r0, #48	; 0x30
					priority |= (i << 6);
 800475a:	f043 0340 	orr.w	r3, r3, #64	; 0x40
					if(!((priority & 0b11 << 4) ^ can_fifo << 4))
 800475e:	d001      	beq.n	8004764 <_ZN6CRSLib3Can6RM000813FilterManager9Implement16FilterManagerImp22set_filter_match_indexIJLNS0_11FilterWidthE0ELS6_0EEJLNS0_10FilterModeE0ELS7_0EEEEvhDpRNS2_15ConfigFilterArgIXT_EXT0_EEE+0x8c>
					priority |= (i << 6);
 8004760:	f043 0340 	orr.w	r3, r3, #64	; 0x40
			for(u32 can_fifo = 0b00; can_fifo <= 0b11; ++can_fifo)
 8004764:	f88d 3015 	strb.w	r3, [sp, #21]
 8004768:	f04f 0300 	mov.w	r3, #0
	  std::__introsort_loop(__first, __last,
 800476c:	af03      	add	r7, sp, #12
 800476e:	f88d 3010 	strb.w	r3, [sp, #16]
 8004772:	f88d 300c 	strb.w	r3, [sp, #12]
 8004776:	f10d 0116 	add.w	r1, sp, #22
 800477a:	ab04      	add	r3, sp, #16
 800477c:	a805      	add	r0, sp, #20
 800477e:	2202      	movs	r2, #2
 8004780:	9700      	str	r7, [sp, #0]
 8004782:	9308      	str	r3, [sp, #32]
 8004784:	9709      	str	r7, [sp, #36]	; 0x24
 8004786:	f7ff ff22 	bl	80045ce <_ZSt16__introsort_loopIPhiN9__gnu_cxx5__ops15_Iter_comp_iterIZNSt6ranges8__detail16__make_comp_projINS4_4lessEZN6CRSLib3Can6RM000813FilterManager9Implement16FilterManagerImp22set_filter_match_indexIJLNS9_11FilterWidthE0ELSF_0EEJLNS9_10FilterModeE0ELSG_0EEEEvhDpRNSB_15ConfigFilterArgIXT_EXT0_EEEEUlT_E0_EEDaRSL_RT0_EUlOSL_OSO_E_EEEvSL_SL_SO_T1_>
 800478a:	ab04      	add	r3, sp, #16
 800478c:	e9cd 370a 	strd	r3, r7, [sp, #40]	; 0x28
	std::__insertion_sort(__first, __last, __comp);
 8004790:	f10d 0116 	add.w	r1, sp, #22
 8004794:	e896 000c 	ldmia.w	r6, {r2, r3}
 8004798:	a805      	add	r0, sp, #20
 800479a:	f7ff feab 	bl	80044f4 <_ZSt16__insertion_sortIPhN9__gnu_cxx5__ops15_Iter_comp_iterIZNSt6ranges8__detail16__make_comp_projINS4_4lessEZN6CRSLib3Can6RM000813FilterManager9Implement16FilterManagerImp22set_filter_match_indexIJLNS9_11FilterWidthE0ELSF_0EEJLNS9_10FilterModeE0ELSG_0EEEEvhDpRNSB_15ConfigFilterArgIXT_EXT0_EEEEUlT_E0_EEDaRSL_RT0_EUlOSL_OSO_E_EEEvSL_SL_SO_>
				((filter_args.filter_match_index = priorities[indices] >> 6), ...);
 800479e:	f89d 3014 	ldrb.w	r3, [sp, #20]
 80047a2:	099b      	lsrs	r3, r3, #6
 80047a4:	60eb      	str	r3, [r5, #12]
 80047a6:	f89d 3015 	ldrb.w	r3, [sp, #21]
 80047aa:	099b      	lsrs	r3, r3, #6
 80047ac:	60e3      	str	r3, [r4, #12]
		}
 80047ae:	b00d      	add	sp, #52	; 0x34
 80047b0:	bdf0      	pop	{r4, r5, r6, r7, pc}
	...

080047b4 <_ZN6CRSLib3Can6RM000813FilterManager18config_filter_bankIJLNS0_11FilterWidthE0ELS4_0EEJLNS0_10FilterModeE0ELS5_0EEEEvhDpRNS2_15ConfigFilterArgIXT_EXT0_EEE>:
	void config_filter_bank(const u8 can2_start, ConfigFilterArg<filter_widthes, filter_modes>& ... filter_args)
 80047b4:	b573      	push	{r0, r1, r4, r5, r6, lr}
 80047b6:	4606      	mov	r6, r0
 80047b8:	460d      	mov	r5, r1
 80047ba:	4614      	mov	r4, r2
		Implement::FilterManagerImp::set_filter_match_index(can2_start, filter_args ...);
 80047bc:	f7ff ff8c 	bl	80046d8 <_ZN6CRSLib3Can6RM000813FilterManager9Implement16FilterManagerImp22set_filter_match_indexIJLNS0_11FilterWidthE0ELS6_0EEJLNS0_10FilterModeE0ELS7_0EEEEvhDpRNS2_15ConfigFilterArgIXT_EXT0_EEE>
		bit = bit | reg;
 80047c0:	4b3f      	ldr	r3, [pc, #252]	; (80048c0 <_ZN6CRSLib3Can6RM000813FilterManager18config_filter_bankIJLNS0_11FilterWidthE0ELS4_0EEJLNS0_10FilterModeE0ELS5_0EEEEvhDpRNS2_15ConfigFilterArgIXT_EXT0_EEE+0x10c>)
 80047c2:	f8d3 2600 	ldr.w	r2, [r3, #1536]	; 0x600
 80047c6:	f042 0201 	orr.w	r2, r2, #1
 80047ca:	f8c3 2600 	str.w	r2, [r3, #1536]	; 0x600
		bit = bit & ~reg;
 80047ce:	f8d3 2600 	ldr.w	r2, [r3, #1536]	; 0x600
 80047d2:	f422 527c 	bic.w	r2, r2, #16128	; 0x3f00
 80047d6:	f8c3 2600 	str.w	r2, [r3, #1536]	; 0x600
		bit = bit | reg;
 80047da:	f8d3 2600 	ldr.w	r2, [r3, #1536]	; 0x600
 80047de:	ea42 2206 	orr.w	r2, r2, r6, lsl #8
 80047e2:	f8c3 2600 	str.w	r2, [r3, #1536]	; 0x600
		std::memcpy(tmp_buffer, &filter_arg.filter, 8);
 80047e6:	466a      	mov	r2, sp
 80047e8:	6869      	ldr	r1, [r5, #4]
 80047ea:	6828      	ldr	r0, [r5, #0]
 80047ec:	c203      	stmia	r2!, {r0, r1}
		bxcan->sFilterRegister[index].FR1 = tmp_buffer[0];
 80047ee:	4a35      	ldr	r2, [pc, #212]	; (80048c4 <_ZN6CRSLib3Can6RM000813FilterManager18config_filter_bankIJLNS0_11FilterWidthE0ELS4_0EEJLNS0_10FilterModeE0ELS5_0EEEEvhDpRNS2_15ConfigFilterArgIXT_EXT0_EEE+0x110>)
 80047f0:	f8c2 0240 	str.w	r0, [r2, #576]	; 0x240
		bxcan->sFilterRegister[index].FR2 = tmp_buffer[1];
 80047f4:	9901      	ldr	r1, [sp, #4]
 80047f6:	f8c2 1244 	str.w	r1, [r2, #580]	; 0x244
 80047fa:	f8d3 260c 	ldr.w	r2, [r3, #1548]	; 0x60c
 80047fe:	f042 0201 	orr.w	r2, r2, #1
 8004802:	f8c3 260c 	str.w	r2, [r3, #1548]	; 0x60c
		bit = bit & ~reg;
 8004806:	f8d3 2604 	ldr.w	r2, [r3, #1540]	; 0x604
 800480a:	f022 0201 	bic.w	r2, r2, #1
 800480e:	f8c3 2604 	str.w	r2, [r3, #1540]	; 0x604
		if(filter_arg.fifo == FifoIndex::fifo0)
 8004812:	68aa      	ldr	r2, [r5, #8]
 8004814:	2a00      	cmp	r2, #0
 8004816:	d13f      	bne.n	8004898 <_ZN6CRSLib3Can6RM000813FilterManager18config_filter_bankIJLNS0_11FilterWidthE0ELS4_0EEJLNS0_10FilterModeE0ELS5_0EEEEvhDpRNS2_15ConfigFilterArgIXT_EXT0_EEE+0xe4>
 8004818:	f8d3 2614 	ldr.w	r2, [r3, #1556]	; 0x614
 800481c:	f022 0201 	bic.w	r2, r2, #1
		bit = bit | reg;
 8004820:	f8c3 2614 	str.w	r2, [r3, #1556]	; 0x614
		if(filter_arg.activate)
 8004824:	7c2a      	ldrb	r2, [r5, #16]
 8004826:	2a00      	cmp	r2, #0
 8004828:	d03b      	beq.n	80048a2 <_ZN6CRSLib3Can6RM000813FilterManager18config_filter_bankIJLNS0_11FilterWidthE0ELS4_0EEJLNS0_10FilterModeE0ELS5_0EEEEvhDpRNS2_15ConfigFilterArgIXT_EXT0_EEE+0xee>
 800482a:	f8d3 261c 	ldr.w	r2, [r3, #1564]	; 0x61c
 800482e:	f042 0201 	orr.w	r2, r2, #1
		bit = bit & ~reg;
 8004832:	f8c3 261c 	str.w	r2, [r3, #1564]	; 0x61c
		std::memcpy(tmp_buffer, &filter_arg.filter, 8);
 8004836:	466b      	mov	r3, sp
 8004838:	6820      	ldr	r0, [r4, #0]
 800483a:	6861      	ldr	r1, [r4, #4]
 800483c:	c303      	stmia	r3!, {r0, r1}
		bxcan->sFilterRegister[index].FR1 = tmp_buffer[0];
 800483e:	4b21      	ldr	r3, [pc, #132]	; (80048c4 <_ZN6CRSLib3Can6RM000813FilterManager18config_filter_bankIJLNS0_11FilterWidthE0ELS4_0EEJLNS0_10FilterModeE0ELS5_0EEEEvhDpRNS2_15ConfigFilterArgIXT_EXT0_EEE+0x110>)
 8004840:	f8c3 0248 	str.w	r0, [r3, #584]	; 0x248
		bxcan->sFilterRegister[index].FR2 = tmp_buffer[1];
 8004844:	9a01      	ldr	r2, [sp, #4]
		bit = bit | reg;
 8004846:	f5a3 6380 	sub.w	r3, r3, #1024	; 0x400
 800484a:	f8c3 264c 	str.w	r2, [r3, #1612]	; 0x64c
 800484e:	f8d3 260c 	ldr.w	r2, [r3, #1548]	; 0x60c
 8004852:	f042 0202 	orr.w	r2, r2, #2
 8004856:	f8c3 260c 	str.w	r2, [r3, #1548]	; 0x60c
		bit = bit & ~reg;
 800485a:	f8d3 2604 	ldr.w	r2, [r3, #1540]	; 0x604
 800485e:	f022 0202 	bic.w	r2, r2, #2
 8004862:	f8c3 2604 	str.w	r2, [r3, #1540]	; 0x604
		if(filter_arg.fifo == FifoIndex::fifo0)
 8004866:	68a2      	ldr	r2, [r4, #8]
 8004868:	bb02      	cbnz	r2, 80048ac <_ZN6CRSLib3Can6RM000813FilterManager18config_filter_bankIJLNS0_11FilterWidthE0ELS4_0EEJLNS0_10FilterModeE0ELS5_0EEEEvhDpRNS2_15ConfigFilterArgIXT_EXT0_EEE+0xf8>
 800486a:	f8d3 2614 	ldr.w	r2, [r3, #1556]	; 0x614
 800486e:	f022 0202 	bic.w	r2, r2, #2
		bit = bit | reg;
 8004872:	f8c3 2614 	str.w	r2, [r3, #1556]	; 0x614
		if(filter_arg.activate)
 8004876:	7c22      	ldrb	r2, [r4, #16]
 8004878:	b1ea      	cbz	r2, 80048b6 <_ZN6CRSLib3Can6RM000813FilterManager18config_filter_bankIJLNS0_11FilterWidthE0ELS4_0EEJLNS0_10FilterModeE0ELS5_0EEEEvhDpRNS2_15ConfigFilterArgIXT_EXT0_EEE+0x102>
 800487a:	f8d3 261c 	ldr.w	r2, [r3, #1564]	; 0x61c
 800487e:	f042 0202 	orr.w	r2, r2, #2
		bit = bit & ~reg;
 8004882:	f8c3 261c 	str.w	r2, [r3, #1564]	; 0x61c
 8004886:	4a0e      	ldr	r2, [pc, #56]	; (80048c0 <_ZN6CRSLib3Can6RM000813FilterManager18config_filter_bankIJLNS0_11FilterWidthE0ELS4_0EEJLNS0_10FilterModeE0ELS5_0EEEEvhDpRNS2_15ConfigFilterArgIXT_EXT0_EEE+0x10c>)
 8004888:	f8d2 3600 	ldr.w	r3, [r2, #1536]	; 0x600
 800488c:	f023 0301 	bic.w	r3, r3, #1
 8004890:	f8c2 3600 	str.w	r3, [r2, #1536]	; 0x600
	}
 8004894:	b002      	add	sp, #8
 8004896:	bd70      	pop	{r4, r5, r6, pc}
		bit = bit | reg;
 8004898:	f8d3 2614 	ldr.w	r2, [r3, #1556]	; 0x614
 800489c:	f042 0201 	orr.w	r2, r2, #1
 80048a0:	e7be      	b.n	8004820 <_ZN6CRSLib3Can6RM000813FilterManager18config_filter_bankIJLNS0_11FilterWidthE0ELS4_0EEJLNS0_10FilterModeE0ELS5_0EEEEvhDpRNS2_15ConfigFilterArgIXT_EXT0_EEE+0x6c>
		bit = bit & ~reg;
 80048a2:	f8d3 261c 	ldr.w	r2, [r3, #1564]	; 0x61c
 80048a6:	f022 0201 	bic.w	r2, r2, #1
 80048aa:	e7c2      	b.n	8004832 <_ZN6CRSLib3Can6RM000813FilterManager18config_filter_bankIJLNS0_11FilterWidthE0ELS4_0EEJLNS0_10FilterModeE0ELS5_0EEEEvhDpRNS2_15ConfigFilterArgIXT_EXT0_EEE+0x7e>
		bit = bit | reg;
 80048ac:	f8d3 2614 	ldr.w	r2, [r3, #1556]	; 0x614
 80048b0:	f042 0202 	orr.w	r2, r2, #2
 80048b4:	e7dd      	b.n	8004872 <_ZN6CRSLib3Can6RM000813FilterManager18config_filter_bankIJLNS0_11FilterWidthE0ELS4_0EEJLNS0_10FilterModeE0ELS5_0EEEEvhDpRNS2_15ConfigFilterArgIXT_EXT0_EEE+0xbe>
		bit = bit & ~reg;
 80048b6:	f8d3 261c 	ldr.w	r2, [r3, #1564]	; 0x61c
 80048ba:	f022 0202 	bic.w	r2, r2, #2
 80048be:	e7e0      	b.n	8004882 <_ZN6CRSLib3Can6RM000813FilterManager18config_filter_bankIJLNS0_11FilterWidthE0ELS4_0EEJLNS0_10FilterModeE0ELS5_0EEEEvhDpRNS2_15ConfigFilterArgIXT_EXT0_EEE+0xce>
 80048c0:	40006000 	.word	0x40006000
 80048c4:	40006400 	.word	0x40006400

080048c8 <wrapper_cpp>:
			fifo_index{fifo_index}
 80048c8:	2200      	movs	r2, #0
void wrapper_cpp(void){
 80048ca:	b5f0      	push	{r4, r5, r6, r7, lr}
			hcan{hcan}
 80048cc:	4b97      	ldr	r3, [pc, #604]	; (8004b2c <wrapper_cpp+0x264>)
 80048ce:	b0ed      	sub	sp, #436	; 0x1b4
 80048d0:	e9cd 2313 	strd	r2, r3, [sp, #76]	; 0x4c
 80048d4:	e9cd 3311 	strd	r3, r3, [sp, #68]	; 0x44
 80048d8:	2301      	movs	r3, #1
	return static_cast<_Tp*>(::operator new(__n * sizeof(_Tp)));
 80048da:	200c      	movs	r0, #12
 80048dc:	9315      	str	r3, [sp, #84]	; 0x54
 80048de:	f001 fe14 	bl	800650a <_Znwj>
	 __tmp->_M_hook(__position._M_node);
 80048e2:	4c93      	ldr	r4, [pc, #588]	; (8004b30 <wrapper_cpp+0x268>)
 80048e4:	ae20      	add	r6, sp, #128	; 0x80
 80048e6:	4621      	mov	r1, r4
 80048e8:	6086      	str	r6, [r0, #8]
 80048ea:	f002 f8ef 	bl	8006acc <_ZNSt8__detail15_List_node_base7_M_hookEPS0_>
      void _M_inc_size(size_t __n) { _M_impl._M_node._M_size += __n; }
 80048ee:	68a3      	ldr	r3, [r4, #8]
 80048f0:	200c      	movs	r0, #12
 80048f2:	3301      	adds	r3, #1
 80048f4:	60a3      	str	r3, [r4, #8]
 80048f6:	f001 fe08 	bl	800650a <_Znwj>
 80048fa:	ab25      	add	r3, sp, #148	; 0x94
	 __tmp->_M_hook(__position._M_node);
 80048fc:	4621      	mov	r1, r4
 80048fe:	6083      	str	r3, [r0, #8]
 8004900:	f002 f8e4 	bl	8006acc <_ZNSt8__detail15_List_node_base7_M_hookEPS0_>
      void _M_inc_size(size_t __n) { _M_impl._M_node._M_size += __n; }
 8004904:	68a3      	ldr	r3, [r4, #8]
	parameters[A].set_BID(bida);
 8004906:	f44f 7140 	mov.w	r1, #768	; 0x300
 800490a:	3301      	adds	r3, #1
 800490c:	60a3      	str	r3, [r4, #8]
 800490e:	4630      	mov	r0, r6
			MotorParam{
 8004910:	4c88      	ldr	r4, [pc, #544]	; (8004b34 <wrapper_cpp+0x26c>)
	parameters[A].set_BID(bida);
 8004912:	f7fe fe7f 	bl	8003614 <_ZN11stepping_md10Parameters7set_BIDEt>
			MotorParam{
 8004916:	ad46      	add	r5, sp, #280	; 0x118
	parameters[C].set_BID(bida + 4);
 8004918:	f44f 7141 	mov.w	r1, #772	; 0x304
 800491c:	a825      	add	r0, sp, #148	; 0x94
 800491e:	f7fe fe79 	bl	8003614 <_ZN11stepping_md10Parameters7set_BIDEt>
			MotorParam{
 8004922:	e894 000f 	ldmia.w	r4, {r0, r1, r2, r3}
 8004926:	e885 000f 	stmia.w	r5, {r0, r1, r2, r3}
	parameters[A].set_motor_param(
 800492a:	4629      	mov	r1, r5
 800492c:	4630      	mov	r0, r6
 800492e:	f7fe fe69 	bl	8003604 <_ZN11stepping_md10Parameters15set_motor_paramERKNS_10MotorParamE>
			MotorParam{
 8004932:	e894 000f 	ldmia.w	r4, {r0, r1, r2, r3}
 8004936:	e885 000f 	stmia.w	r5, {r0, r1, r2, r3}
	parameters[C].set_motor_param(
 800493a:	4629      	mov	r1, r5
 800493c:	a825      	add	r0, sp, #148	; 0x94
 800493e:	f7fe fe61 	bl	8003604 <_ZN11stepping_md10Parameters15set_motor_paramERKNS_10MotorParamE>
	result = HAL_RCC_GetPCLK2Freq();
 8004942:	f000 fef1 	bl	8005728 <HAL_RCC_GetPCLK2Freq>
	if(((RCC->CFGR & RCC_CFGR_PPRE2)>>11) >= 0b100) result *= 2; //APB2/1PCLK22
 8004946:	4f7c      	ldr	r7, [pc, #496]	; (8004b38 <wrapper_cpp+0x270>)
	};
 8004948:	4c7c      	ldr	r4, [pc, #496]	; (8004b3c <wrapper_cpp+0x274>)
	if(((RCC->CFGR & RCC_CFGR_PPRE2)>>11) >= 0b100) result *= 2; //APB2/1PCLK22
 800494a:	687b      	ldr	r3, [r7, #4]
	};
 800494c:	f44f 6100 	mov.w	r1, #2048	; 0x800
	if(((RCC->CFGR & RCC_CFGR_PPRE2)>>11) >= 0b100) result *= 2; //APB2/1PCLK22
 8004950:	049a      	lsls	r2, r3, #18
	};
 8004952:	4a7b      	ldr	r2, [pc, #492]	; (8004b40 <wrapper_cpp+0x278>)
 8004954:	4b7b      	ldr	r3, [pc, #492]	; (8004b44 <wrapper_cpp+0x27c>)
	if(((RCC->CFGR & RCC_CFGR_PPRE2)>>11) >= 0b100) result *= 2; //APB2/1PCLK22
 8004956:	bf48      	it	mi
 8004958:	0040      	lslmi	r0, r0, #1
	};
 800495a:	9200      	str	r2, [sp, #0]
 800495c:	e9cd 6003 	strd	r6, r0, [sp, #12]
 8004960:	9302      	str	r3, [sp, #8]
 8004962:	4628      	mov	r0, r5
 8004964:	f44f 5380 	mov.w	r3, #4096	; 0x1000
 8004968:	9401      	str	r4, [sp, #4]
 800496a:	f7fe fd7f 	bl	800346c <_ZN11stepping_md15MotorControllerC1EtP12GPIO_TypeDeftS2_fP17TIM_HandleTypeDefRNS_10ParametersEm>
	result = HAL_RCC_GetPCLK1Freq();
 800496e:	f000 fecb 	bl	8005708 <HAL_RCC_GetPCLK1Freq>
	if(((RCC->CFGR & RCC_CFGR_PPRE1)>>8) >= 0b100) result *= 2; //APB1/1PCLK12
 8004972:	687b      	ldr	r3, [r7, #4]
	};
 8004974:	4a74      	ldr	r2, [pc, #464]	; (8004b48 <wrapper_cpp+0x280>)
	if(((RCC->CFGR & RCC_CFGR_PPRE1)>>8) >= 0b100) result *= 2; //APB1/1PCLK12
 8004976:	055b      	lsls	r3, r3, #21
	};
 8004978:	ab25      	add	r3, sp, #148	; 0x94
 800497a:	9303      	str	r3, [sp, #12]
 800497c:	4b73      	ldr	r3, [pc, #460]	; (8004b4c <wrapper_cpp+0x284>)
	if(((RCC->CFGR & RCC_CFGR_PPRE1)>>8) >= 0b100) result *= 2; //APB1/1PCLK12
 800497e:	bf48      	it	mi
 8004980:	0040      	lslmi	r0, r0, #1
	};
 8004982:	f44f 5100 	mov.w	r1, #8192	; 0x2000
 8004986:	9004      	str	r0, [sp, #16]
 8004988:	9302      	str	r3, [sp, #8]
 800498a:	9200      	str	r2, [sp, #0]
 800498c:	f44f 4380 	mov.w	r3, #16384	; 0x4000
 8004990:	9401      	str	r4, [sp, #4]
 8004992:	a859      	add	r0, sp, #356	; 0x164
	};
 8004994:	af2a      	add	r7, sp, #168	; 0xa8
	};
 8004996:	f7fe fd69 	bl	800346c <_ZN11stepping_md15MotorControllerC1EtP12GPIO_TypeDeftS2_fP17TIM_HandleTypeDefRNS_10ParametersEm>
	};
 800499a:	2300      	movs	r3, #0
 800499c:	4632      	mov	r2, r6
 800499e:	4638      	mov	r0, r7
 80049a0:	a911      	add	r1, sp, #68	; 0x44
 80049a2:	f7fe fbe3 	bl	800316c <_ZN11stepping_md13CanControllerC1ERN6CRSLib3Can6RM000810CanManagerERNS_10ParametersEm>
 80049a6:	e00d      	b.n	80049c4 <wrapper_cpp+0xfc>
 80049a8:	2401      	movs	r4, #1
 80049aa:	2338      	movs	r3, #56	; 0x38
 80049ac:	f1c4 0401 	rsb	r4, r4, #1
 80049b0:	fb03 7404 	mla	r4, r3, r4, r7
 80049b4:	42bc      	cmp	r4, r7
 80049b6:	f000 80b2 	beq.w	8004b1e <wrapper_cpp+0x256>
 80049ba:	3c1c      	subs	r4, #28
 80049bc:	1d20      	adds	r0, r4, #4
 80049be:	f7ff fc5f 	bl	8004280 <_ZNSt14_Function_baseD1Ev>
	class CanController{
 80049c2:	e7f7      	b.n	80049b4 <wrapper_cpp+0xec>
 80049c4:	2301      	movs	r3, #1
 80049c6:	4632      	mov	r2, r6
 80049c8:	a911      	add	r1, sp, #68	; 0x44
 80049ca:	a831      	add	r0, sp, #196	; 0xc4
 80049cc:	f7fe fbce 	bl	800316c <_ZN11stepping_md13CanControllerC1ERN6CRSLib3Can6RM000810CanManagerERNS_10ParametersEm>
 80049d0:	e000      	b.n	80049d4 <wrapper_cpp+0x10c>
 80049d2:	e7e9      	b.n	80049a8 <wrapper_cpp+0xe0>
 80049d4:	2300      	movs	r3, #0
 80049d6:	aa25      	add	r2, sp, #148	; 0x94
 80049d8:	a911      	add	r1, sp, #68	; 0x44
 80049da:	a838      	add	r0, sp, #224	; 0xe0
 80049dc:	f7fe fbc6 	bl	800316c <_ZN11stepping_md13CanControllerC1ERN6CRSLib3Can6RM000810CanManagerERNS_10ParametersEm>
 80049e0:	2301      	movs	r3, #1
 80049e2:	aa25      	add	r2, sp, #148	; 0x94
 80049e4:	a911      	add	r1, sp, #68	; 0x44
 80049e6:	a83f      	add	r0, sp, #252	; 0xfc
 80049e8:	f7fe fbc0 	bl	800316c <_ZN11stepping_md13CanControllerC1ERN6CRSLib3Can6RM000810CanManagerERNS_10ParametersEm>
 80049ec:	e001      	b.n	80049f2 <wrapper_cpp+0x12a>
 80049ee:	2400      	movs	r4, #0
 80049f0:	e7db      	b.n	80049aa <wrapper_cpp+0xe2>
	inline void dynamic_initialize() noexcept
	{
		[]<u8 ... indices>(std::integer_sequence<u8, indices ...>)
		{
			constexpr FrameFeature<FilterWidth::bit32> null_feature{.std_id = max_std_id, .ext_id = max_ext_id};
			auto null_filter_arg = ConfigFilterArg<FilterWidth::bit32, FilterMode::list>{{null_feature, null_feature}, FifoIndex::fifo0};
 80049f2:	ac1b      	add	r4, sp, #108	; 0x6c
 80049f4:	46a4      	mov	ip, r4
 80049f6:	f8df e158 	ldr.w	lr, [pc, #344]	; 8004b50 <wrapper_cpp+0x288>
 80049fa:	e8be 000f 	ldmia.w	lr!, {r0, r1, r2, r3}
 80049fe:	e8ac 000f 	stmia.w	ip!, {r0, r1, r2, r3}
 8004a02:	f8de 3000 	ldr.w	r3, [lr]
			config_filter_bank(Config::filter_bank_total_size, static_cast<decltype(null_filter_arg)&>(static_cast<void>(indices), null_filter_arg)...);
 8004a06:	4622      	mov	r2, r4
			auto null_filter_arg = ConfigFilterArg<FilterWidth::bit32, FilterMode::list>{{null_feature, null_feature}, FifoIndex::fifo0};
 8004a08:	f8cc 3000 	str.w	r3, [ip]
			config_filter_bank(Config::filter_bank_total_size, static_cast<decltype(null_filter_arg)&>(static_cast<void>(indices), null_filter_arg)...);
 8004a0c:	4621      	mov	r1, r4
 8004a0e:	4623      	mov	r3, r4
 8004a10:	200e      	movs	r0, #14
 8004a12:	e9cd 4409 	strd	r4, r4, [sp, #36]	; 0x24
 8004a16:	e9cd 4407 	strd	r4, r4, [sp, #28]
 8004a1a:	e9cd 4405 	strd	r4, r4, [sp, #20]
 8004a1e:	e9cd 4403 	strd	r4, r4, [sp, #12]
 8004a22:	e9cd 4401 	strd	r4, r4, [sp, #4]
 8004a26:	9400      	str	r4, [sp, #0]
 8004a28:	f7fd fd84 	bl	8002534 <_ZN6CRSLib3Can6RM000813FilterManager18config_filter_bankIJLNS0_11FilterWidthE0ELS4_0ELS4_0ELS4_0ELS4_0ELS4_0ELS4_0ELS4_0ELS4_0ELS4_0ELS4_0ELS4_0ELS4_0ELS4_0EEJLNS0_10FilterModeE1ELS5_1ELS5_1ELS5_1ELS5_1ELS5_1ELS5_1ELS5_1ELS5_1ELS5_1ELS5_1ELS5_1ELS5_1ELS5_1EEEEvhDpRNS2_15ConfigFilterArgIXT_EXT0_EEE>
	ConfigFilterArg<FilterWidth::bit32, FilterMode::mask> filterA{
 8004a2c:	2214      	movs	r2, #20
 8004a2e:	2100      	movs	r1, #0
 8004a30:	a816      	add	r0, sp, #88	; 0x58
 8004a32:	f002 f953 	bl	8006cdc <memset>
 8004a36:	4b47      	ldr	r3, [pc, #284]	; (8004b54 <wrapper_cpp+0x28c>)
	};
 8004a38:	4630      	mov	r0, r6
	ConfigFilterArg<FilterWidth::bit32, FilterMode::mask> filterA{
 8004a3a:	9317      	str	r3, [sp, #92]	; 0x5c
 8004a3c:	2301      	movs	r3, #1
 8004a3e:	f88d 3068 	strb.w	r3, [sp, #104]	; 0x68
	};
 8004a42:	f7fe fde5 	bl	8003610 <_ZN11stepping_md10Parameters7get_BIDEv>
			bool rtr;
		};

		constexpr FrameFeature(const u16 std_id = max_std_id, const u32 ext_id = max_ext_id, const bool ide = false, const bool rtr = false) noexcept:
			//value{(u16)(std_id << (u16)21 | ext_id << (u32)3 | (u8)ide << 2 | (u8)rtr << 1)}
			value{(u32)(std_id << (u16)21 | ext_id << (u32)3 | (u8)ide << 2 | (u8)rtr << 1)}
 8004a46:	0540      	lsls	r0, r0, #21
 8004a48:	9016      	str	r0, [sp, #88]	; 0x58
	ConfigFilterArg<FilterWidth::bit32, FilterMode::mask> filterC{
 8004a4a:	2214      	movs	r2, #20
 8004a4c:	2100      	movs	r1, #0
 8004a4e:	4620      	mov	r0, r4
 8004a50:	f002 f944 	bl	8006cdc <memset>
 8004a54:	4b3f      	ldr	r3, [pc, #252]	; (8004b54 <wrapper_cpp+0x28c>)
	};
 8004a56:	a825      	add	r0, sp, #148	; 0x94
	ConfigFilterArg<FilterWidth::bit32, FilterMode::mask> filterC{
 8004a58:	6063      	str	r3, [r4, #4]
 8004a5a:	2301      	movs	r3, #1
 8004a5c:	7423      	strb	r3, [r4, #16]
	};
 8004a5e:	f7fe fdd7 	bl	8003610 <_ZN11stepping_md10Parameters7get_BIDEv>
 8004a62:	0540      	lsls	r0, r0, #21
 8004a64:	6020      	str	r0, [r4, #0]
		config_filter_bank(28, filter_args ...);
 8004a66:	a916      	add	r1, sp, #88	; 0x58
 8004a68:	201c      	movs	r0, #28
 8004a6a:	4622      	mov	r2, r4
 8004a6c:	f7ff fea2 	bl	80047b4 <_ZN6CRSLib3Can6RM000813FilterManager18config_filter_bankIJLNS0_11FilterWidthE0ELS4_0EEJLNS0_10FilterModeE0ELS5_0EEEEvhDpRNS2_15ConfigFilterArgIXT_EXT0_EEE>
	    _M_invoker = &_My_handler::_M_invoke;
 8004a70:	4b39      	ldr	r3, [pc, #228]	; (8004b58 <wrapper_cpp+0x290>)
	cancontrollers[A][cmd].set_callback<uint8_t>(
 8004a72:	4638      	mov	r0, r7
 8004a74:	9310      	str	r3, [sp, #64]	; 0x40
	    _M_manager = &_My_handler::_M_manager;
 8004a76:	4b39      	ldr	r3, [pc, #228]	; (8004b5c <wrapper_cpp+0x294>)
 8004a78:	a90d      	add	r1, sp, #52	; 0x34
 8004a7a:	e9cd 650d 	strd	r6, r5, [sp, #52]	; 0x34
 8004a7e:	930f      	str	r3, [sp, #60]	; 0x3c
 8004a80:	f7ff fcac 	bl	80043dc <_ZN11stepping_md13CanController12set_callbackIhEEvSt8functionIFiT_mEE>
    class function<_Res(_ArgTypes...)>
 8004a84:	a80d      	add	r0, sp, #52	; 0x34
 8004a86:	f7ff fbfb 	bl	8004280 <_ZNSt14_Function_baseD1Ev>
	    _M_invoker = &_My_handler::_M_invoke;
 8004a8a:	4b35      	ldr	r3, [pc, #212]	; (8004b60 <wrapper_cpp+0x298>)
	cancontrollers[C][cmd].set_callback<uint8_t>(
 8004a8c:	a90d      	add	r1, sp, #52	; 0x34
 8004a8e:	9310      	str	r3, [sp, #64]	; 0x40
	    _M_manager = &_My_handler::_M_manager;
 8004a90:	4b34      	ldr	r3, [pc, #208]	; (8004b64 <wrapper_cpp+0x29c>)
 8004a92:	a838      	add	r0, sp, #224	; 0xe0
 8004a94:	e9cd 650d 	strd	r6, r5, [sp, #52]	; 0x34
 8004a98:	930f      	str	r3, [sp, #60]	; 0x3c
 8004a9a:	f7ff fc9f 	bl	80043dc <_ZN11stepping_md13CanController12set_callbackIhEEvSt8functionIFiT_mEE>
    class function<_Res(_ArgTypes...)>
 8004a9e:	a80d      	add	r0, sp, #52	; 0x34
 8004aa0:	f7ff fbee 	bl	8004280 <_ZNSt14_Function_baseD1Ev>
	    _M_invoker = &_My_handler::_M_invoke;
 8004aa4:	4b30      	ldr	r3, [pc, #192]	; (8004b68 <wrapper_cpp+0x2a0>)
	cancontrollers[A][target].set_callback<float>(
 8004aa6:	a90d      	add	r1, sp, #52	; 0x34
 8004aa8:	9310      	str	r3, [sp, #64]	; 0x40
	    _M_manager = &_My_handler::_M_manager;
 8004aaa:	4b30      	ldr	r3, [pc, #192]	; (8004b6c <wrapper_cpp+0x2a4>)
 8004aac:	a831      	add	r0, sp, #196	; 0xc4
 8004aae:	960d      	str	r6, [sp, #52]	; 0x34
 8004ab0:	930f      	str	r3, [sp, #60]	; 0x3c
 8004ab2:	f7ff fcd9 	bl	8004468 <_ZN11stepping_md13CanController12set_callbackIfEEvSt8functionIFiT_mEE>
    class function<_Res(_ArgTypes...)>
 8004ab6:	a80d      	add	r0, sp, #52	; 0x34
 8004ab8:	f7ff fbe2 	bl	8004280 <_ZNSt14_Function_baseD1Ev>
	    _M_invoker = &_My_handler::_M_invoke;
 8004abc:	4b2c      	ldr	r3, [pc, #176]	; (8004b70 <wrapper_cpp+0x2a8>)
	cancontrollers[C][target].set_callback<float>(
 8004abe:	a90d      	add	r1, sp, #52	; 0x34
 8004ac0:	9310      	str	r3, [sp, #64]	; 0x40
	    _M_manager = &_My_handler::_M_manager;
 8004ac2:	4b2c      	ldr	r3, [pc, #176]	; (8004b74 <wrapper_cpp+0x2ac>)
 8004ac4:	a83f      	add	r0, sp, #252	; 0xfc
 8004ac6:	960d      	str	r6, [sp, #52]	; 0x34
 8004ac8:	930f      	str	r3, [sp, #60]	; 0x3c
 8004aca:	f7ff fccd 	bl	8004468 <_ZN11stepping_md13CanController12set_callbackIfEEvSt8functionIFiT_mEE>
    class function<_Res(_ArgTypes...)>
 8004ace:	a80d      	add	r0, sp, #52	; 0x34
 8004ad0:	f7ff fbd6 	bl	8004280 <_ZNSt14_Function_baseD1Ev>
	HAL_CAN_Start(&hcan);
 8004ad4:	4815      	ldr	r0, [pc, #84]	; (8004b2c <wrapper_cpp+0x264>)
 8004ad6:	f000 f93a 	bl	8004d4e <HAL_CAN_Start>
	if(IS_EMERGENCY()) error_request_flag = true;
 8004ada:	f44f 6180 	mov.w	r1, #1024	; 0x400
 8004ade:	481a      	ldr	r0, [pc, #104]	; (8004b48 <wrapper_cpp+0x280>)
 8004ae0:	f000 fb88 	bl	80051f4 <HAL_GPIO_ReadPin>
 8004ae4:	4c24      	ldr	r4, [pc, #144]	; (8004b78 <wrapper_cpp+0x2b0>)
 8004ae6:	b908      	cbnz	r0, 8004aec <wrapper_cpp+0x224>
 8004ae8:	2301      	movs	r3, #1
 8004aea:	7023      	strb	r3, [r4, #0]
			error_request_flag = false;
 8004aec:	2600      	movs	r6, #0
		if(error_request_flag){
 8004aee:	7823      	ldrb	r3, [r4, #0]
 8004af0:	b123      	cbz	r3, 8004afc <wrapper_cpp+0x234>
			Parameters::trigger_emergency_callback();
 8004af2:	f7fe fd91 	bl	8003618 <_ZN11stepping_md10Parameters26trigger_emergency_callbackEv>
			led_mgr::disable_all_motor();
 8004af6:	f7ff f841 	bl	8003b7c <_ZN11stepping_md7led_mgr17disable_all_motorEv>
			error_request_flag = false;
 8004afa:	7026      	strb	r6, [r4, #0]
		CanController::trigger_update();
 8004afc:	f7fe fc6c 	bl	80033d8 <_ZN11stepping_md13CanController14trigger_updateEv>
		MotorController::trigger_update();
 8004b00:	f7fe fd40 	bl	8003584 <_ZN11stepping_md15MotorController14trigger_updateEv>
		led_mgr::led_process();
 8004b04:	f7fe ff62 	bl	80039cc <_ZN11stepping_md7led_mgr11led_processEv>
 8004b08:	e7f1      	b.n	8004aee <wrapper_cpp+0x226>
 8004b0a:	e770      	b.n	80049ee <wrapper_cpp+0x126>
 8004b0c:	a80d      	add	r0, sp, #52	; 0x34
 8004b0e:	f7ff fbb7 	bl	8004280 <_ZNSt14_Function_baseD1Ev>
	};
 8004b12:	3d1c      	subs	r5, #28
 8004b14:	1d28      	adds	r0, r5, #4
 8004b16:	f7ff fbb3 	bl	8004280 <_ZNSt14_Function_baseD1Ev>
 8004b1a:	42bd      	cmp	r5, r7
 8004b1c:	d1f9      	bne.n	8004b12 <wrapper_cpp+0x24a>
 8004b1e:	f001 f99b 	bl	8005e58 <__cxa_end_cleanup>
 8004b22:	e7f3      	b.n	8004b0c <wrapper_cpp+0x244>
 8004b24:	e7f2      	b.n	8004b0c <wrapper_cpp+0x244>
 8004b26:	e7f1      	b.n	8004b0c <wrapper_cpp+0x244>
 8004b28:	e7f3      	b.n	8004b12 <wrapper_cpp+0x24a>
 8004b2a:	bf00      	nop
 8004b2c:	2000036c 	.word	0x2000036c
 8004b30:	20000348 	.word	0x20000348
 8004b34:	08006f8c 	.word	0x08006f8c
 8004b38:	40021000 	.word	0x40021000
 8004b3c:	3db2b8c2 	.word	0x3db2b8c2
 8004b40:	40010800 	.word	0x40010800
 8004b44:	20000394 	.word	0x20000394
 8004b48:	40010c00 	.word	0x40010c00
 8004b4c:	200003dc 	.word	0x200003dc
 8004b50:	08006f9c 	.word	0x08006f9c
 8004b54:	ff9ffffe 	.word	0xff9ffffe
 8004b58:	08004171 	.word	0x08004171
 8004b5c:	08004231 	.word	0x08004231
 8004b60:	08004181 	.word	0x08004181
 8004b64:	08004209 	.word	0x08004209
 8004b68:	080040c9 	.word	0x080040c9
 8004b6c:	080041e9 	.word	0x080041e9
 8004b70:	080040d9 	.word	0x080040d9
 8004b74:	080041c9 	.word	0x080041c9
 8004b78:	20000428 	.word	0x20000428

08004b7c <Reset_Handler>:
 8004b7c:	480c      	ldr	r0, [pc, #48]	; (8004bb0 <LoopFillZerobss+0x12>)
 8004b7e:	490d      	ldr	r1, [pc, #52]	; (8004bb4 <LoopFillZerobss+0x16>)
 8004b80:	4a0d      	ldr	r2, [pc, #52]	; (8004bb8 <LoopFillZerobss+0x1a>)
 8004b82:	2300      	movs	r3, #0
 8004b84:	e002      	b.n	8004b8c <LoopCopyDataInit>

08004b86 <CopyDataInit>:
 8004b86:	58d4      	ldr	r4, [r2, r3]
 8004b88:	50c4      	str	r4, [r0, r3]
 8004b8a:	3304      	adds	r3, #4

08004b8c <LoopCopyDataInit>:
 8004b8c:	18c4      	adds	r4, r0, r3
 8004b8e:	428c      	cmp	r4, r1
 8004b90:	d3f9      	bcc.n	8004b86 <CopyDataInit>
 8004b92:	4a0a      	ldr	r2, [pc, #40]	; (8004bbc <LoopFillZerobss+0x1e>)
 8004b94:	4c0a      	ldr	r4, [pc, #40]	; (8004bc0 <LoopFillZerobss+0x22>)
 8004b96:	2300      	movs	r3, #0
 8004b98:	e001      	b.n	8004b9e <LoopFillZerobss>

08004b9a <FillZerobss>:
 8004b9a:	6013      	str	r3, [r2, #0]
 8004b9c:	3204      	adds	r2, #4

08004b9e <LoopFillZerobss>:
 8004b9e:	42a2      	cmp	r2, r4
 8004ba0:	d3fb      	bcc.n	8004b9a <FillZerobss>
 8004ba2:	f7ff fa73 	bl	800408c <SystemInit>
 8004ba6:	f002 f83d 	bl	8006c24 <__libc_init_array>
 8004baa:	f7ff f81d 	bl	8003be8 <main>
 8004bae:	4770      	bx	lr
 8004bb0:	20000000 	.word	0x20000000
 8004bb4:	2000007c 	.word	0x2000007c
 8004bb8:	08007a44 	.word	0x08007a44
 8004bbc:	2000007c 	.word	0x2000007c
 8004bc0:	20000450 	.word	0x20000450

08004bc4 <ADC1_2_IRQHandler>:
 8004bc4:	e7fe      	b.n	8004bc4 <ADC1_2_IRQHandler>
	...

08004bc8 <HAL_InitTick>:
  *       implementation  in user file.
  * @param TickPriority Tick interrupt priority.
  * @retval HAL status
  */
__weak HAL_StatusTypeDef HAL_InitTick(uint32_t TickPriority)
{
 8004bc8:	b538      	push	{r3, r4, r5, lr}
  /* Configure the SysTick to have interrupt in 1ms time basis*/
  if (HAL_SYSTICK_Config(SystemCoreClock / (1000U / uwTickFreq)) > 0U)
 8004bca:	4b0e      	ldr	r3, [pc, #56]	; (8004c04 <HAL_InitTick+0x3c>)
{
 8004bcc:	4605      	mov	r5, r0
  if (HAL_SYSTICK_Config(SystemCoreClock / (1000U / uwTickFreq)) > 0U)
 8004bce:	7818      	ldrb	r0, [r3, #0]
 8004bd0:	f44f 737a 	mov.w	r3, #1000	; 0x3e8
 8004bd4:	fbb3 f3f0 	udiv	r3, r3, r0
 8004bd8:	4a0b      	ldr	r2, [pc, #44]	; (8004c08 <HAL_InitTick+0x40>)
 8004bda:	6810      	ldr	r0, [r2, #0]
 8004bdc:	fbb0 f0f3 	udiv	r0, r0, r3
 8004be0:	f000 fa1e 	bl	8005020 <HAL_SYSTICK_Config>
 8004be4:	4604      	mov	r4, r0
 8004be6:	b958      	cbnz	r0, 8004c00 <HAL_InitTick+0x38>
  {
    return HAL_ERROR;
  }

  /* Configure the SysTick IRQ priority */
  if (TickPriority < (1UL << __NVIC_PRIO_BITS))
 8004be8:	2d0f      	cmp	r5, #15
 8004bea:	d809      	bhi.n	8004c00 <HAL_InitTick+0x38>
  {
    HAL_NVIC_SetPriority(SysTick_IRQn, TickPriority, 0U);
 8004bec:	4602      	mov	r2, r0
 8004bee:	4629      	mov	r1, r5
 8004bf0:	f04f 30ff 	mov.w	r0, #4294967295
 8004bf4:	f000 f9d4 	bl	8004fa0 <HAL_NVIC_SetPriority>
    uwTickPrio = TickPriority;
 8004bf8:	4620      	mov	r0, r4
 8004bfa:	4b04      	ldr	r3, [pc, #16]	; (8004c0c <HAL_InitTick+0x44>)
 8004bfc:	601d      	str	r5, [r3, #0]
    return HAL_ERROR;
  }

  /* Return function status */
  return HAL_OK;
}
 8004bfe:	bd38      	pop	{r3, r4, r5, pc}
    return HAL_ERROR;
 8004c00:	2001      	movs	r0, #1
 8004c02:	e7fc      	b.n	8004bfe <HAL_InitTick+0x36>
 8004c04:	20000008 	.word	0x20000008
 8004c08:	20000004 	.word	0x20000004
 8004c0c:	2000000c 	.word	0x2000000c

08004c10 <HAL_Init>:
  __HAL_FLASH_PREFETCH_BUFFER_ENABLE();
 8004c10:	4a07      	ldr	r2, [pc, #28]	; (8004c30 <HAL_Init+0x20>)
{
 8004c12:	b508      	push	{r3, lr}
  __HAL_FLASH_PREFETCH_BUFFER_ENABLE();
 8004c14:	6813      	ldr	r3, [r2, #0]
  HAL_NVIC_SetPriorityGrouping(NVIC_PRIORITYGROUP_4);
 8004c16:	2003      	movs	r0, #3
  __HAL_FLASH_PREFETCH_BUFFER_ENABLE();
 8004c18:	f043 0310 	orr.w	r3, r3, #16
 8004c1c:	6013      	str	r3, [r2, #0]
  HAL_NVIC_SetPriorityGrouping(NVIC_PRIORITYGROUP_4);
 8004c1e:	f000 f9ad 	bl	8004f7c <HAL_NVIC_SetPriorityGrouping>
  HAL_InitTick(TICK_INT_PRIORITY);
 8004c22:	200f      	movs	r0, #15
 8004c24:	f7ff ffd0 	bl	8004bc8 <HAL_InitTick>
  HAL_MspInit();
 8004c28:	f7ff f930 	bl	8003e8c <HAL_MspInit>
}
 8004c2c:	2000      	movs	r0, #0
 8004c2e:	bd08      	pop	{r3, pc}
 8004c30:	40022000 	.word	0x40022000

08004c34 <HAL_IncTick>:
  *      implementations in user file.
  * @retval None
  */
__weak void HAL_IncTick(void)
{
  uwTick += uwTickFreq;
 8004c34:	4a03      	ldr	r2, [pc, #12]	; (8004c44 <HAL_IncTick+0x10>)
 8004c36:	4b04      	ldr	r3, [pc, #16]	; (8004c48 <HAL_IncTick+0x14>)
 8004c38:	6811      	ldr	r1, [r2, #0]
 8004c3a:	781b      	ldrb	r3, [r3, #0]
 8004c3c:	440b      	add	r3, r1
 8004c3e:	6013      	str	r3, [r2, #0]
}
 8004c40:	4770      	bx	lr
 8004c42:	bf00      	nop
 8004c44:	2000042c 	.word	0x2000042c
 8004c48:	20000008 	.word	0x20000008

08004c4c <HAL_GetTick>:
  *       implementations in user file.
  * @retval tick value
  */
__weak uint32_t HAL_GetTick(void)
{
  return uwTick;
 8004c4c:	4b01      	ldr	r3, [pc, #4]	; (8004c54 <HAL_GetTick+0x8>)
 8004c4e:	6818      	ldr	r0, [r3, #0]
}
 8004c50:	4770      	bx	lr
 8004c52:	bf00      	nop
 8004c54:	2000042c 	.word	0x2000042c

08004c58 <HAL_CAN_Init>:
  * @param  hcan pointer to a CAN_HandleTypeDef structure that contains
  *         the configuration information for the specified CAN.
  * @retval HAL status
  */
HAL_StatusTypeDef HAL_CAN_Init(CAN_HandleTypeDef *hcan)
{
 8004c58:	b538      	push	{r3, r4, r5, lr}
  uint32_t tickstart;

  /* Check CAN handle */
  if (hcan == NULL)
 8004c5a:	4604      	mov	r4, r0
 8004c5c:	2800      	cmp	r0, #0
 8004c5e:	d06e      	beq.n	8004d3e <HAL_CAN_Init+0xe6>
    /* Init the low level hardware: CLOCK, NVIC */
    hcan->MspInitCallback(hcan);
  }

#else
  if (hcan->State == HAL_CAN_STATE_RESET)
 8004c60:	f890 3020 	ldrb.w	r3, [r0, #32]
 8004c64:	b90b      	cbnz	r3, 8004c6a <HAL_CAN_Init+0x12>
  {
    /* Init the low level hardware: CLOCK, NVIC */
    HAL_CAN_MspInit(hcan);
 8004c66:	f7ff f933 	bl	8003ed0 <HAL_CAN_MspInit>
  }
#endif /* (USE_HAL_CAN_REGISTER_CALLBACKS) */

  /* Request initialisation */
  SET_BIT(hcan->Instance->MCR, CAN_MCR_INRQ);
 8004c6a:	6822      	ldr	r2, [r4, #0]
 8004c6c:	6813      	ldr	r3, [r2, #0]
 8004c6e:	f043 0301 	orr.w	r3, r3, #1
 8004c72:	6013      	str	r3, [r2, #0]

  /* Get tick */
  tickstart = HAL_GetTick();
 8004c74:	f7ff ffea 	bl	8004c4c <HAL_GetTick>
 8004c78:	4605      	mov	r5, r0

  /* Wait initialisation acknowledge */
  while ((hcan->Instance->MSR & CAN_MSR_INAK) == 0U)
 8004c7a:	6823      	ldr	r3, [r4, #0]
 8004c7c:	685a      	ldr	r2, [r3, #4]
 8004c7e:	07d1      	lsls	r1, r2, #31
 8004c80:	d551      	bpl.n	8004d26 <HAL_CAN_Init+0xce>
      return HAL_ERROR;
    }
  }

  /* Exit from sleep mode */
  CLEAR_BIT(hcan->Instance->MCR, CAN_MCR_SLEEP);
 8004c82:	681a      	ldr	r2, [r3, #0]
 8004c84:	f022 0202 	bic.w	r2, r2, #2
 8004c88:	601a      	str	r2, [r3, #0]

  /* Get tick */
  tickstart = HAL_GetTick();
 8004c8a:	f7ff ffdf 	bl	8004c4c <HAL_GetTick>
 8004c8e:	4605      	mov	r5, r0

  /* Check Sleep mode leave acknowledge */
  while ((hcan->Instance->MSR & CAN_MSR_SLAK) != 0U)
 8004c90:	6823      	ldr	r3, [r4, #0]
 8004c92:	685a      	ldr	r2, [r3, #4]
 8004c94:	0792      	lsls	r2, r2, #30
 8004c96:	d454      	bmi.n	8004d42 <HAL_CAN_Init+0xea>
      return HAL_ERROR;
    }
  }

  /* Set the time triggered communication mode */
  if (hcan->Init.TimeTriggeredMode == ENABLE)
 8004c98:	7e22      	ldrb	r2, [r4, #24]
                                            hcan->Init.TimeSeg1       |
                                            hcan->Init.TimeSeg2       |
                                            (hcan->Init.Prescaler - 1U)));

  /* Initialize the error code */
  hcan->ErrorCode = HAL_CAN_ERROR_NONE;
 8004c9a:	2000      	movs	r0, #0
  if (hcan->Init.TimeTriggeredMode == ENABLE)
 8004c9c:	2a01      	cmp	r2, #1
    SET_BIT(hcan->Instance->MCR, CAN_MCR_TTCM);
 8004c9e:	681a      	ldr	r2, [r3, #0]
 8004ca0:	bf0c      	ite	eq
 8004ca2:	f042 0280 	orreq.w	r2, r2, #128	; 0x80
    CLEAR_BIT(hcan->Instance->MCR, CAN_MCR_TTCM);
 8004ca6:	f022 0280 	bicne.w	r2, r2, #128	; 0x80
 8004caa:	601a      	str	r2, [r3, #0]
  if (hcan->Init.AutoBusOff == ENABLE)
 8004cac:	7e62      	ldrb	r2, [r4, #25]
 8004cae:	2a01      	cmp	r2, #1
    SET_BIT(hcan->Instance->MCR, CAN_MCR_ABOM);
 8004cb0:	681a      	ldr	r2, [r3, #0]
 8004cb2:	bf0c      	ite	eq
 8004cb4:	f042 0240 	orreq.w	r2, r2, #64	; 0x40
    CLEAR_BIT(hcan->Instance->MCR, CAN_MCR_ABOM);
 8004cb8:	f022 0240 	bicne.w	r2, r2, #64	; 0x40
 8004cbc:	601a      	str	r2, [r3, #0]
  if (hcan->Init.AutoWakeUp == ENABLE)
 8004cbe:	7ea2      	ldrb	r2, [r4, #26]
 8004cc0:	2a01      	cmp	r2, #1
    SET_BIT(hcan->Instance->MCR, CAN_MCR_AWUM);
 8004cc2:	681a      	ldr	r2, [r3, #0]
 8004cc4:	bf0c      	ite	eq
 8004cc6:	f042 0220 	orreq.w	r2, r2, #32
    CLEAR_BIT(hcan->Instance->MCR, CAN_MCR_AWUM);
 8004cca:	f022 0220 	bicne.w	r2, r2, #32
 8004cce:	601a      	str	r2, [r3, #0]
  if (hcan->Init.AutoRetransmission == ENABLE)
 8004cd0:	7ee2      	ldrb	r2, [r4, #27]
 8004cd2:	2a01      	cmp	r2, #1
    CLEAR_BIT(hcan->Instance->MCR, CAN_MCR_NART);
 8004cd4:	681a      	ldr	r2, [r3, #0]
 8004cd6:	bf0c      	ite	eq
 8004cd8:	f022 0210 	biceq.w	r2, r2, #16
    SET_BIT(hcan->Instance->MCR, CAN_MCR_NART);
 8004cdc:	f042 0210 	orrne.w	r2, r2, #16
 8004ce0:	601a      	str	r2, [r3, #0]
  if (hcan->Init.ReceiveFifoLocked == ENABLE)
 8004ce2:	7f22      	ldrb	r2, [r4, #28]
 8004ce4:	2a01      	cmp	r2, #1
    SET_BIT(hcan->Instance->MCR, CAN_MCR_RFLM);
 8004ce6:	681a      	ldr	r2, [r3, #0]
 8004ce8:	bf0c      	ite	eq
 8004cea:	f042 0208 	orreq.w	r2, r2, #8
    CLEAR_BIT(hcan->Instance->MCR, CAN_MCR_RFLM);
 8004cee:	f022 0208 	bicne.w	r2, r2, #8
 8004cf2:	601a      	str	r2, [r3, #0]
  if (hcan->Init.TransmitFifoPriority == ENABLE)
 8004cf4:	7f62      	ldrb	r2, [r4, #29]
 8004cf6:	2a01      	cmp	r2, #1
    SET_BIT(hcan->Instance->MCR, CAN_MCR_TXFP);
 8004cf8:	681a      	ldr	r2, [r3, #0]
 8004cfa:	bf0c      	ite	eq
 8004cfc:	f042 0204 	orreq.w	r2, r2, #4
    CLEAR_BIT(hcan->Instance->MCR, CAN_MCR_TXFP);
 8004d00:	f022 0204 	bicne.w	r2, r2, #4
 8004d04:	601a      	str	r2, [r3, #0]
  WRITE_REG(hcan->Instance->BTR, (uint32_t)(hcan->Init.Mode           |
 8004d06:	e9d4 2102 	ldrd	r2, r1, [r4, #8]
 8004d0a:	430a      	orrs	r2, r1
 8004d0c:	6921      	ldr	r1, [r4, #16]
 8004d0e:	430a      	orrs	r2, r1
 8004d10:	6961      	ldr	r1, [r4, #20]
 8004d12:	430a      	orrs	r2, r1
 8004d14:	6861      	ldr	r1, [r4, #4]
 8004d16:	3901      	subs	r1, #1
 8004d18:	430a      	orrs	r2, r1
 8004d1a:	61da      	str	r2, [r3, #28]

  /* Initialize the CAN state */
  hcan->State = HAL_CAN_STATE_READY;
 8004d1c:	2301      	movs	r3, #1
  hcan->ErrorCode = HAL_CAN_ERROR_NONE;
 8004d1e:	6260      	str	r0, [r4, #36]	; 0x24
  hcan->State = HAL_CAN_STATE_READY;
 8004d20:	f884 3020 	strb.w	r3, [r4, #32]

  /* Return function status */
  return HAL_OK;
}
 8004d24:	bd38      	pop	{r3, r4, r5, pc}
    if ((HAL_GetTick() - tickstart) > CAN_TIMEOUT_VALUE)
 8004d26:	f7ff ff91 	bl	8004c4c <HAL_GetTick>
 8004d2a:	1b40      	subs	r0, r0, r5
 8004d2c:	280a      	cmp	r0, #10
 8004d2e:	d9a4      	bls.n	8004c7a <HAL_CAN_Init+0x22>
      hcan->ErrorCode |= HAL_CAN_ERROR_TIMEOUT;
 8004d30:	6a63      	ldr	r3, [r4, #36]	; 0x24
 8004d32:	f443 3300 	orr.w	r3, r3, #131072	; 0x20000
 8004d36:	6263      	str	r3, [r4, #36]	; 0x24
      hcan->State = HAL_CAN_STATE_ERROR;
 8004d38:	2305      	movs	r3, #5
 8004d3a:	f884 3020 	strb.w	r3, [r4, #32]
    return HAL_ERROR;
 8004d3e:	2001      	movs	r0, #1
 8004d40:	e7f0      	b.n	8004d24 <HAL_CAN_Init+0xcc>
    if ((HAL_GetTick() - tickstart) > CAN_TIMEOUT_VALUE)
 8004d42:	f7ff ff83 	bl	8004c4c <HAL_GetTick>
 8004d46:	1b40      	subs	r0, r0, r5
 8004d48:	280a      	cmp	r0, #10
 8004d4a:	d9a1      	bls.n	8004c90 <HAL_CAN_Init+0x38>
 8004d4c:	e7f0      	b.n	8004d30 <HAL_CAN_Init+0xd8>

08004d4e <HAL_CAN_Start>:
  * @param  hcan pointer to an CAN_HandleTypeDef structure that contains
  *         the configuration information for the specified CAN.
  * @retval HAL status
  */
HAL_StatusTypeDef HAL_CAN_Start(CAN_HandleTypeDef *hcan)
{
 8004d4e:	b570      	push	{r4, r5, r6, lr}
  uint32_t tickstart;

  if (hcan->State == HAL_CAN_STATE_READY)
 8004d50:	f890 3020 	ldrb.w	r3, [r0, #32]
{
 8004d54:	4604      	mov	r4, r0
  if (hcan->State == HAL_CAN_STATE_READY)
 8004d56:	2b01      	cmp	r3, #1
 8004d58:	b2dd      	uxtb	r5, r3
 8004d5a:	d120      	bne.n	8004d9e <HAL_CAN_Start+0x50>
  {
    /* Change CAN peripheral state */
    hcan->State = HAL_CAN_STATE_LISTENING;
 8004d5c:	2302      	movs	r3, #2

    /* Request leave initialisation */
    CLEAR_BIT(hcan->Instance->MCR, CAN_MCR_INRQ);
 8004d5e:	6802      	ldr	r2, [r0, #0]
    hcan->State = HAL_CAN_STATE_LISTENING;
 8004d60:	f880 3020 	strb.w	r3, [r0, #32]
    CLEAR_BIT(hcan->Instance->MCR, CAN_MCR_INRQ);
 8004d64:	6813      	ldr	r3, [r2, #0]
 8004d66:	f023 0301 	bic.w	r3, r3, #1
 8004d6a:	6013      	str	r3, [r2, #0]

    /* Get tick */
    tickstart = HAL_GetTick();
 8004d6c:	f7ff ff6e 	bl	8004c4c <HAL_GetTick>
 8004d70:	4606      	mov	r6, r0

    /* Wait the acknowledge */
    while ((hcan->Instance->MSR & CAN_MSR_INAK) != 0U)
 8004d72:	6823      	ldr	r3, [r4, #0]
 8004d74:	685b      	ldr	r3, [r3, #4]
 8004d76:	f013 0301 	ands.w	r3, r3, #1
 8004d7a:	d102      	bne.n	8004d82 <HAL_CAN_Start+0x34>

    /* Reset the CAN ErrorCode */
    hcan->ErrorCode = HAL_CAN_ERROR_NONE;

    /* Return function status */
    return HAL_OK;
 8004d7c:	461d      	mov	r5, r3
    hcan->ErrorCode = HAL_CAN_ERROR_NONE;
 8004d7e:	6263      	str	r3, [r4, #36]	; 0x24
    return HAL_OK;
 8004d80:	e00b      	b.n	8004d9a <HAL_CAN_Start+0x4c>
      if ((HAL_GetTick() - tickstart) > CAN_TIMEOUT_VALUE)
 8004d82:	f7ff ff63 	bl	8004c4c <HAL_GetTick>
 8004d86:	1b80      	subs	r0, r0, r6
 8004d88:	280a      	cmp	r0, #10
 8004d8a:	d9f2      	bls.n	8004d72 <HAL_CAN_Start+0x24>
        hcan->ErrorCode |= HAL_CAN_ERROR_TIMEOUT;
 8004d8c:	6a63      	ldr	r3, [r4, #36]	; 0x24
 8004d8e:	f443 3300 	orr.w	r3, r3, #131072	; 0x20000
 8004d92:	6263      	str	r3, [r4, #36]	; 0x24
        hcan->State = HAL_CAN_STATE_ERROR;
 8004d94:	2305      	movs	r3, #5
 8004d96:	f884 3020 	strb.w	r3, [r4, #32]
    /* Update error code */
    hcan->ErrorCode |= HAL_CAN_ERROR_NOT_READY;

    return HAL_ERROR;
  }
}
 8004d9a:	4628      	mov	r0, r5
 8004d9c:	bd70      	pop	{r4, r5, r6, pc}
    hcan->ErrorCode |= HAL_CAN_ERROR_NOT_READY;
 8004d9e:	6a43      	ldr	r3, [r0, #36]	; 0x24
    return HAL_ERROR;
 8004da0:	2501      	movs	r5, #1
    hcan->ErrorCode |= HAL_CAN_ERROR_NOT_READY;
 8004da2:	f443 2300 	orr.w	r3, r3, #524288	; 0x80000
 8004da6:	6243      	str	r3, [r0, #36]	; 0x24
    return HAL_ERROR;
 8004da8:	e7f7      	b.n	8004d9a <HAL_CAN_Start+0x4c>

08004daa <HAL_CAN_AddTxMessage>:
  *         the TxMailbox used to store the Tx message.
  *         This parameter can be a value of @arg CAN_Tx_Mailboxes.
  * @retval HAL status
  */
HAL_StatusTypeDef HAL_CAN_AddTxMessage(CAN_HandleTypeDef *hcan, CAN_TxHeaderTypeDef *pHeader, uint8_t aData[], uint32_t *pTxMailbox)
{
 8004daa:	b5f0      	push	{r4, r5, r6, r7, lr}
  uint32_t transmitmailbox;
  HAL_CAN_StateTypeDef state = hcan->State;
 8004dac:	f890 5020 	ldrb.w	r5, [r0, #32]
  uint32_t tsr = READ_REG(hcan->Instance->TSR);
 8004db0:	6806      	ldr	r6, [r0, #0]
  {
    assert_param(IS_CAN_EXTID(pHeader->ExtId));
  }
  assert_param(IS_FUNCTIONAL_STATE(pHeader->TransmitGlobalTime));

  if ((state == HAL_CAN_STATE_READY) ||
 8004db2:	3d01      	subs	r5, #1
 8004db4:	2d01      	cmp	r5, #1
  uint32_t tsr = READ_REG(hcan->Instance->TSR);
 8004db6:	68b4      	ldr	r4, [r6, #8]
  if ((state == HAL_CAN_STATE_READY) ||
 8004db8:	d841      	bhi.n	8004e3e <HAL_CAN_AddTxMessage+0x94>
      (state == HAL_CAN_STATE_LISTENING))
  {
    /* Check that all the Tx mailboxes are not full */
    if (((tsr & CAN_TSR_TME0) != 0U) ||
 8004dba:	f014 5fe0 	tst.w	r4, #469762048	; 0x1c000000
 8004dbe:	d03a      	beq.n	8004e36 <HAL_CAN_AddTxMessage+0x8c>
        ((tsr & CAN_TSR_TME1) != 0U) ||
        ((tsr & CAN_TSR_TME2) != 0U))
    {
      /* Select an empty transmit mailbox */
      transmitmailbox = (tsr & CAN_TSR_CODE) >> CAN_TSR_CODE_Pos;
 8004dc0:	f3c4 6401 	ubfx	r4, r4, #24, #2

      /* Check transmit mailbox value */
      if (transmitmailbox > 2U)
 8004dc4:	2c03      	cmp	r4, #3
 8004dc6:	f04f 0501 	mov.w	r5, #1
 8004dca:	d105      	bne.n	8004dd8 <HAL_CAN_AddTxMessage+0x2e>
      {
        /* Update error code */
        hcan->ErrorCode |= HAL_CAN_ERROR_INTERNAL;
 8004dcc:	6a43      	ldr	r3, [r0, #36]	; 0x24
 8004dce:	f443 0300 	orr.w	r3, r3, #8388608	; 0x800000
    }
  }
  else
  {
    /* Update error code */
    hcan->ErrorCode |= HAL_CAN_ERROR_NOT_INITIALIZED;
 8004dd2:	6243      	str	r3, [r0, #36]	; 0x24

    return HAL_ERROR;
 8004dd4:	2001      	movs	r0, #1
 8004dd6:	e028      	b.n	8004e2a <HAL_CAN_AddTxMessage+0x80>
      *pTxMailbox = (uint32_t)1 << transmitmailbox;
 8004dd8:	40a5      	lsls	r5, r4
 8004dda:	601d      	str	r5, [r3, #0]
      if (pHeader->IDE == CAN_ID_STD)
 8004ddc:	e9d1 0702 	ldrd	r0, r7, [r1, #8]
 8004de0:	f104 0318 	add.w	r3, r4, #24
 8004de4:	bb10      	cbnz	r0, 8004e2c <HAL_CAN_AddTxMessage+0x82>
        hcan->Instance->sTxMailBox[transmitmailbox].TIR = ((pHeader->StdId << CAN_TI0R_STID_Pos) |
 8004de6:	6808      	ldr	r0, [r1, #0]
 8004de8:	ea47 5040 	orr.w	r0, r7, r0, lsl #21
        hcan->Instance->sTxMailBox[transmitmailbox].TIR = ((pHeader->ExtId << CAN_TI0R_EXID_Pos) |
 8004dec:	011b      	lsls	r3, r3, #4
 8004dee:	50f0      	str	r0, [r6, r3]
      hcan->Instance->sTxMailBox[transmitmailbox].TDTR = (pHeader->DLC);
 8004df0:	0120      	lsls	r0, r4, #4
 8004df2:	eb06 1304 	add.w	r3, r6, r4, lsl #4
      WRITE_REG(hcan->Instance->sTxMailBox[transmitmailbox].TDHR,
 8004df6:	4406      	add	r6, r0
      return HAL_OK;
 8004df8:	2000      	movs	r0, #0
      hcan->Instance->sTxMailBox[transmitmailbox].TDTR = (pHeader->DLC);
 8004dfa:	690d      	ldr	r5, [r1, #16]
 8004dfc:	f8c3 5184 	str.w	r5, [r3, #388]	; 0x184
      if (pHeader->TransmitGlobalTime == ENABLE)
 8004e00:	7d09      	ldrb	r1, [r1, #20]
 8004e02:	2901      	cmp	r1, #1
        SET_BIT(hcan->Instance->sTxMailBox[transmitmailbox].TDTR, CAN_TDT0R_TGT);
 8004e04:	bf02      	ittt	eq
 8004e06:	f8d3 1184 	ldreq.w	r1, [r3, #388]	; 0x184
 8004e0a:	f441 7180 	orreq.w	r1, r1, #256	; 0x100
 8004e0e:	f8c3 1184 	streq.w	r1, [r3, #388]	; 0x184
      WRITE_REG(hcan->Instance->sTxMailBox[transmitmailbox].TDHR,
 8004e12:	6851      	ldr	r1, [r2, #4]
 8004e14:	f8c6 118c 	str.w	r1, [r6, #396]	; 0x18c
      WRITE_REG(hcan->Instance->sTxMailBox[transmitmailbox].TDLR,
 8004e18:	6812      	ldr	r2, [r2, #0]
 8004e1a:	f8c6 2188 	str.w	r2, [r6, #392]	; 0x188
      SET_BIT(hcan->Instance->sTxMailBox[transmitmailbox].TIR, CAN_TI0R_TXRQ);
 8004e1e:	f8d3 2180 	ldr.w	r2, [r3, #384]	; 0x180
 8004e22:	f042 0201 	orr.w	r2, r2, #1
 8004e26:	f8c3 2180 	str.w	r2, [r3, #384]	; 0x180
  }
}
 8004e2a:	bdf0      	pop	{r4, r5, r6, r7, pc}
        hcan->Instance->sTxMailBox[transmitmailbox].TIR = ((pHeader->ExtId << CAN_TI0R_EXID_Pos) |
 8004e2c:	684d      	ldr	r5, [r1, #4]
                                                           pHeader->IDE |
 8004e2e:	4338      	orrs	r0, r7
 8004e30:	ea40 00c5 	orr.w	r0, r0, r5, lsl #3
 8004e34:	e7da      	b.n	8004dec <HAL_CAN_AddTxMessage+0x42>
      hcan->ErrorCode |= HAL_CAN_ERROR_PARAM;
 8004e36:	6a43      	ldr	r3, [r0, #36]	; 0x24
 8004e38:	f443 1300 	orr.w	r3, r3, #2097152	; 0x200000
 8004e3c:	e7c9      	b.n	8004dd2 <HAL_CAN_AddTxMessage+0x28>
    hcan->ErrorCode |= HAL_CAN_ERROR_NOT_INITIALIZED;
 8004e3e:	6a43      	ldr	r3, [r0, #36]	; 0x24
 8004e40:	f443 2380 	orr.w	r3, r3, #262144	; 0x40000
 8004e44:	e7c5      	b.n	8004dd2 <HAL_CAN_AddTxMessage+0x28>

08004e46 <HAL_CAN_GetTxMailboxesFreeLevel>:
  * @retval Number of free Tx Mailboxes.
  */
uint32_t HAL_CAN_GetTxMailboxesFreeLevel(CAN_HandleTypeDef *hcan)
{
  uint32_t freelevel = 0U;
  HAL_CAN_StateTypeDef state = hcan->State;
 8004e46:	f890 3020 	ldrb.w	r3, [r0, #32]

  if ((state == HAL_CAN_STATE_READY) ||
 8004e4a:	3b01      	subs	r3, #1
 8004e4c:	2b01      	cmp	r3, #1
 8004e4e:	d80c      	bhi.n	8004e6a <HAL_CAN_GetTxMailboxesFreeLevel+0x24>
      (state == HAL_CAN_STATE_LISTENING))
  {
    /* Check Tx Mailbox 0 status */
    if ((hcan->Instance->TSR & CAN_TSR_TME0) != 0U)
 8004e50:	6803      	ldr	r3, [r0, #0]
 8004e52:	6898      	ldr	r0, [r3, #8]
    {
      freelevel++;
    }

    /* Check Tx Mailbox 1 status */
    if ((hcan->Instance->TSR & CAN_TSR_TME1) != 0U)
 8004e54:	689a      	ldr	r2, [r3, #8]
    {
      freelevel++;
    }

    /* Check Tx Mailbox 2 status */
    if ((hcan->Instance->TSR & CAN_TSR_TME2) != 0U)
 8004e56:	689b      	ldr	r3, [r3, #8]
    if ((hcan->Instance->TSR & CAN_TSR_TME1) != 0U)
 8004e58:	0112      	lsls	r2, r2, #4
    if ((hcan->Instance->TSR & CAN_TSR_TME0) != 0U)
 8004e5a:	f3c0 6080 	ubfx	r0, r0, #26, #1
      freelevel++;
 8004e5e:	bf48      	it	mi
 8004e60:	3001      	addmi	r0, #1
    if ((hcan->Instance->TSR & CAN_TSR_TME2) != 0U)
 8004e62:	00db      	lsls	r3, r3, #3
 8004e64:	d502      	bpl.n	8004e6c <HAL_CAN_GetTxMailboxesFreeLevel+0x26>
    {
      freelevel++;
 8004e66:	3001      	adds	r0, #1
 8004e68:	4770      	bx	lr
  uint32_t freelevel = 0U;
 8004e6a:	2000      	movs	r0, #0
    }
  }

  /* Return Tx Mailboxes free level */
  return freelevel;
}
 8004e6c:	4770      	bx	lr

08004e6e <HAL_CAN_GetRxMessage>:
  *         of the Rx frame will be stored.
  * @param  aData array where the payload of the Rx frame will be stored.
  * @retval HAL status
  */
HAL_StatusTypeDef HAL_CAN_GetRxMessage(CAN_HandleTypeDef *hcan, uint32_t RxFifo, CAN_RxHeaderTypeDef *pHeader, uint8_t aData[])
{
 8004e6e:	b5f0      	push	{r4, r5, r6, r7, lr}
  HAL_CAN_StateTypeDef state = hcan->State;
 8004e70:	f890 4020 	ldrb.w	r4, [r0, #32]

  assert_param(IS_CAN_RX_FIFO(RxFifo));

  if ((state == HAL_CAN_STATE_READY) ||
 8004e74:	3c01      	subs	r4, #1
 8004e76:	2c01      	cmp	r4, #1
 8004e78:	d86c      	bhi.n	8004f54 <HAL_CAN_GetRxMessage+0xe6>
  {
    /* Check the Rx FIFO */
    if (RxFifo == CAN_RX_FIFO0) /* Rx element is assigned to Rx FIFO 0 */
    {
      /* Check that the Rx FIFO 0 is not empty */
      if ((hcan->Instance->RF0R & CAN_RF0R_FMP0) == 0U)
 8004e7a:	6806      	ldr	r6, [r0, #0]
    if (RxFifo == CAN_RX_FIFO0) /* Rx element is assigned to Rx FIFO 0 */
 8004e7c:	b941      	cbnz	r1, 8004e90 <HAL_CAN_GetRxMessage+0x22>
      if ((hcan->Instance->RF0R & CAN_RF0R_FMP0) == 0U)
 8004e7e:	68f4      	ldr	r4, [r6, #12]
      }
    }
    else /* Rx element is assigned to Rx FIFO 1 */
    {
      /* Check that the Rx FIFO 1 is not empty */
      if ((hcan->Instance->RF1R & CAN_RF1R_FMP1) == 0U)
 8004e80:	07a4      	lsls	r4, r4, #30
 8004e82:	d107      	bne.n	8004e94 <HAL_CAN_GetRxMessage+0x26>
      {
        /* Update error code */
        hcan->ErrorCode |= HAL_CAN_ERROR_PARAM;
 8004e84:	6a43      	ldr	r3, [r0, #36]	; 0x24
 8004e86:	f443 1300 	orr.w	r3, r3, #2097152	; 0x200000
    return HAL_OK;
  }
  else
  {
    /* Update error code */
    hcan->ErrorCode |= HAL_CAN_ERROR_NOT_INITIALIZED;
 8004e8a:	6243      	str	r3, [r0, #36]	; 0x24

    return HAL_ERROR;
 8004e8c:	2001      	movs	r0, #1
 8004e8e:	e056      	b.n	8004f3e <HAL_CAN_GetRxMessage+0xd0>
      if ((hcan->Instance->RF1R & CAN_RF1R_FMP1) == 0U)
 8004e90:	6934      	ldr	r4, [r6, #16]
 8004e92:	e7f5      	b.n	8004e80 <HAL_CAN_GetRxMessage+0x12>
    pHeader->IDE = CAN_RI0R_IDE & hcan->Instance->sFIFOMailBox[RxFifo].RIR;
 8004e94:	eb06 1501 	add.w	r5, r6, r1, lsl #4
 8004e98:	f8d5 71b0 	ldr.w	r7, [r5, #432]	; 0x1b0
 8004e9c:	010c      	lsls	r4, r1, #4
 8004e9e:	f007 0704 	and.w	r7, r7, #4
 8004ea2:	6097      	str	r7, [r2, #8]
    if (pHeader->IDE == CAN_ID_STD)
 8004ea4:	2f00      	cmp	r7, #0
 8004ea6:	d14b      	bne.n	8004f40 <HAL_CAN_GetRxMessage+0xd2>
      pHeader->StdId = (CAN_RI0R_STID & hcan->Instance->sFIFOMailBox[RxFifo].RIR) >> CAN_TI0R_STID_Pos;
 8004ea8:	f8d5 71b0 	ldr.w	r7, [r5, #432]	; 0x1b0
 8004eac:	0d7f      	lsrs	r7, r7, #21
 8004eae:	6017      	str	r7, [r2, #0]
    pHeader->RTR = (CAN_RI0R_RTR & hcan->Instance->sFIFOMailBox[RxFifo].RIR);
 8004eb0:	f8d5 71b0 	ldr.w	r7, [r5, #432]	; 0x1b0
    aData[0] = (uint8_t)((CAN_RDL0R_DATA0 & hcan->Instance->sFIFOMailBox[RxFifo].RDLR) >> CAN_RDL0R_DATA0_Pos);
 8004eb4:	4426      	add	r6, r4
    pHeader->RTR = (CAN_RI0R_RTR & hcan->Instance->sFIFOMailBox[RxFifo].RIR);
 8004eb6:	f007 0702 	and.w	r7, r7, #2
 8004eba:	60d7      	str	r7, [r2, #12]
    pHeader->DLC = (CAN_RDT0R_DLC & hcan->Instance->sFIFOMailBox[RxFifo].RDTR) >> CAN_RDT0R_DLC_Pos;
 8004ebc:	f8d5 71b4 	ldr.w	r7, [r5, #436]	; 0x1b4
 8004ec0:	f007 070f 	and.w	r7, r7, #15
 8004ec4:	6117      	str	r7, [r2, #16]
    pHeader->FilterMatchIndex = (CAN_RDT0R_FMI & hcan->Instance->sFIFOMailBox[RxFifo].RDTR) >> CAN_RDT0R_FMI_Pos;
 8004ec6:	f8d5 71b4 	ldr.w	r7, [r5, #436]	; 0x1b4
    pHeader->Timestamp = (CAN_RDT0R_TIME & hcan->Instance->sFIFOMailBox[RxFifo].RDTR) >> CAN_RDT0R_TIME_Pos;
 8004eca:	f8d5 51b4 	ldr.w	r5, [r5, #436]	; 0x1b4
    pHeader->FilterMatchIndex = (CAN_RDT0R_FMI & hcan->Instance->sFIFOMailBox[RxFifo].RDTR) >> CAN_RDT0R_FMI_Pos;
 8004ece:	f3c7 2707 	ubfx	r7, r7, #8, #8
    pHeader->Timestamp = (CAN_RDT0R_TIME & hcan->Instance->sFIFOMailBox[RxFifo].RDTR) >> CAN_RDT0R_TIME_Pos;
 8004ed2:	0c2d      	lsrs	r5, r5, #16
    pHeader->FilterMatchIndex = (CAN_RDT0R_FMI & hcan->Instance->sFIFOMailBox[RxFifo].RDTR) >> CAN_RDT0R_FMI_Pos;
 8004ed4:	6197      	str	r7, [r2, #24]
    pHeader->Timestamp = (CAN_RDT0R_TIME & hcan->Instance->sFIFOMailBox[RxFifo].RDTR) >> CAN_RDT0R_TIME_Pos;
 8004ed6:	6155      	str	r5, [r2, #20]
    aData[0] = (uint8_t)((CAN_RDL0R_DATA0 & hcan->Instance->sFIFOMailBox[RxFifo].RDLR) >> CAN_RDL0R_DATA0_Pos);
 8004ed8:	f8d6 21b8 	ldr.w	r2, [r6, #440]	; 0x1b8
 8004edc:	701a      	strb	r2, [r3, #0]
    aData[1] = (uint8_t)((CAN_RDL0R_DATA1 & hcan->Instance->sFIFOMailBox[RxFifo].RDLR) >> CAN_RDL0R_DATA1_Pos);
 8004ede:	6802      	ldr	r2, [r0, #0]
 8004ee0:	4422      	add	r2, r4
 8004ee2:	f8d2 21b8 	ldr.w	r2, [r2, #440]	; 0x1b8
 8004ee6:	0a12      	lsrs	r2, r2, #8
 8004ee8:	705a      	strb	r2, [r3, #1]
    aData[2] = (uint8_t)((CAN_RDL0R_DATA2 & hcan->Instance->sFIFOMailBox[RxFifo].RDLR) >> CAN_RDL0R_DATA2_Pos);
 8004eea:	6802      	ldr	r2, [r0, #0]
 8004eec:	4422      	add	r2, r4
 8004eee:	f8d2 21b8 	ldr.w	r2, [r2, #440]	; 0x1b8
 8004ef2:	0c12      	lsrs	r2, r2, #16
 8004ef4:	709a      	strb	r2, [r3, #2]
    aData[3] = (uint8_t)((CAN_RDL0R_DATA3 & hcan->Instance->sFIFOMailBox[RxFifo].RDLR) >> CAN_RDL0R_DATA3_Pos);
 8004ef6:	6802      	ldr	r2, [r0, #0]
 8004ef8:	4422      	add	r2, r4
 8004efa:	f8d2 21b8 	ldr.w	r2, [r2, #440]	; 0x1b8
 8004efe:	0e12      	lsrs	r2, r2, #24
 8004f00:	70da      	strb	r2, [r3, #3]
    aData[4] = (uint8_t)((CAN_RDH0R_DATA4 & hcan->Instance->sFIFOMailBox[RxFifo].RDHR) >> CAN_RDH0R_DATA4_Pos);
 8004f02:	6802      	ldr	r2, [r0, #0]
 8004f04:	4422      	add	r2, r4
 8004f06:	f8d2 21bc 	ldr.w	r2, [r2, #444]	; 0x1bc
 8004f0a:	711a      	strb	r2, [r3, #4]
    aData[5] = (uint8_t)((CAN_RDH0R_DATA5 & hcan->Instance->sFIFOMailBox[RxFifo].RDHR) >> CAN_RDH0R_DATA5_Pos);
 8004f0c:	6802      	ldr	r2, [r0, #0]
 8004f0e:	4422      	add	r2, r4
 8004f10:	f8d2 21bc 	ldr.w	r2, [r2, #444]	; 0x1bc
 8004f14:	0a12      	lsrs	r2, r2, #8
 8004f16:	715a      	strb	r2, [r3, #5]
    aData[6] = (uint8_t)((CAN_RDH0R_DATA6 & hcan->Instance->sFIFOMailBox[RxFifo].RDHR) >> CAN_RDH0R_DATA6_Pos);
 8004f18:	6802      	ldr	r2, [r0, #0]
 8004f1a:	4422      	add	r2, r4
 8004f1c:	f8d2 21bc 	ldr.w	r2, [r2, #444]	; 0x1bc
 8004f20:	0c12      	lsrs	r2, r2, #16
 8004f22:	719a      	strb	r2, [r3, #6]
    aData[7] = (uint8_t)((CAN_RDH0R_DATA7 & hcan->Instance->sFIFOMailBox[RxFifo].RDHR) >> CAN_RDH0R_DATA7_Pos);
 8004f24:	6802      	ldr	r2, [r0, #0]
 8004f26:	4422      	add	r2, r4
 8004f28:	f8d2 21bc 	ldr.w	r2, [r2, #444]	; 0x1bc
 8004f2c:	0e12      	lsrs	r2, r2, #24
 8004f2e:	71da      	strb	r2, [r3, #7]
    if (RxFifo == CAN_RX_FIFO0) /* Rx element is assigned to Rx FIFO 0 */
 8004f30:	6803      	ldr	r3, [r0, #0]
 8004f32:	b951      	cbnz	r1, 8004f4a <HAL_CAN_GetRxMessage+0xdc>
      SET_BIT(hcan->Instance->RF0R, CAN_RF0R_RFOM0);
 8004f34:	68da      	ldr	r2, [r3, #12]
 8004f36:	f042 0220 	orr.w	r2, r2, #32
 8004f3a:	60da      	str	r2, [r3, #12]
    return HAL_OK;
 8004f3c:	2000      	movs	r0, #0
  }
}
 8004f3e:	bdf0      	pop	{r4, r5, r6, r7, pc}
      pHeader->ExtId = ((CAN_RI0R_EXID | CAN_RI0R_STID) & hcan->Instance->sFIFOMailBox[RxFifo].RIR) >> CAN_RI0R_EXID_Pos;
 8004f40:	f8d5 71b0 	ldr.w	r7, [r5, #432]	; 0x1b0
 8004f44:	08ff      	lsrs	r7, r7, #3
 8004f46:	6057      	str	r7, [r2, #4]
 8004f48:	e7b2      	b.n	8004eb0 <HAL_CAN_GetRxMessage+0x42>
      SET_BIT(hcan->Instance->RF1R, CAN_RF1R_RFOM1);
 8004f4a:	691a      	ldr	r2, [r3, #16]
 8004f4c:	f042 0220 	orr.w	r2, r2, #32
 8004f50:	611a      	str	r2, [r3, #16]
 8004f52:	e7f3      	b.n	8004f3c <HAL_CAN_GetRxMessage+0xce>
    hcan->ErrorCode |= HAL_CAN_ERROR_NOT_INITIALIZED;
 8004f54:	6a43      	ldr	r3, [r0, #36]	; 0x24
 8004f56:	f443 2380 	orr.w	r3, r3, #262144	; 0x40000
 8004f5a:	e796      	b.n	8004e8a <HAL_CAN_GetRxMessage+0x1c>

08004f5c <HAL_CAN_GetRxFifoFillLevel>:
  * @retval Number of messages available in Rx FIFO.
  */
uint32_t HAL_CAN_GetRxFifoFillLevel(CAN_HandleTypeDef *hcan, uint32_t RxFifo)
{
  uint32_t filllevel = 0U;
  HAL_CAN_StateTypeDef state = hcan->State;
 8004f5c:	f890 3020 	ldrb.w	r3, [r0, #32]

  /* Check function parameters */
  assert_param(IS_CAN_RX_FIFO(RxFifo));

  if ((state == HAL_CAN_STATE_READY) ||
 8004f60:	3b01      	subs	r3, #1
 8004f62:	2b01      	cmp	r3, #1
 8004f64:	d807      	bhi.n	8004f76 <HAL_CAN_GetRxFifoFillLevel+0x1a>
      (state == HAL_CAN_STATE_LISTENING))
  {
    if (RxFifo == CAN_RX_FIFO0)
    {
      filllevel = hcan->Instance->RF0R & CAN_RF0R_FMP0;
 8004f66:	6803      	ldr	r3, [r0, #0]
    if (RxFifo == CAN_RX_FIFO0)
 8004f68:	b919      	cbnz	r1, 8004f72 <HAL_CAN_GetRxFifoFillLevel+0x16>
      filllevel = hcan->Instance->RF0R & CAN_RF0R_FMP0;
 8004f6a:	68d8      	ldr	r0, [r3, #12]
    }
    else /* RxFifo == CAN_RX_FIFO1 */
    {
      filllevel = hcan->Instance->RF1R & CAN_RF1R_FMP1;
 8004f6c:	f000 0003 	and.w	r0, r0, #3
 8004f70:	4770      	bx	lr
 8004f72:	6918      	ldr	r0, [r3, #16]
 8004f74:	e7fa      	b.n	8004f6c <HAL_CAN_GetRxFifoFillLevel+0x10>
  uint32_t filllevel = 0U;
 8004f76:	2000      	movs	r0, #0
    }
  }

  /* Return Rx FIFO fill level */
  return filllevel;
}
 8004f78:	4770      	bx	lr
	...

08004f7c <HAL_NVIC_SetPriorityGrouping>:
__STATIC_INLINE void __NVIC_SetPriorityGrouping(uint32_t PriorityGroup)
{
  uint32_t reg_value;
  uint32_t PriorityGroupTmp = (PriorityGroup & (uint32_t)0x07UL);             /* only values 0..7 are used          */

  reg_value  =  SCB->AIRCR;                                                   /* read old register configuration    */
 8004f7c:	4907      	ldr	r1, [pc, #28]	; (8004f9c <HAL_NVIC_SetPriorityGrouping+0x20>)
  reg_value &= ~((uint32_t)(SCB_AIRCR_VECTKEY_Msk | SCB_AIRCR_PRIGROUP_Msk)); /* clear bits to change               */
  reg_value  =  (reg_value                                   |
                ((uint32_t)0x5FAUL << SCB_AIRCR_VECTKEY_Pos) |
                (PriorityGroupTmp << SCB_AIRCR_PRIGROUP_Pos) );               /* Insert write key and priority group */
 8004f7e:	0203      	lsls	r3, r0, #8
  reg_value  =  SCB->AIRCR;                                                   /* read old register configuration    */
 8004f80:	68ca      	ldr	r2, [r1, #12]
                (PriorityGroupTmp << SCB_AIRCR_PRIGROUP_Pos) );               /* Insert write key and priority group */
 8004f82:	f403 63e0 	and.w	r3, r3, #1792	; 0x700
  reg_value &= ~((uint32_t)(SCB_AIRCR_VECTKEY_Msk | SCB_AIRCR_PRIGROUP_Msk)); /* clear bits to change               */
 8004f86:	f422 62e0 	bic.w	r2, r2, #1792	; 0x700
 8004f8a:	0412      	lsls	r2, r2, #16
 8004f8c:	0c12      	lsrs	r2, r2, #16
                ((uint32_t)0x5FAUL << SCB_AIRCR_VECTKEY_Pos) |
 8004f8e:	4313      	orrs	r3, r2
  reg_value  =  (reg_value                                   |
 8004f90:	f043 63bf 	orr.w	r3, r3, #100139008	; 0x5f80000
 8004f94:	f443 3300 	orr.w	r3, r3, #131072	; 0x20000
  SCB->AIRCR =  reg_value;
 8004f98:	60cb      	str	r3, [r1, #12]
  /* Check the parameters */
  assert_param(IS_NVIC_PRIORITY_GROUP(PriorityGroup));
  
  /* Set the PRIGROUP[10:8] bits according to the PriorityGroup parameter value */
  NVIC_SetPriorityGrouping(PriorityGroup);
}
 8004f9a:	4770      	bx	lr
 8004f9c:	e000ed00 	.word	0xe000ed00

08004fa0 <HAL_NVIC_SetPriority>:
  \details Reads the priority grouping field from the NVIC Interrupt Controller.
  \return                Priority grouping field (SCB->AIRCR [10:8] PRIGROUP field).
 */
__STATIC_INLINE uint32_t __NVIC_GetPriorityGrouping(void)
{
  return ((uint32_t)((SCB->AIRCR & SCB_AIRCR_PRIGROUP_Msk) >> SCB_AIRCR_PRIGROUP_Pos));
 8004fa0:	4b16      	ldr	r3, [pc, #88]	; (8004ffc <HAL_NVIC_SetPriority+0x5c>)
  *         This parameter can be a value between 0 and 15
  *         A lower priority value indicates a higher priority.          
  * @retval None
  */
void HAL_NVIC_SetPriority(IRQn_Type IRQn, uint32_t PreemptPriority, uint32_t SubPriority)
{ 
 8004fa2:	b530      	push	{r4, r5, lr}
 8004fa4:	68dc      	ldr	r4, [r3, #12]
 8004fa6:	f3c4 2402 	ubfx	r4, r4, #8, #3
{
  uint32_t PriorityGroupTmp = (PriorityGroup & (uint32_t)0x07UL);   /* only values 0..7 are used          */
  uint32_t PreemptPriorityBits;
  uint32_t SubPriorityBits;

  PreemptPriorityBits = ((7UL - PriorityGroupTmp) > (uint32_t)(__NVIC_PRIO_BITS)) ? (uint32_t)(__NVIC_PRIO_BITS) : (uint32_t)(7UL - PriorityGroupTmp);
 8004faa:	f1c4 0307 	rsb	r3, r4, #7
  SubPriorityBits     = ((PriorityGroupTmp + (uint32_t)(__NVIC_PRIO_BITS)) < (uint32_t)7UL) ? (uint32_t)0UL : (uint32_t)((PriorityGroupTmp - 7UL) + (uint32_t)(__NVIC_PRIO_BITS));
 8004fae:	1d25      	adds	r5, r4, #4
  PreemptPriorityBits = ((7UL - PriorityGroupTmp) > (uint32_t)(__NVIC_PRIO_BITS)) ? (uint32_t)(__NVIC_PRIO_BITS) : (uint32_t)(7UL - PriorityGroupTmp);
 8004fb0:	2b04      	cmp	r3, #4
 8004fb2:	bf28      	it	cs
 8004fb4:	2304      	movcs	r3, #4
  SubPriorityBits     = ((PriorityGroupTmp + (uint32_t)(__NVIC_PRIO_BITS)) < (uint32_t)7UL) ? (uint32_t)0UL : (uint32_t)((PriorityGroupTmp - 7UL) + (uint32_t)(__NVIC_PRIO_BITS));
 8004fb6:	2d06      	cmp	r5, #6

  return (
           ((PreemptPriority & (uint32_t)((1UL << (PreemptPriorityBits)) - 1UL)) << SubPriorityBits) |
 8004fb8:	f04f 35ff 	mov.w	r5, #4294967295
  SubPriorityBits     = ((PriorityGroupTmp + (uint32_t)(__NVIC_PRIO_BITS)) < (uint32_t)7UL) ? (uint32_t)0UL : (uint32_t)((PriorityGroupTmp - 7UL) + (uint32_t)(__NVIC_PRIO_BITS));
 8004fbc:	bf98      	it	ls
 8004fbe:	2400      	movls	r4, #0
           ((PreemptPriority & (uint32_t)((1UL << (PreemptPriorityBits)) - 1UL)) << SubPriorityBits) |
 8004fc0:	fa05 f303 	lsl.w	r3, r5, r3
  SubPriorityBits     = ((PriorityGroupTmp + (uint32_t)(__NVIC_PRIO_BITS)) < (uint32_t)7UL) ? (uint32_t)0UL : (uint32_t)((PriorityGroupTmp - 7UL) + (uint32_t)(__NVIC_PRIO_BITS));
 8004fc4:	bf88      	it	hi
 8004fc6:	3c03      	subhi	r4, #3
           ((PreemptPriority & (uint32_t)((1UL << (PreemptPriorityBits)) - 1UL)) << SubPriorityBits) |
 8004fc8:	ea21 0303 	bic.w	r3, r1, r3
 8004fcc:	40a3      	lsls	r3, r4
           ((SubPriority     & (uint32_t)((1UL << (SubPriorityBits    )) - 1UL)))
 8004fce:	fa05 f404 	lsl.w	r4, r5, r4
 8004fd2:	ea22 0204 	bic.w	r2, r2, r4
  if ((int32_t)(IRQn) >= 0)
 8004fd6:	2800      	cmp	r0, #0
           ((PreemptPriority & (uint32_t)((1UL << (PreemptPriorityBits)) - 1UL)) << SubPriorityBits) |
 8004fd8:	ea43 0302 	orr.w	r3, r3, r2
    NVIC->IP[((uint32_t)IRQn)]               = (uint8_t)((priority << (8U - __NVIC_PRIO_BITS)) & (uint32_t)0xFFUL);
 8004fdc:	bfac      	ite	ge
 8004fde:	f100 4060 	addge.w	r0, r0, #3758096384	; 0xe0000000
    SCB->SHP[(((uint32_t)IRQn) & 0xFUL)-4UL] = (uint8_t)((priority << (8U - __NVIC_PRIO_BITS)) & (uint32_t)0xFFUL);
 8004fe2:	4a07      	ldrlt	r2, [pc, #28]	; (8005000 <HAL_NVIC_SetPriority+0x60>)
    NVIC->IP[((uint32_t)IRQn)]               = (uint8_t)((priority << (8U - __NVIC_PRIO_BITS)) & (uint32_t)0xFFUL);
 8004fe4:	ea4f 1303 	mov.w	r3, r3, lsl #4
 8004fe8:	b2db      	uxtb	r3, r3
 8004fea:	bfab      	itete	ge
 8004fec:	f500 4061 	addge.w	r0, r0, #57600	; 0xe100
    SCB->SHP[(((uint32_t)IRQn) & 0xFUL)-4UL] = (uint8_t)((priority << (8U - __NVIC_PRIO_BITS)) & (uint32_t)0xFFUL);
 8004ff0:	f000 000f 	andlt.w	r0, r0, #15
    NVIC->IP[((uint32_t)IRQn)]               = (uint8_t)((priority << (8U - __NVIC_PRIO_BITS)) & (uint32_t)0xFFUL);
 8004ff4:	f880 3300 	strbge.w	r3, [r0, #768]	; 0x300
    SCB->SHP[(((uint32_t)IRQn) & 0xFUL)-4UL] = (uint8_t)((priority << (8U - __NVIC_PRIO_BITS)) & (uint32_t)0xFFUL);
 8004ff8:	5413      	strblt	r3, [r2, r0]
  assert_param(IS_NVIC_PREEMPTION_PRIORITY(PreemptPriority));
  
  prioritygroup = NVIC_GetPriorityGrouping();
  
  NVIC_SetPriority(IRQn, NVIC_EncodePriority(prioritygroup, PreemptPriority, SubPriority));
}
 8004ffa:	bd30      	pop	{r4, r5, pc}
 8004ffc:	e000ed00 	.word	0xe000ed00
 8005000:	e000ed14 	.word	0xe000ed14

08005004 <HAL_NVIC_EnableIRQ>:
  if ((int32_t)(IRQn) >= 0)
 8005004:	2800      	cmp	r0, #0
 8005006:	db08      	blt.n	800501a <HAL_NVIC_EnableIRQ+0x16>
    NVIC->ISER[(((uint32_t)IRQn) >> 5UL)] = (uint32_t)(1UL << (((uint32_t)IRQn) & 0x1FUL));
 8005008:	2301      	movs	r3, #1
 800500a:	0942      	lsrs	r2, r0, #5
 800500c:	f000 001f 	and.w	r0, r0, #31
 8005010:	fa03 f000 	lsl.w	r0, r3, r0
 8005014:	4b01      	ldr	r3, [pc, #4]	; (800501c <HAL_NVIC_EnableIRQ+0x18>)
 8005016:	f843 0022 	str.w	r0, [r3, r2, lsl #2]
  /* Check the parameters */
  assert_param(IS_NVIC_DEVICE_IRQ(IRQn));

  /* Enable interrupt */
  NVIC_EnableIRQ(IRQn);
}
 800501a:	4770      	bx	lr
 800501c:	e000e100 	.word	0xe000e100

08005020 <HAL_SYSTICK_Config>:
           function <b>SysTick_Config</b> is not included. In this case, the file <b><i>device</i>.h</b>
           must contain a vendor-specific implementation of this function.
 */
__STATIC_INLINE uint32_t SysTick_Config(uint32_t ticks)
{
  if ((ticks - 1UL) > SysTick_LOAD_RELOAD_Msk)
 8005020:	3801      	subs	r0, #1
 8005022:	f1b0 7f80 	cmp.w	r0, #16777216	; 0x1000000
 8005026:	d20b      	bcs.n	8005040 <HAL_SYSTICK_Config+0x20>
  {
    return (1UL);                                                   /* Reload value impossible */
  }

  SysTick->LOAD  = (uint32_t)(ticks - 1UL);                         /* set reload register */
 8005028:	f04f 23e0 	mov.w	r3, #3758153728	; 0xe000e000
    SCB->SHP[(((uint32_t)IRQn) & 0xFUL)-4UL] = (uint8_t)((priority << (8U - __NVIC_PRIO_BITS)) & (uint32_t)0xFFUL);
 800502c:	21f0      	movs	r1, #240	; 0xf0
 800502e:	4a05      	ldr	r2, [pc, #20]	; (8005044 <HAL_SYSTICK_Config+0x24>)
  SysTick->LOAD  = (uint32_t)(ticks - 1UL);                         /* set reload register */
 8005030:	6158      	str	r0, [r3, #20]
    SCB->SHP[(((uint32_t)IRQn) & 0xFUL)-4UL] = (uint8_t)((priority << (8U - __NVIC_PRIO_BITS)) & (uint32_t)0xFFUL);
 8005032:	f882 1023 	strb.w	r1, [r2, #35]	; 0x23
  NVIC_SetPriority (SysTick_IRQn, (1UL << __NVIC_PRIO_BITS) - 1UL); /* set Priority for Systick Interrupt */
  SysTick->VAL   = 0UL;                                             /* Load the SysTick Counter Value */
 8005036:	2000      	movs	r0, #0
  SysTick->CTRL  = SysTick_CTRL_CLKSOURCE_Msk |
 8005038:	2207      	movs	r2, #7
  SysTick->VAL   = 0UL;                                             /* Load the SysTick Counter Value */
 800503a:	6198      	str	r0, [r3, #24]
  SysTick->CTRL  = SysTick_CTRL_CLKSOURCE_Msk |
 800503c:	611a      	str	r2, [r3, #16]
                   SysTick_CTRL_TICKINT_Msk   |
                   SysTick_CTRL_ENABLE_Msk;                         /* Enable SysTick IRQ and SysTick Timer */
  return (0UL);                                                     /* Function successful */
 800503e:	4770      	bx	lr
    return (1UL);                                                   /* Reload value impossible */
 8005040:	2001      	movs	r0, #1
  *                  - 1  Function failed.
  */
uint32_t HAL_SYSTICK_Config(uint32_t TicksNumb)
{
   return SysTick_Config(TicksNumb);
}
 8005042:	4770      	bx	lr
 8005044:	e000ed00 	.word	0xe000ed00

08005048 <HAL_GPIO_Init>:
  * @param  GPIO_Init: pointer to a GPIO_InitTypeDef structure that contains
  *         the configuration information for the specified GPIO peripheral.
  * @retval None
  */
void HAL_GPIO_Init(GPIO_TypeDef  *GPIOx, GPIO_InitTypeDef *GPIO_Init)
{
 8005048:	e92d 4ff7 	stmdb	sp!, {r0, r1, r2, r4, r5, r6, r7, r8, r9, sl, fp, lr}
  uint32_t position = 0x00u;
  uint32_t ioposition;
  uint32_t iocurrent;
  uint32_t temp;
  uint32_t config = 0x00u;
 800504c:	2200      	movs	r2, #0
  uint32_t position = 0x00u;
 800504e:	4616      	mov	r6, r2
      /*--------------------- EXTI Mode Configuration ------------------------*/
      /* Configure the External Interrupt or event for the current IO */
      if ((GPIO_Init->Mode & EXTI_MODE) == EXTI_MODE)
      {
        /* Enable AFIO Clock */
        __HAL_RCC_AFIO_CLK_ENABLE();
 8005050:	4f61      	ldr	r7, [pc, #388]	; (80051d8 <HAL_GPIO_Init+0x190>)
 8005052:	4b62      	ldr	r3, [pc, #392]	; (80051dc <HAL_GPIO_Init+0x194>)
      switch (GPIO_Init->Mode)
 8005054:	f8df c188 	ldr.w	ip, [pc, #392]	; 80051e0 <HAL_GPIO_Init+0x198>
 8005058:	f8df e188 	ldr.w	lr, [pc, #392]	; 80051e4 <HAL_GPIO_Init+0x19c>
  while (((GPIO_Init->Pin) >> position) != 0x00u)
 800505c:	680d      	ldr	r5, [r1, #0]
 800505e:	fa35 f406 	lsrs.w	r4, r5, r6
 8005062:	d102      	bne.n	800506a <HAL_GPIO_Init+0x22>
      }
    }

	position++;
  }
}
 8005064:	b003      	add	sp, #12
 8005066:	e8bd 8ff0 	ldmia.w	sp!, {r4, r5, r6, r7, r8, r9, sl, fp, pc}
    ioposition = (0x01uL << position);
 800506a:	f04f 0801 	mov.w	r8, #1
 800506e:	fa08 f806 	lsl.w	r8, r8, r6
    iocurrent = (uint32_t)(GPIO_Init->Pin) & ioposition;
 8005072:	ea05 0408 	and.w	r4, r5, r8
    if (iocurrent == ioposition)
 8005076:	ea38 0505 	bics.w	r5, r8, r5
 800507a:	d177      	bne.n	800516c <HAL_GPIO_Init+0x124>
      switch (GPIO_Init->Mode)
 800507c:	684d      	ldr	r5, [r1, #4]
 800507e:	2d03      	cmp	r5, #3
 8005080:	d807      	bhi.n	8005092 <HAL_GPIO_Init+0x4a>
 8005082:	3d01      	subs	r5, #1
 8005084:	2d02      	cmp	r5, #2
 8005086:	f200 8082 	bhi.w	800518e <HAL_GPIO_Init+0x146>
 800508a:	e8df f005 	tbb	[pc, r5]
 800508e:	9792      	.short	0x9792
 8005090:	9d          	.byte	0x9d
 8005091:	00          	.byte	0x00
 8005092:	2d12      	cmp	r5, #18
 8005094:	f000 8095 	beq.w	80051c2 <HAL_GPIO_Init+0x17a>
 8005098:	d86a      	bhi.n	8005170 <HAL_GPIO_Init+0x128>
 800509a:	2d11      	cmp	r5, #17
 800509c:	f000 808b 	beq.w	80051b6 <HAL_GPIO_Init+0x16e>
      configregister = (iocurrent < GPIO_PIN_8) ? &GPIOx->CRL     : &GPIOx->CRH;
 80050a0:	2cff      	cmp	r4, #255	; 0xff
 80050a2:	bf98      	it	ls
 80050a4:	4682      	movls	sl, r0
      MODIFY_REG((*configregister), ((GPIO_CRL_MODE0 | GPIO_CRL_CNF0) << registeroffset), (config << registeroffset));
 80050a6:	f04f 090f 	mov.w	r9, #15
      configregister = (iocurrent < GPIO_PIN_8) ? &GPIOx->CRL     : &GPIOx->CRH;
 80050aa:	bf88      	it	hi
 80050ac:	f100 0a04 	addhi.w	sl, r0, #4
 80050b0:	ea4f 0586 	mov.w	r5, r6, lsl #2
      MODIFY_REG((*configregister), ((GPIO_CRL_MODE0 | GPIO_CRL_CNF0) << registeroffset), (config << registeroffset));
 80050b4:	f8da 8000 	ldr.w	r8, [sl]
      registeroffset = (iocurrent < GPIO_PIN_8) ? (position << 2u) : ((position - 8u) << 2u);
 80050b8:	bf88      	it	hi
 80050ba:	3d20      	subhi	r5, #32
      MODIFY_REG((*configregister), ((GPIO_CRL_MODE0 | GPIO_CRL_CNF0) << registeroffset), (config << registeroffset));
 80050bc:	fa09 fb05 	lsl.w	fp, r9, r5
 80050c0:	ea28 080b 	bic.w	r8, r8, fp
 80050c4:	fa02 f505 	lsl.w	r5, r2, r5
 80050c8:	ea48 0505 	orr.w	r5, r8, r5
 80050cc:	f8ca 5000 	str.w	r5, [sl]
      if ((GPIO_Init->Mode & EXTI_MODE) == EXTI_MODE)
 80050d0:	f8d1 a004 	ldr.w	sl, [r1, #4]
 80050d4:	f01a 5f80 	tst.w	sl, #268435456	; 0x10000000
 80050d8:	d048      	beq.n	800516c <HAL_GPIO_Init+0x124>
        __HAL_RCC_AFIO_CLK_ENABLE();
 80050da:	69bd      	ldr	r5, [r7, #24]
 80050dc:	f026 0803 	bic.w	r8, r6, #3
 80050e0:	f045 0501 	orr.w	r5, r5, #1
 80050e4:	61bd      	str	r5, [r7, #24]
 80050e6:	69bd      	ldr	r5, [r7, #24]
 80050e8:	f108 4880 	add.w	r8, r8, #1073741824	; 0x40000000
 80050ec:	f005 0501 	and.w	r5, r5, #1
 80050f0:	9501      	str	r5, [sp, #4]
 80050f2:	f508 3880 	add.w	r8, r8, #65536	; 0x10000
        CLEAR_BIT(temp, (0x0Fu) << (4u * (position & 0x03u)));
 80050f6:	f006 0b03 	and.w	fp, r6, #3
        __HAL_RCC_AFIO_CLK_ENABLE();
 80050fa:	9d01      	ldr	r5, [sp, #4]
        CLEAR_BIT(temp, (0x0Fu) << (4u * (position & 0x03u)));
 80050fc:	ea4f 0b8b 	mov.w	fp, fp, lsl #2
        temp = AFIO->EXTICR[position >> 2u];
 8005100:	f8d8 5008 	ldr.w	r5, [r8, #8]
        CLEAR_BIT(temp, (0x0Fu) << (4u * (position & 0x03u)));
 8005104:	fa09 f90b 	lsl.w	r9, r9, fp
 8005108:	ea25 0909 	bic.w	r9, r5, r9
        SET_BIT(temp, (GPIO_GET_INDEX(GPIOx)) << (4u * (position & 0x03u)));
 800510c:	4d36      	ldr	r5, [pc, #216]	; (80051e8 <HAL_GPIO_Init+0x1a0>)
 800510e:	42a8      	cmp	r0, r5
 8005110:	d05e      	beq.n	80051d0 <HAL_GPIO_Init+0x188>
 8005112:	f505 6580 	add.w	r5, r5, #1024	; 0x400
 8005116:	42a8      	cmp	r0, r5
 8005118:	d05c      	beq.n	80051d4 <HAL_GPIO_Init+0x18c>
 800511a:	f505 6580 	add.w	r5, r5, #1024	; 0x400
 800511e:	42a8      	cmp	r0, r5
 8005120:	bf0c      	ite	eq
 8005122:	2502      	moveq	r5, #2
 8005124:	2503      	movne	r5, #3
 8005126:	fa05 f50b 	lsl.w	r5, r5, fp
 800512a:	ea45 0509 	orr.w	r5, r5, r9
        AFIO->EXTICR[position >> 2u] = temp;
 800512e:	f8c8 5008 	str.w	r5, [r8, #8]
          SET_BIT(EXTI->IMR, iocurrent);
 8005132:	681d      	ldr	r5, [r3, #0]
        if ((GPIO_Init->Mode & GPIO_MODE_IT) == GPIO_MODE_IT)
 8005134:	f41a 3f80 	tst.w	sl, #65536	; 0x10000
          SET_BIT(EXTI->IMR, iocurrent);
 8005138:	bf14      	ite	ne
 800513a:	4325      	orrne	r5, r4
          CLEAR_BIT(EXTI->IMR, iocurrent);
 800513c:	43a5      	biceq	r5, r4
 800513e:	601d      	str	r5, [r3, #0]
          SET_BIT(EXTI->EMR, iocurrent);
 8005140:	685d      	ldr	r5, [r3, #4]
        if ((GPIO_Init->Mode & GPIO_MODE_EVT) == GPIO_MODE_EVT)
 8005142:	f41a 3f00 	tst.w	sl, #131072	; 0x20000
          SET_BIT(EXTI->EMR, iocurrent);
 8005146:	bf14      	ite	ne
 8005148:	4325      	orrne	r5, r4
          CLEAR_BIT(EXTI->EMR, iocurrent);
 800514a:	43a5      	biceq	r5, r4
 800514c:	605d      	str	r5, [r3, #4]
          SET_BIT(EXTI->RTSR, iocurrent);
 800514e:	689d      	ldr	r5, [r3, #8]
        if ((GPIO_Init->Mode & RISING_EDGE) == RISING_EDGE)
 8005150:	f41a 1f80 	tst.w	sl, #1048576	; 0x100000
          SET_BIT(EXTI->RTSR, iocurrent);
 8005154:	bf14      	ite	ne
 8005156:	4325      	orrne	r5, r4
          CLEAR_BIT(EXTI->RTSR, iocurrent);
 8005158:	43a5      	biceq	r5, r4
 800515a:	609d      	str	r5, [r3, #8]
          SET_BIT(EXTI->FTSR, iocurrent);
 800515c:	68dd      	ldr	r5, [r3, #12]
        if ((GPIO_Init->Mode & FALLING_EDGE) == FALLING_EDGE)
 800515e:	f41a 1f00 	tst.w	sl, #2097152	; 0x200000
          SET_BIT(EXTI->FTSR, iocurrent);
 8005162:	bf14      	ite	ne
 8005164:	432c      	orrne	r4, r5
          CLEAR_BIT(EXTI->FTSR, iocurrent);
 8005166:	ea25 0404 	biceq.w	r4, r5, r4
 800516a:	60dc      	str	r4, [r3, #12]
	position++;
 800516c:	3601      	adds	r6, #1
 800516e:	e775      	b.n	800505c <HAL_GPIO_Init+0x14>
      switch (GPIO_Init->Mode)
 8005170:	f8df 9078 	ldr.w	r9, [pc, #120]	; 80051ec <HAL_GPIO_Init+0x1a4>
 8005174:	454d      	cmp	r5, r9
 8005176:	d00a      	beq.n	800518e <HAL_GPIO_Init+0x146>
 8005178:	d815      	bhi.n	80051a6 <HAL_GPIO_Init+0x15e>
 800517a:	4575      	cmp	r5, lr
 800517c:	d007      	beq.n	800518e <HAL_GPIO_Init+0x146>
 800517e:	f5a9 3980 	sub.w	r9, r9, #65536	; 0x10000
 8005182:	454d      	cmp	r5, r9
 8005184:	d003      	beq.n	800518e <HAL_GPIO_Init+0x146>
 8005186:	f5a9 1980 	sub.w	r9, r9, #1048576	; 0x100000
 800518a:	454d      	cmp	r5, r9
 800518c:	d188      	bne.n	80050a0 <HAL_GPIO_Init+0x58>
          if (GPIO_Init->Pull == GPIO_NOPULL)
 800518e:	688a      	ldr	r2, [r1, #8]
 8005190:	b1e2      	cbz	r2, 80051cc <HAL_GPIO_Init+0x184>
          else if (GPIO_Init->Pull == GPIO_PULLUP)
 8005192:	2a01      	cmp	r2, #1
            GPIOx->BSRR = ioposition;
 8005194:	bf08      	it	eq
 8005196:	f8c0 8010 	streq.w	r8, [r0, #16]
            config = GPIO_CR_MODE_INPUT + GPIO_CR_CNF_INPUT_PU_PD;
 800519a:	f04f 0208 	mov.w	r2, #8
            GPIOx->BRR = ioposition;
 800519e:	bf18      	it	ne
 80051a0:	f8c0 8014 	strne.w	r8, [r0, #20]
 80051a4:	e77c      	b.n	80050a0 <HAL_GPIO_Init+0x58>
      switch (GPIO_Init->Mode)
 80051a6:	f8df 9048 	ldr.w	r9, [pc, #72]	; 80051f0 <HAL_GPIO_Init+0x1a8>
 80051aa:	454d      	cmp	r5, r9
 80051ac:	d0ef      	beq.n	800518e <HAL_GPIO_Init+0x146>
 80051ae:	4565      	cmp	r5, ip
 80051b0:	e7ec      	b.n	800518c <HAL_GPIO_Init+0x144>
          config = GPIO_Init->Speed + GPIO_CR_CNF_GP_OUTPUT_PP;
 80051b2:	68ca      	ldr	r2, [r1, #12]
          break;
 80051b4:	e774      	b.n	80050a0 <HAL_GPIO_Init+0x58>
          config = GPIO_Init->Speed + GPIO_CR_CNF_GP_OUTPUT_OD;
 80051b6:	68ca      	ldr	r2, [r1, #12]
 80051b8:	3204      	adds	r2, #4
          break;
 80051ba:	e771      	b.n	80050a0 <HAL_GPIO_Init+0x58>
          config = GPIO_Init->Speed + GPIO_CR_CNF_AF_OUTPUT_PP;
 80051bc:	68ca      	ldr	r2, [r1, #12]
 80051be:	3208      	adds	r2, #8
          break;
 80051c0:	e76e      	b.n	80050a0 <HAL_GPIO_Init+0x58>
          config = GPIO_Init->Speed + GPIO_CR_CNF_AF_OUTPUT_OD;
 80051c2:	68ca      	ldr	r2, [r1, #12]
 80051c4:	320c      	adds	r2, #12
          break;
 80051c6:	e76b      	b.n	80050a0 <HAL_GPIO_Init+0x58>
      switch (GPIO_Init->Mode)
 80051c8:	2200      	movs	r2, #0
 80051ca:	e769      	b.n	80050a0 <HAL_GPIO_Init+0x58>
            config = GPIO_CR_MODE_INPUT + GPIO_CR_CNF_INPUT_FLOATING;
 80051cc:	2204      	movs	r2, #4
 80051ce:	e767      	b.n	80050a0 <HAL_GPIO_Init+0x58>
        SET_BIT(temp, (GPIO_GET_INDEX(GPIOx)) << (4u * (position & 0x03u)));
 80051d0:	2500      	movs	r5, #0
 80051d2:	e7a8      	b.n	8005126 <HAL_GPIO_Init+0xde>
 80051d4:	2501      	movs	r5, #1
 80051d6:	e7a6      	b.n	8005126 <HAL_GPIO_Init+0xde>
 80051d8:	40021000 	.word	0x40021000
 80051dc:	40010400 	.word	0x40010400
 80051e0:	10320000 	.word	0x10320000
 80051e4:	10120000 	.word	0x10120000
 80051e8:	40010800 	.word	0x40010800
 80051ec:	10220000 	.word	0x10220000
 80051f0:	10310000 	.word	0x10310000

080051f4 <HAL_GPIO_ReadPin>:
  GPIO_PinState bitstatus;

  /* Check the parameters */
  assert_param(IS_GPIO_PIN(GPIO_Pin));

  if ((GPIOx->IDR & GPIO_Pin) != (uint32_t)GPIO_PIN_RESET)
 80051f4:	6883      	ldr	r3, [r0, #8]
 80051f6:	4219      	tst	r1, r3
  else
  {
    bitstatus = GPIO_PIN_RESET;
  }
  return bitstatus;
}
 80051f8:	bf14      	ite	ne
 80051fa:	2001      	movne	r0, #1
 80051fc:	2000      	moveq	r0, #0
 80051fe:	4770      	bx	lr

08005200 <HAL_GPIO_WritePin>:
{
  /* Check the parameters */
  assert_param(IS_GPIO_PIN(GPIO_Pin));
  assert_param(IS_GPIO_PIN_ACTION(PinState));

  if (PinState != GPIO_PIN_RESET)
 8005200:	b10a      	cbz	r2, 8005206 <HAL_GPIO_WritePin+0x6>
  {
    GPIOx->BSRR = GPIO_Pin;
  }
  else
  {
    GPIOx->BSRR = (uint32_t)GPIO_Pin << 16u;
 8005202:	6101      	str	r1, [r0, #16]
  }
}
 8005204:	4770      	bx	lr
    GPIOx->BSRR = (uint32_t)GPIO_Pin << 16u;
 8005206:	0409      	lsls	r1, r1, #16
 8005208:	e7fb      	b.n	8005202 <HAL_GPIO_WritePin+0x2>
	...

0800520c <HAL_GPIO_EXTI_IRQHandler>:
  * @retval None
  */
void HAL_GPIO_EXTI_IRQHandler(uint16_t GPIO_Pin)
{
  /* EXTI line interrupt detected */
  if (__HAL_GPIO_EXTI_GET_IT(GPIO_Pin) != 0x00u)
 800520c:	4a04      	ldr	r2, [pc, #16]	; (8005220 <HAL_GPIO_EXTI_IRQHandler+0x14>)
{
 800520e:	b508      	push	{r3, lr}
  if (__HAL_GPIO_EXTI_GET_IT(GPIO_Pin) != 0x00u)
 8005210:	6951      	ldr	r1, [r2, #20]
 8005212:	4201      	tst	r1, r0
 8005214:	d002      	beq.n	800521c <HAL_GPIO_EXTI_IRQHandler+0x10>
  {
    __HAL_GPIO_EXTI_CLEAR_IT(GPIO_Pin);
 8005216:	6150      	str	r0, [r2, #20]
    HAL_GPIO_EXTI_Callback(GPIO_Pin);
 8005218:	f7ff f83c 	bl	8004294 <HAL_GPIO_EXTI_Callback>
  }
}
 800521c:	bd08      	pop	{r3, pc}
 800521e:	bf00      	nop
 8005220:	40010400 	.word	0x40010400

08005224 <HAL_RCC_OscConfig>:
  *         supported by this macro. User should request a transition to HSE Off
  *         first and then HSE On or HSE Bypass.
  * @retval HAL status
  */
HAL_StatusTypeDef HAL_RCC_OscConfig(RCC_OscInitTypeDef  *RCC_OscInitStruct)
{
 8005224:	e92d 41f3 	stmdb	sp!, {r0, r1, r4, r5, r6, r7, r8, lr}
  uint32_t tickstart;
  uint32_t pll_config;

  /* Check Null pointer */
  if (RCC_OscInitStruct == NULL)
 8005228:	4605      	mov	r5, r0
 800522a:	b338      	cbz	r0, 800527c <HAL_RCC_OscConfig+0x58>

  /* Check the parameters */
  assert_param(IS_RCC_OSCILLATORTYPE(RCC_OscInitStruct->OscillatorType));

  /*------------------------------- HSE Configuration ------------------------*/
  if (((RCC_OscInitStruct->OscillatorType) & RCC_OSCILLATORTYPE_HSE) == RCC_OSCILLATORTYPE_HSE)
 800522c:	6803      	ldr	r3, [r0, #0]
 800522e:	07db      	lsls	r3, r3, #31
 8005230:	d410      	bmi.n	8005254 <HAL_RCC_OscConfig+0x30>
        }
      }
    }
  }
  /*----------------------------- HSI Configuration --------------------------*/
  if (((RCC_OscInitStruct->OscillatorType) & RCC_OSCILLATORTYPE_HSI) == RCC_OSCILLATORTYPE_HSI)
 8005232:	682b      	ldr	r3, [r5, #0]
 8005234:	079f      	lsls	r7, r3, #30
 8005236:	d45e      	bmi.n	80052f6 <HAL_RCC_OscConfig+0xd2>
        }
      }
    }
  }
  /*------------------------------ LSI Configuration -------------------------*/
  if (((RCC_OscInitStruct->OscillatorType) & RCC_OSCILLATORTYPE_LSI) == RCC_OSCILLATORTYPE_LSI)
 8005238:	682b      	ldr	r3, [r5, #0]
 800523a:	0719      	lsls	r1, r3, #28
 800523c:	f100 8095 	bmi.w	800536a <HAL_RCC_OscConfig+0x146>
        }
      }
    }
  }
  /*------------------------------ LSE Configuration -------------------------*/
  if (((RCC_OscInitStruct->OscillatorType) & RCC_OSCILLATORTYPE_LSE) == RCC_OSCILLATORTYPE_LSE)
 8005240:	682b      	ldr	r3, [r5, #0]
 8005242:	075a      	lsls	r2, r3, #29
 8005244:	f100 80c1 	bmi.w	80053ca <HAL_RCC_OscConfig+0x1a6>

#endif /* RCC_CR_PLL2ON */
  /*-------------------------------- PLL Configuration -----------------------*/
  /* Check the parameters */
  assert_param(IS_RCC_PLL(RCC_OscInitStruct->PLL.PLLState));
  if ((RCC_OscInitStruct->PLL.PLLState) != RCC_PLL_NONE)
 8005248:	69e8      	ldr	r0, [r5, #28]
 800524a:	2800      	cmp	r0, #0
 800524c:	f040 812c 	bne.w	80054a8 <HAL_RCC_OscConfig+0x284>
        }
      }
    }
  }

  return HAL_OK;
 8005250:	2000      	movs	r0, #0
 8005252:	e029      	b.n	80052a8 <HAL_RCC_OscConfig+0x84>
    if ((__HAL_RCC_GET_SYSCLK_SOURCE() == RCC_SYSCLKSOURCE_STATUS_HSE)
 8005254:	4c90      	ldr	r4, [pc, #576]	; (8005498 <HAL_RCC_OscConfig+0x274>)
 8005256:	6863      	ldr	r3, [r4, #4]
 8005258:	f003 030c 	and.w	r3, r3, #12
 800525c:	2b04      	cmp	r3, #4
 800525e:	d007      	beq.n	8005270 <HAL_RCC_OscConfig+0x4c>
        || ((__HAL_RCC_GET_SYSCLK_SOURCE() == RCC_SYSCLKSOURCE_STATUS_PLLCLK) && (__HAL_RCC_GET_PLL_OSCSOURCE() == RCC_PLLSOURCE_HSE)))
 8005260:	6863      	ldr	r3, [r4, #4]
 8005262:	f003 030c 	and.w	r3, r3, #12
 8005266:	2b08      	cmp	r3, #8
 8005268:	d10a      	bne.n	8005280 <HAL_RCC_OscConfig+0x5c>
 800526a:	6863      	ldr	r3, [r4, #4]
 800526c:	03de      	lsls	r6, r3, #15
 800526e:	d507      	bpl.n	8005280 <HAL_RCC_OscConfig+0x5c>
      if ((__HAL_RCC_GET_FLAG(RCC_FLAG_HSERDY) != RESET) && (RCC_OscInitStruct->HSEState == RCC_HSE_OFF))
 8005270:	6823      	ldr	r3, [r4, #0]
 8005272:	039c      	lsls	r4, r3, #14
 8005274:	d5dd      	bpl.n	8005232 <HAL_RCC_OscConfig+0xe>
 8005276:	686b      	ldr	r3, [r5, #4]
 8005278:	2b00      	cmp	r3, #0
 800527a:	d1da      	bne.n	8005232 <HAL_RCC_OscConfig+0xe>
          return HAL_ERROR;
 800527c:	2001      	movs	r0, #1
 800527e:	e013      	b.n	80052a8 <HAL_RCC_OscConfig+0x84>
      __HAL_RCC_HSE_CONFIG(RCC_OscInitStruct->HSEState);
 8005280:	686b      	ldr	r3, [r5, #4]
 8005282:	f5b3 3f80 	cmp.w	r3, #65536	; 0x10000
 8005286:	d112      	bne.n	80052ae <HAL_RCC_OscConfig+0x8a>
 8005288:	6823      	ldr	r3, [r4, #0]
 800528a:	f443 3380 	orr.w	r3, r3, #65536	; 0x10000
 800528e:	6023      	str	r3, [r4, #0]
        tickstart = HAL_GetTick();
 8005290:	f7ff fcdc 	bl	8004c4c <HAL_GetTick>
 8005294:	4606      	mov	r6, r0
        while (__HAL_RCC_GET_FLAG(RCC_FLAG_HSERDY) == RESET)
 8005296:	6823      	ldr	r3, [r4, #0]
 8005298:	0398      	lsls	r0, r3, #14
 800529a:	d4ca      	bmi.n	8005232 <HAL_RCC_OscConfig+0xe>
          if ((HAL_GetTick() - tickstart) > HSE_TIMEOUT_VALUE)
 800529c:	f7ff fcd6 	bl	8004c4c <HAL_GetTick>
 80052a0:	1b80      	subs	r0, r0, r6
 80052a2:	2864      	cmp	r0, #100	; 0x64
 80052a4:	d9f7      	bls.n	8005296 <HAL_RCC_OscConfig+0x72>
            return HAL_TIMEOUT;
 80052a6:	2003      	movs	r0, #3
}
 80052a8:	b002      	add	sp, #8
 80052aa:	e8bd 81f0 	ldmia.w	sp!, {r4, r5, r6, r7, r8, pc}
      __HAL_RCC_HSE_CONFIG(RCC_OscInitStruct->HSEState);
 80052ae:	b99b      	cbnz	r3, 80052d8 <HAL_RCC_OscConfig+0xb4>
 80052b0:	6823      	ldr	r3, [r4, #0]
 80052b2:	f423 3380 	bic.w	r3, r3, #65536	; 0x10000
 80052b6:	6023      	str	r3, [r4, #0]
 80052b8:	6823      	ldr	r3, [r4, #0]
 80052ba:	f423 2380 	bic.w	r3, r3, #262144	; 0x40000
 80052be:	6023      	str	r3, [r4, #0]
        tickstart = HAL_GetTick();
 80052c0:	f7ff fcc4 	bl	8004c4c <HAL_GetTick>
 80052c4:	4606      	mov	r6, r0
        while (__HAL_RCC_GET_FLAG(RCC_FLAG_HSERDY) != RESET)
 80052c6:	6823      	ldr	r3, [r4, #0]
 80052c8:	0399      	lsls	r1, r3, #14
 80052ca:	d5b2      	bpl.n	8005232 <HAL_RCC_OscConfig+0xe>
          if ((HAL_GetTick() - tickstart) > HSE_TIMEOUT_VALUE)
 80052cc:	f7ff fcbe 	bl	8004c4c <HAL_GetTick>
 80052d0:	1b80      	subs	r0, r0, r6
 80052d2:	2864      	cmp	r0, #100	; 0x64
 80052d4:	d9f7      	bls.n	80052c6 <HAL_RCC_OscConfig+0xa2>
 80052d6:	e7e6      	b.n	80052a6 <HAL_RCC_OscConfig+0x82>
      __HAL_RCC_HSE_CONFIG(RCC_OscInitStruct->HSEState);
 80052d8:	f5b3 2fa0 	cmp.w	r3, #327680	; 0x50000
 80052dc:	6823      	ldr	r3, [r4, #0]
 80052de:	d103      	bne.n	80052e8 <HAL_RCC_OscConfig+0xc4>
 80052e0:	f443 2380 	orr.w	r3, r3, #262144	; 0x40000
 80052e4:	6023      	str	r3, [r4, #0]
 80052e6:	e7cf      	b.n	8005288 <HAL_RCC_OscConfig+0x64>
 80052e8:	f423 3380 	bic.w	r3, r3, #65536	; 0x10000
 80052ec:	6023      	str	r3, [r4, #0]
 80052ee:	6823      	ldr	r3, [r4, #0]
 80052f0:	f423 2380 	bic.w	r3, r3, #262144	; 0x40000
 80052f4:	e7cb      	b.n	800528e <HAL_RCC_OscConfig+0x6a>
    if ((__HAL_RCC_GET_SYSCLK_SOURCE() == RCC_SYSCLKSOURCE_STATUS_HSI)
 80052f6:	4c68      	ldr	r4, [pc, #416]	; (8005498 <HAL_RCC_OscConfig+0x274>)
 80052f8:	6863      	ldr	r3, [r4, #4]
 80052fa:	f013 0f0c 	tst.w	r3, #12
 80052fe:	d007      	beq.n	8005310 <HAL_RCC_OscConfig+0xec>
        || ((__HAL_RCC_GET_SYSCLK_SOURCE() == RCC_SYSCLKSOURCE_STATUS_PLLCLK) && (__HAL_RCC_GET_PLL_OSCSOURCE() == RCC_PLLSOURCE_HSI_DIV2)))
 8005300:	6863      	ldr	r3, [r4, #4]
 8005302:	f003 030c 	and.w	r3, r3, #12
 8005306:	2b08      	cmp	r3, #8
 8005308:	d110      	bne.n	800532c <HAL_RCC_OscConfig+0x108>
 800530a:	6863      	ldr	r3, [r4, #4]
 800530c:	03da      	lsls	r2, r3, #15
 800530e:	d40d      	bmi.n	800532c <HAL_RCC_OscConfig+0x108>
      if ((__HAL_RCC_GET_FLAG(RCC_FLAG_HSIRDY) != RESET) && (RCC_OscInitStruct->HSIState != RCC_HSI_ON))
 8005310:	6823      	ldr	r3, [r4, #0]
 8005312:	079b      	lsls	r3, r3, #30
 8005314:	d502      	bpl.n	800531c <HAL_RCC_OscConfig+0xf8>
 8005316:	692b      	ldr	r3, [r5, #16]
 8005318:	2b01      	cmp	r3, #1
 800531a:	d1af      	bne.n	800527c <HAL_RCC_OscConfig+0x58>
        __HAL_RCC_HSI_CALIBRATIONVALUE_ADJUST(RCC_OscInitStruct->HSICalibrationValue);
 800531c:	6823      	ldr	r3, [r4, #0]
 800531e:	696a      	ldr	r2, [r5, #20]
 8005320:	f023 03f8 	bic.w	r3, r3, #248	; 0xf8
 8005324:	ea43 03c2 	orr.w	r3, r3, r2, lsl #3
 8005328:	6023      	str	r3, [r4, #0]
 800532a:	e785      	b.n	8005238 <HAL_RCC_OscConfig+0x14>
      if (RCC_OscInitStruct->HSIState != RCC_HSI_OFF)
 800532c:	692a      	ldr	r2, [r5, #16]
 800532e:	4b5b      	ldr	r3, [pc, #364]	; (800549c <HAL_RCC_OscConfig+0x278>)
 8005330:	b16a      	cbz	r2, 800534e <HAL_RCC_OscConfig+0x12a>
        __HAL_RCC_HSI_ENABLE();
 8005332:	2201      	movs	r2, #1
 8005334:	601a      	str	r2, [r3, #0]
        tickstart = HAL_GetTick();
 8005336:	f7ff fc89 	bl	8004c4c <HAL_GetTick>
 800533a:	4606      	mov	r6, r0
        while (__HAL_RCC_GET_FLAG(RCC_FLAG_HSIRDY) == RESET)
 800533c:	6823      	ldr	r3, [r4, #0]
 800533e:	079f      	lsls	r7, r3, #30
 8005340:	d4ec      	bmi.n	800531c <HAL_RCC_OscConfig+0xf8>
          if ((HAL_GetTick() - tickstart) > HSI_TIMEOUT_VALUE)
 8005342:	f7ff fc83 	bl	8004c4c <HAL_GetTick>
 8005346:	1b80      	subs	r0, r0, r6
 8005348:	2802      	cmp	r0, #2
 800534a:	d9f7      	bls.n	800533c <HAL_RCC_OscConfig+0x118>
 800534c:	e7ab      	b.n	80052a6 <HAL_RCC_OscConfig+0x82>
        __HAL_RCC_HSI_DISABLE();
 800534e:	601a      	str	r2, [r3, #0]
        tickstart = HAL_GetTick();
 8005350:	f7ff fc7c 	bl	8004c4c <HAL_GetTick>
 8005354:	4606      	mov	r6, r0
        while (__HAL_RCC_GET_FLAG(RCC_FLAG_HSIRDY) != RESET)
 8005356:	6823      	ldr	r3, [r4, #0]
 8005358:	0798      	lsls	r0, r3, #30
 800535a:	f57f af6d 	bpl.w	8005238 <HAL_RCC_OscConfig+0x14>
          if ((HAL_GetTick() - tickstart) > HSI_TIMEOUT_VALUE)
 800535e:	f7ff fc75 	bl	8004c4c <HAL_GetTick>
 8005362:	1b80      	subs	r0, r0, r6
 8005364:	2802      	cmp	r0, #2
 8005366:	d9f6      	bls.n	8005356 <HAL_RCC_OscConfig+0x132>
 8005368:	e79d      	b.n	80052a6 <HAL_RCC_OscConfig+0x82>
    if (RCC_OscInitStruct->LSIState != RCC_LSI_OFF)
 800536a:	69aa      	ldr	r2, [r5, #24]
 800536c:	4e4a      	ldr	r6, [pc, #296]	; (8005498 <HAL_RCC_OscConfig+0x274>)
 800536e:	4b4b      	ldr	r3, [pc, #300]	; (800549c <HAL_RCC_OscConfig+0x278>)
 8005370:	b1e2      	cbz	r2, 80053ac <HAL_RCC_OscConfig+0x188>
      __HAL_RCC_LSI_ENABLE();
 8005372:	2201      	movs	r2, #1
 8005374:	f8c3 2480 	str.w	r2, [r3, #1152]	; 0x480
      tickstart = HAL_GetTick();
 8005378:	f7ff fc68 	bl	8004c4c <HAL_GetTick>
 800537c:	4604      	mov	r4, r0
      while (__HAL_RCC_GET_FLAG(RCC_FLAG_LSIRDY) == RESET)
 800537e:	6a73      	ldr	r3, [r6, #36]	; 0x24
 8005380:	079b      	lsls	r3, r3, #30
 8005382:	d50d      	bpl.n	80053a0 <HAL_RCC_OscConfig+0x17c>
  * @param  mdelay: specifies the delay time length, in milliseconds.
  * @retval None
  */
static void RCC_Delay(uint32_t mdelay)
{
  __IO uint32_t Delay = mdelay * (SystemCoreClock / 8U / 1000U);
 8005384:	f44f 52fa 	mov.w	r2, #8000	; 0x1f40
 8005388:	4b45      	ldr	r3, [pc, #276]	; (80054a0 <HAL_RCC_OscConfig+0x27c>)
 800538a:	681b      	ldr	r3, [r3, #0]
 800538c:	fbb3 f3f2 	udiv	r3, r3, r2
 8005390:	9301      	str	r3, [sp, #4]
  do
  {
    __NOP();
 8005392:	bf00      	nop
  }
  while (Delay --);
 8005394:	9b01      	ldr	r3, [sp, #4]
 8005396:	1e5a      	subs	r2, r3, #1
 8005398:	9201      	str	r2, [sp, #4]
 800539a:	2b00      	cmp	r3, #0
 800539c:	d1f9      	bne.n	8005392 <HAL_RCC_OscConfig+0x16e>
 800539e:	e74f      	b.n	8005240 <HAL_RCC_OscConfig+0x1c>
        if ((HAL_GetTick() - tickstart) > LSI_TIMEOUT_VALUE)
 80053a0:	f7ff fc54 	bl	8004c4c <HAL_GetTick>
 80053a4:	1b00      	subs	r0, r0, r4
 80053a6:	2802      	cmp	r0, #2
 80053a8:	d9e9      	bls.n	800537e <HAL_RCC_OscConfig+0x15a>
 80053aa:	e77c      	b.n	80052a6 <HAL_RCC_OscConfig+0x82>
      __HAL_RCC_LSI_DISABLE();
 80053ac:	f8c3 2480 	str.w	r2, [r3, #1152]	; 0x480
      tickstart = HAL_GetTick();
 80053b0:	f7ff fc4c 	bl	8004c4c <HAL_GetTick>
 80053b4:	4604      	mov	r4, r0
      while (__HAL_RCC_GET_FLAG(RCC_FLAG_LSIRDY) != RESET)
 80053b6:	6a73      	ldr	r3, [r6, #36]	; 0x24
 80053b8:	079f      	lsls	r7, r3, #30
 80053ba:	f57f af41 	bpl.w	8005240 <HAL_RCC_OscConfig+0x1c>
        if ((HAL_GetTick() - tickstart) > LSI_TIMEOUT_VALUE)
 80053be:	f7ff fc45 	bl	8004c4c <HAL_GetTick>
 80053c2:	1b00      	subs	r0, r0, r4
 80053c4:	2802      	cmp	r0, #2
 80053c6:	d9f6      	bls.n	80053b6 <HAL_RCC_OscConfig+0x192>
 80053c8:	e76d      	b.n	80052a6 <HAL_RCC_OscConfig+0x82>
    if (__HAL_RCC_PWR_IS_CLK_DISABLED())
 80053ca:	4c33      	ldr	r4, [pc, #204]	; (8005498 <HAL_RCC_OscConfig+0x274>)
 80053cc:	69e3      	ldr	r3, [r4, #28]
 80053ce:	00d8      	lsls	r0, r3, #3
 80053d0:	d424      	bmi.n	800541c <HAL_RCC_OscConfig+0x1f8>
      pwrclkchanged = SET;
 80053d2:	2701      	movs	r7, #1
      __HAL_RCC_PWR_CLK_ENABLE();
 80053d4:	69e3      	ldr	r3, [r4, #28]
 80053d6:	f043 5380 	orr.w	r3, r3, #268435456	; 0x10000000
 80053da:	61e3      	str	r3, [r4, #28]
 80053dc:	69e3      	ldr	r3, [r4, #28]
 80053de:	f003 5380 	and.w	r3, r3, #268435456	; 0x10000000
 80053e2:	9300      	str	r3, [sp, #0]
 80053e4:	9b00      	ldr	r3, [sp, #0]
    if (HAL_IS_BIT_CLR(PWR->CR, PWR_CR_DBP))
 80053e6:	4e2f      	ldr	r6, [pc, #188]	; (80054a4 <HAL_RCC_OscConfig+0x280>)
 80053e8:	6833      	ldr	r3, [r6, #0]
 80053ea:	05d9      	lsls	r1, r3, #23
 80053ec:	d518      	bpl.n	8005420 <HAL_RCC_OscConfig+0x1fc>
    __HAL_RCC_LSE_CONFIG(RCC_OscInitStruct->LSEState);
 80053ee:	68eb      	ldr	r3, [r5, #12]
 80053f0:	2b01      	cmp	r3, #1
 80053f2:	d126      	bne.n	8005442 <HAL_RCC_OscConfig+0x21e>
 80053f4:	6a23      	ldr	r3, [r4, #32]
 80053f6:	f043 0301 	orr.w	r3, r3, #1
 80053fa:	6223      	str	r3, [r4, #32]
      tickstart = HAL_GetTick();
 80053fc:	f7ff fc26 	bl	8004c4c <HAL_GetTick>
        if ((HAL_GetTick() - tickstart) > RCC_LSE_TIMEOUT_VALUE)
 8005400:	f241 3888 	movw	r8, #5000	; 0x1388
      tickstart = HAL_GetTick();
 8005404:	4606      	mov	r6, r0
      while (__HAL_RCC_GET_FLAG(RCC_FLAG_LSERDY) == RESET)
 8005406:	6a23      	ldr	r3, [r4, #32]
 8005408:	079b      	lsls	r3, r3, #30
 800540a:	d53f      	bpl.n	800548c <HAL_RCC_OscConfig+0x268>
    if (pwrclkchanged == SET)
 800540c:	2f00      	cmp	r7, #0
 800540e:	f43f af1b 	beq.w	8005248 <HAL_RCC_OscConfig+0x24>
      __HAL_RCC_PWR_CLK_DISABLE();
 8005412:	69e3      	ldr	r3, [r4, #28]
 8005414:	f023 5380 	bic.w	r3, r3, #268435456	; 0x10000000
 8005418:	61e3      	str	r3, [r4, #28]
 800541a:	e715      	b.n	8005248 <HAL_RCC_OscConfig+0x24>
    FlagStatus       pwrclkchanged = RESET;
 800541c:	2700      	movs	r7, #0
 800541e:	e7e2      	b.n	80053e6 <HAL_RCC_OscConfig+0x1c2>
      SET_BIT(PWR->CR, PWR_CR_DBP);
 8005420:	6833      	ldr	r3, [r6, #0]
 8005422:	f443 7380 	orr.w	r3, r3, #256	; 0x100
 8005426:	6033      	str	r3, [r6, #0]
      tickstart = HAL_GetTick();
 8005428:	f7ff fc10 	bl	8004c4c <HAL_GetTick>
 800542c:	4680      	mov	r8, r0
      while (HAL_IS_BIT_CLR(PWR->CR, PWR_CR_DBP))
 800542e:	6833      	ldr	r3, [r6, #0]
 8005430:	05da      	lsls	r2, r3, #23
 8005432:	d4dc      	bmi.n	80053ee <HAL_RCC_OscConfig+0x1ca>
        if ((HAL_GetTick() - tickstart) > RCC_DBP_TIMEOUT_VALUE)
 8005434:	f7ff fc0a 	bl	8004c4c <HAL_GetTick>
 8005438:	eba0 0008 	sub.w	r0, r0, r8
 800543c:	2864      	cmp	r0, #100	; 0x64
 800543e:	d9f6      	bls.n	800542e <HAL_RCC_OscConfig+0x20a>
 8005440:	e731      	b.n	80052a6 <HAL_RCC_OscConfig+0x82>
    __HAL_RCC_LSE_CONFIG(RCC_OscInitStruct->LSEState);
 8005442:	b9ab      	cbnz	r3, 8005470 <HAL_RCC_OscConfig+0x24c>
 8005444:	6a23      	ldr	r3, [r4, #32]
        if ((HAL_GetTick() - tickstart) > RCC_LSE_TIMEOUT_VALUE)
 8005446:	f241 3888 	movw	r8, #5000	; 0x1388
    __HAL_RCC_LSE_CONFIG(RCC_OscInitStruct->LSEState);
 800544a:	f023 0301 	bic.w	r3, r3, #1
 800544e:	6223      	str	r3, [r4, #32]
 8005450:	6a23      	ldr	r3, [r4, #32]
 8005452:	f023 0304 	bic.w	r3, r3, #4
 8005456:	6223      	str	r3, [r4, #32]
      tickstart = HAL_GetTick();
 8005458:	f7ff fbf8 	bl	8004c4c <HAL_GetTick>
 800545c:	4606      	mov	r6, r0
      while (__HAL_RCC_GET_FLAG(RCC_FLAG_LSERDY) != RESET)
 800545e:	6a23      	ldr	r3, [r4, #32]
 8005460:	0798      	lsls	r0, r3, #30
 8005462:	d5d3      	bpl.n	800540c <HAL_RCC_OscConfig+0x1e8>
        if ((HAL_GetTick() - tickstart) > RCC_LSE_TIMEOUT_VALUE)
 8005464:	f7ff fbf2 	bl	8004c4c <HAL_GetTick>
 8005468:	1b80      	subs	r0, r0, r6
 800546a:	4540      	cmp	r0, r8
 800546c:	d9f7      	bls.n	800545e <HAL_RCC_OscConfig+0x23a>
 800546e:	e71a      	b.n	80052a6 <HAL_RCC_OscConfig+0x82>
    __HAL_RCC_LSE_CONFIG(RCC_OscInitStruct->LSEState);
 8005470:	2b05      	cmp	r3, #5
 8005472:	6a23      	ldr	r3, [r4, #32]
 8005474:	d103      	bne.n	800547e <HAL_RCC_OscConfig+0x25a>
 8005476:	f043 0304 	orr.w	r3, r3, #4
 800547a:	6223      	str	r3, [r4, #32]
 800547c:	e7ba      	b.n	80053f4 <HAL_RCC_OscConfig+0x1d0>
 800547e:	f023 0301 	bic.w	r3, r3, #1
 8005482:	6223      	str	r3, [r4, #32]
 8005484:	6a23      	ldr	r3, [r4, #32]
 8005486:	f023 0304 	bic.w	r3, r3, #4
 800548a:	e7b6      	b.n	80053fa <HAL_RCC_OscConfig+0x1d6>
        if ((HAL_GetTick() - tickstart) > RCC_LSE_TIMEOUT_VALUE)
 800548c:	f7ff fbde 	bl	8004c4c <HAL_GetTick>
 8005490:	1b80      	subs	r0, r0, r6
 8005492:	4540      	cmp	r0, r8
 8005494:	d9b7      	bls.n	8005406 <HAL_RCC_OscConfig+0x1e2>
 8005496:	e706      	b.n	80052a6 <HAL_RCC_OscConfig+0x82>
 8005498:	40021000 	.word	0x40021000
 800549c:	42420000 	.word	0x42420000
 80054a0:	20000004 	.word	0x20000004
 80054a4:	40007000 	.word	0x40007000
    if (__HAL_RCC_GET_SYSCLK_SOURCE() != RCC_SYSCLKSOURCE_STATUS_PLLCLK)
 80054a8:	4c2a      	ldr	r4, [pc, #168]	; (8005554 <HAL_RCC_OscConfig+0x330>)
 80054aa:	6863      	ldr	r3, [r4, #4]
 80054ac:	f003 030c 	and.w	r3, r3, #12
 80054b0:	2b08      	cmp	r3, #8
 80054b2:	d03e      	beq.n	8005532 <HAL_RCC_OscConfig+0x30e>
      if ((RCC_OscInitStruct->PLL.PLLState) == RCC_PLL_ON)
 80054b4:	2200      	movs	r2, #0
 80054b6:	4b28      	ldr	r3, [pc, #160]	; (8005558 <HAL_RCC_OscConfig+0x334>)
 80054b8:	2802      	cmp	r0, #2
        __HAL_RCC_PLL_DISABLE();
 80054ba:	661a      	str	r2, [r3, #96]	; 0x60
      if ((RCC_OscInitStruct->PLL.PLLState) == RCC_PLL_ON)
 80054bc:	d12c      	bne.n	8005518 <HAL_RCC_OscConfig+0x2f4>
        tickstart = HAL_GetTick();
 80054be:	f7ff fbc5 	bl	8004c4c <HAL_GetTick>
 80054c2:	4606      	mov	r6, r0
        while (__HAL_RCC_GET_FLAG(RCC_FLAG_PLLRDY)  != RESET)
 80054c4:	6823      	ldr	r3, [r4, #0]
 80054c6:	0199      	lsls	r1, r3, #6
 80054c8:	d420      	bmi.n	800550c <HAL_RCC_OscConfig+0x2e8>
        if (RCC_OscInitStruct->PLL.PLLSource == RCC_PLLSOURCE_HSE)
 80054ca:	6a2b      	ldr	r3, [r5, #32]
 80054cc:	f5b3 3f80 	cmp.w	r3, #65536	; 0x10000
 80054d0:	d105      	bne.n	80054de <HAL_RCC_OscConfig+0x2ba>
          __HAL_RCC_HSE_PREDIV_CONFIG(RCC_OscInitStruct->HSEPredivValue);
 80054d2:	6862      	ldr	r2, [r4, #4]
 80054d4:	68a9      	ldr	r1, [r5, #8]
 80054d6:	f422 3200 	bic.w	r2, r2, #131072	; 0x20000
 80054da:	430a      	orrs	r2, r1
 80054dc:	6062      	str	r2, [r4, #4]
        __HAL_RCC_PLL_CONFIG(RCC_OscInitStruct->PLL.PLLSource,
 80054de:	6a69      	ldr	r1, [r5, #36]	; 0x24
 80054e0:	6862      	ldr	r2, [r4, #4]
 80054e2:	430b      	orrs	r3, r1
 80054e4:	f422 1274 	bic.w	r2, r2, #3997696	; 0x3d0000
 80054e8:	4313      	orrs	r3, r2
        __HAL_RCC_PLL_ENABLE();
 80054ea:	2201      	movs	r2, #1
        __HAL_RCC_PLL_CONFIG(RCC_OscInitStruct->PLL.PLLSource,
 80054ec:	6063      	str	r3, [r4, #4]
        __HAL_RCC_PLL_ENABLE();
 80054ee:	4b1a      	ldr	r3, [pc, #104]	; (8005558 <HAL_RCC_OscConfig+0x334>)
 80054f0:	661a      	str	r2, [r3, #96]	; 0x60
        tickstart = HAL_GetTick();
 80054f2:	f7ff fbab 	bl	8004c4c <HAL_GetTick>
 80054f6:	4605      	mov	r5, r0
        while (__HAL_RCC_GET_FLAG(RCC_FLAG_PLLRDY)  == RESET)
 80054f8:	6823      	ldr	r3, [r4, #0]
 80054fa:	019a      	lsls	r2, r3, #6
 80054fc:	f53f aea8 	bmi.w	8005250 <HAL_RCC_OscConfig+0x2c>
          if ((HAL_GetTick() - tickstart) > PLL_TIMEOUT_VALUE)
 8005500:	f7ff fba4 	bl	8004c4c <HAL_GetTick>
 8005504:	1b40      	subs	r0, r0, r5
 8005506:	2802      	cmp	r0, #2
 8005508:	d9f6      	bls.n	80054f8 <HAL_RCC_OscConfig+0x2d4>
 800550a:	e6cc      	b.n	80052a6 <HAL_RCC_OscConfig+0x82>
          if ((HAL_GetTick() - tickstart) > PLL_TIMEOUT_VALUE)
 800550c:	f7ff fb9e 	bl	8004c4c <HAL_GetTick>
 8005510:	1b80      	subs	r0, r0, r6
 8005512:	2802      	cmp	r0, #2
 8005514:	d9d6      	bls.n	80054c4 <HAL_RCC_OscConfig+0x2a0>
 8005516:	e6c6      	b.n	80052a6 <HAL_RCC_OscConfig+0x82>
        tickstart = HAL_GetTick();
 8005518:	f7ff fb98 	bl	8004c4c <HAL_GetTick>
 800551c:	4605      	mov	r5, r0
        while (__HAL_RCC_GET_FLAG(RCC_FLAG_PLLRDY)  != RESET)
 800551e:	6823      	ldr	r3, [r4, #0]
 8005520:	019b      	lsls	r3, r3, #6
 8005522:	f57f ae95 	bpl.w	8005250 <HAL_RCC_OscConfig+0x2c>
          if ((HAL_GetTick() - tickstart) > PLL_TIMEOUT_VALUE)
 8005526:	f7ff fb91 	bl	8004c4c <HAL_GetTick>
 800552a:	1b40      	subs	r0, r0, r5
 800552c:	2802      	cmp	r0, #2
 800552e:	d9f6      	bls.n	800551e <HAL_RCC_OscConfig+0x2fa>
 8005530:	e6b9      	b.n	80052a6 <HAL_RCC_OscConfig+0x82>
      if ((RCC_OscInitStruct->PLL.PLLState) == RCC_PLL_OFF)
 8005532:	2801      	cmp	r0, #1
 8005534:	f43f aeb8 	beq.w	80052a8 <HAL_RCC_OscConfig+0x84>
        pll_config = RCC->CFGR;
 8005538:	6863      	ldr	r3, [r4, #4]
        if ((READ_BIT(pll_config, RCC_CFGR_PLLSRC) != RCC_OscInitStruct->PLL.PLLSource) ||
 800553a:	6a2a      	ldr	r2, [r5, #32]
 800553c:	f403 3180 	and.w	r1, r3, #65536	; 0x10000
 8005540:	4291      	cmp	r1, r2
 8005542:	f47f ae9b 	bne.w	800527c <HAL_RCC_OscConfig+0x58>
 8005546:	6a6a      	ldr	r2, [r5, #36]	; 0x24
            (READ_BIT(pll_config, RCC_CFGR_PLLMULL) != RCC_OscInitStruct->PLL.PLLMUL))
 8005548:	f403 1370 	and.w	r3, r3, #3932160	; 0x3c0000
        if ((READ_BIT(pll_config, RCC_CFGR_PLLSRC) != RCC_OscInitStruct->PLL.PLLSource) ||
 800554c:	4293      	cmp	r3, r2
 800554e:	f43f ae7f 	beq.w	8005250 <HAL_RCC_OscConfig+0x2c>
 8005552:	e693      	b.n	800527c <HAL_RCC_OscConfig+0x58>
 8005554:	40021000 	.word	0x40021000
 8005558:	42420000 	.word	0x42420000

0800555c <HAL_RCC_GetSysClockFreq>:
{
 800555c:	b530      	push	{r4, r5, lr}
  const uint8_t aPLLMULFactorTable[16] = {2, 3, 4, 5, 6, 7, 8, 9, 10, 11, 12, 13, 14, 15, 16, 16};
 800555e:	4b18      	ldr	r3, [pc, #96]	; (80055c0 <HAL_RCC_GetSysClockFreq+0x64>)
{
 8005560:	b087      	sub	sp, #28
  const uint8_t aPLLMULFactorTable[16] = {2, 3, 4, 5, 6, 7, 8, 9, 10, 11, 12, 13, 14, 15, 16, 16};
 8005562:	ac02      	add	r4, sp, #8
 8005564:	f103 0510 	add.w	r5, r3, #16
 8005568:	4622      	mov	r2, r4
 800556a:	6818      	ldr	r0, [r3, #0]
 800556c:	6859      	ldr	r1, [r3, #4]
 800556e:	3308      	adds	r3, #8
 8005570:	c203      	stmia	r2!, {r0, r1}
 8005572:	42ab      	cmp	r3, r5
 8005574:	4614      	mov	r4, r2
 8005576:	d1f7      	bne.n	8005568 <HAL_RCC_GetSysClockFreq+0xc>
  const uint8_t aPredivFactorTable[2] = {1, 2};
 8005578:	f240 2301 	movw	r3, #513	; 0x201
  tmpreg = RCC->CFGR;
 800557c:	4911      	ldr	r1, [pc, #68]	; (80055c4 <HAL_RCC_GetSysClockFreq+0x68>)
  const uint8_t aPredivFactorTable[2] = {1, 2};
 800557e:	f8ad 3004 	strh.w	r3, [sp, #4]
  tmpreg = RCC->CFGR;
 8005582:	684b      	ldr	r3, [r1, #4]
  switch (tmpreg & RCC_CFGR_SWS)
 8005584:	f003 020c 	and.w	r2, r3, #12
 8005588:	2a08      	cmp	r2, #8
 800558a:	d117      	bne.n	80055bc <HAL_RCC_GetSysClockFreq+0x60>
      pllmul = aPLLMULFactorTable[(uint32_t)(tmpreg & RCC_CFGR_PLLMULL) >> RCC_CFGR_PLLMULL_Pos];
 800558c:	f3c3 4283 	ubfx	r2, r3, #18, #4
 8005590:	3218      	adds	r2, #24
 8005592:	446a      	add	r2, sp
      if ((tmpreg & RCC_CFGR_PLLSRC) != RCC_PLLSOURCE_HSI_DIV2)
 8005594:	03db      	lsls	r3, r3, #15
      pllmul = aPLLMULFactorTable[(uint32_t)(tmpreg & RCC_CFGR_PLLMULL) >> RCC_CFGR_PLLMULL_Pos];
 8005596:	f812 0c10 	ldrb.w	r0, [r2, #-16]
      if ((tmpreg & RCC_CFGR_PLLSRC) != RCC_PLLSOURCE_HSI_DIV2)
 800559a:	d50c      	bpl.n	80055b6 <HAL_RCC_GetSysClockFreq+0x5a>
        prediv = aPredivFactorTable[(uint32_t)(RCC->CFGR & RCC_CFGR_PLLXTPRE) >> RCC_CFGR_PLLXTPRE_Pos];
 800559c:	684b      	ldr	r3, [r1, #4]
        pllclk = (uint32_t)((HSE_VALUE  * pllmul) / prediv);
 800559e:	4a0a      	ldr	r2, [pc, #40]	; (80055c8 <HAL_RCC_GetSysClockFreq+0x6c>)
        prediv = aPredivFactorTable[(uint32_t)(RCC->CFGR & RCC_CFGR_PLLXTPRE) >> RCC_CFGR_PLLXTPRE_Pos];
 80055a0:	f3c3 4340 	ubfx	r3, r3, #17, #1
        pllclk = (uint32_t)((HSE_VALUE  * pllmul) / prediv);
 80055a4:	4350      	muls	r0, r2
        prediv = aPredivFactorTable[(uint32_t)(RCC->CFGR & RCC_CFGR_PLLXTPRE) >> RCC_CFGR_PLLXTPRE_Pos];
 80055a6:	3318      	adds	r3, #24
 80055a8:	446b      	add	r3, sp
 80055aa:	f813 3c14 	ldrb.w	r3, [r3, #-20]
        pllclk = (uint32_t)((HSE_VALUE  * pllmul) / prediv);
 80055ae:	fbb0 f0f3 	udiv	r0, r0, r3
}
 80055b2:	b007      	add	sp, #28
 80055b4:	bd30      	pop	{r4, r5, pc}
        pllclk = (uint32_t)((HSI_VALUE >> 1) * pllmul);
 80055b6:	4b05      	ldr	r3, [pc, #20]	; (80055cc <HAL_RCC_GetSysClockFreq+0x70>)
 80055b8:	4358      	muls	r0, r3
 80055ba:	e7fa      	b.n	80055b2 <HAL_RCC_GetSysClockFreq+0x56>
      sysclockfreq = HSE_VALUE;
 80055bc:	4802      	ldr	r0, [pc, #8]	; (80055c8 <HAL_RCC_GetSysClockFreq+0x6c>)
  return sysclockfreq;
 80055be:	e7f8      	b.n	80055b2 <HAL_RCC_GetSysClockFreq+0x56>
 80055c0:	080074a3 	.word	0x080074a3
 80055c4:	40021000 	.word	0x40021000
 80055c8:	007a1200 	.word	0x007a1200
 80055cc:	003d0900 	.word	0x003d0900

080055d0 <HAL_RCC_ClockConfig>:
{
 80055d0:	e92d 41f0 	stmdb	sp!, {r4, r5, r6, r7, r8, lr}
 80055d4:	460d      	mov	r5, r1
  if (RCC_ClkInitStruct == NULL)
 80055d6:	4604      	mov	r4, r0
 80055d8:	b910      	cbnz	r0, 80055e0 <HAL_RCC_ClockConfig+0x10>
    return HAL_ERROR;
 80055da:	2001      	movs	r0, #1
}
 80055dc:	e8bd 81f0 	ldmia.w	sp!, {r4, r5, r6, r7, r8, pc}
  if (FLatency > __HAL_FLASH_GET_LATENCY())
 80055e0:	4a44      	ldr	r2, [pc, #272]	; (80056f4 <HAL_RCC_ClockConfig+0x124>)
 80055e2:	6813      	ldr	r3, [r2, #0]
 80055e4:	f003 0307 	and.w	r3, r3, #7
 80055e8:	428b      	cmp	r3, r1
 80055ea:	d328      	bcc.n	800563e <HAL_RCC_ClockConfig+0x6e>
if (((RCC_ClkInitStruct->ClockType) & RCC_CLOCKTYPE_HCLK) == RCC_CLOCKTYPE_HCLK)
 80055ec:	6821      	ldr	r1, [r4, #0]
 80055ee:	078e      	lsls	r6, r1, #30
 80055f0:	d430      	bmi.n	8005654 <HAL_RCC_ClockConfig+0x84>
  if (((RCC_ClkInitStruct->ClockType) & RCC_CLOCKTYPE_SYSCLK) == RCC_CLOCKTYPE_SYSCLK)
 80055f2:	07ca      	lsls	r2, r1, #31
 80055f4:	d443      	bmi.n	800567e <HAL_RCC_ClockConfig+0xae>
  if (FLatency < __HAL_FLASH_GET_LATENCY())
 80055f6:	4a3f      	ldr	r2, [pc, #252]	; (80056f4 <HAL_RCC_ClockConfig+0x124>)
 80055f8:	6813      	ldr	r3, [r2, #0]
 80055fa:	f003 0307 	and.w	r3, r3, #7
 80055fe:	42ab      	cmp	r3, r5
 8005600:	d865      	bhi.n	80056ce <HAL_RCC_ClockConfig+0xfe>
if (((RCC_ClkInitStruct->ClockType) & RCC_CLOCKTYPE_PCLK1) == RCC_CLOCKTYPE_PCLK1)
 8005602:	6822      	ldr	r2, [r4, #0]
 8005604:	4d3c      	ldr	r5, [pc, #240]	; (80056f8 <HAL_RCC_ClockConfig+0x128>)
 8005606:	f012 0f04 	tst.w	r2, #4
 800560a:	d16c      	bne.n	80056e6 <HAL_RCC_ClockConfig+0x116>
  if (((RCC_ClkInitStruct->ClockType) & RCC_CLOCKTYPE_PCLK2) == RCC_CLOCKTYPE_PCLK2)
 800560c:	0713      	lsls	r3, r2, #28
 800560e:	d506      	bpl.n	800561e <HAL_RCC_ClockConfig+0x4e>
    MODIFY_REG(RCC->CFGR, RCC_CFGR_PPRE2, ((RCC_ClkInitStruct->APB2CLKDivider) << 3));
 8005610:	686b      	ldr	r3, [r5, #4]
 8005612:	6922      	ldr	r2, [r4, #16]
 8005614:	f423 5360 	bic.w	r3, r3, #14336	; 0x3800
 8005618:	ea43 03c2 	orr.w	r3, r3, r2, lsl #3
 800561c:	606b      	str	r3, [r5, #4]
  SystemCoreClock = HAL_RCC_GetSysClockFreq() >> AHBPrescTable[(RCC->CFGR & RCC_CFGR_HPRE) >> RCC_CFGR_HPRE_Pos];
 800561e:	f7ff ff9d 	bl	800555c <HAL_RCC_GetSysClockFreq>
 8005622:	686b      	ldr	r3, [r5, #4]
 8005624:	4a35      	ldr	r2, [pc, #212]	; (80056fc <HAL_RCC_ClockConfig+0x12c>)
 8005626:	f3c3 1303 	ubfx	r3, r3, #4, #4
 800562a:	5cd3      	ldrb	r3, [r2, r3]
 800562c:	40d8      	lsrs	r0, r3
 800562e:	4b34      	ldr	r3, [pc, #208]	; (8005700 <HAL_RCC_ClockConfig+0x130>)
 8005630:	6018      	str	r0, [r3, #0]
  HAL_InitTick(uwTickPrio);
 8005632:	4b34      	ldr	r3, [pc, #208]	; (8005704 <HAL_RCC_ClockConfig+0x134>)
 8005634:	6818      	ldr	r0, [r3, #0]
 8005636:	f7ff fac7 	bl	8004bc8 <HAL_InitTick>
  return HAL_OK;
 800563a:	2000      	movs	r0, #0
 800563c:	e7ce      	b.n	80055dc <HAL_RCC_ClockConfig+0xc>
    __HAL_FLASH_SET_LATENCY(FLatency);
 800563e:	6813      	ldr	r3, [r2, #0]
 8005640:	f023 0307 	bic.w	r3, r3, #7
 8005644:	430b      	orrs	r3, r1
 8005646:	6013      	str	r3, [r2, #0]
    if (__HAL_FLASH_GET_LATENCY() != FLatency)
 8005648:	6813      	ldr	r3, [r2, #0]
 800564a:	f003 0307 	and.w	r3, r3, #7
 800564e:	428b      	cmp	r3, r1
 8005650:	d1c3      	bne.n	80055da <HAL_RCC_ClockConfig+0xa>
 8005652:	e7cb      	b.n	80055ec <HAL_RCC_ClockConfig+0x1c>
    if (((RCC_ClkInitStruct->ClockType) & RCC_CLOCKTYPE_PCLK1) == RCC_CLOCKTYPE_PCLK1)
 8005654:	4b28      	ldr	r3, [pc, #160]	; (80056f8 <HAL_RCC_ClockConfig+0x128>)
 8005656:	f011 0f04 	tst.w	r1, #4
      MODIFY_REG(RCC->CFGR, RCC_CFGR_PPRE1, RCC_HCLK_DIV16);
 800565a:	bf1e      	ittt	ne
 800565c:	685a      	ldrne	r2, [r3, #4]
 800565e:	f442 62e0 	orrne.w	r2, r2, #1792	; 0x700
 8005662:	605a      	strne	r2, [r3, #4]
    if (((RCC_ClkInitStruct->ClockType) & RCC_CLOCKTYPE_PCLK2) == RCC_CLOCKTYPE_PCLK2)
 8005664:	0708      	lsls	r0, r1, #28
      MODIFY_REG(RCC->CFGR, RCC_CFGR_PPRE2, (RCC_HCLK_DIV16 << 3));
 8005666:	bf42      	ittt	mi
 8005668:	685a      	ldrmi	r2, [r3, #4]
 800566a:	f442 5260 	orrmi.w	r2, r2, #14336	; 0x3800
 800566e:	605a      	strmi	r2, [r3, #4]
    MODIFY_REG(RCC->CFGR, RCC_CFGR_HPRE, RCC_ClkInitStruct->AHBCLKDivider);
 8005670:	685a      	ldr	r2, [r3, #4]
 8005672:	68a0      	ldr	r0, [r4, #8]
 8005674:	f022 02f0 	bic.w	r2, r2, #240	; 0xf0
 8005678:	4302      	orrs	r2, r0
 800567a:	605a      	str	r2, [r3, #4]
 800567c:	e7b9      	b.n	80055f2 <HAL_RCC_ClockConfig+0x22>
    if (RCC_ClkInitStruct->SYSCLKSource == RCC_SYSCLKSOURCE_HSE)
 800567e:	6862      	ldr	r2, [r4, #4]
 8005680:	4e1d      	ldr	r6, [pc, #116]	; (80056f8 <HAL_RCC_ClockConfig+0x128>)
 8005682:	2a01      	cmp	r2, #1
      if (__HAL_RCC_GET_FLAG(RCC_FLAG_HSERDY) == RESET)
 8005684:	6833      	ldr	r3, [r6, #0]
    if (RCC_ClkInitStruct->SYSCLKSource == RCC_SYSCLKSOURCE_HSE)
 8005686:	d11a      	bne.n	80056be <HAL_RCC_ClockConfig+0xee>
      if (__HAL_RCC_GET_FLAG(RCC_FLAG_HSERDY) == RESET)
 8005688:	f413 3f00 	tst.w	r3, #131072	; 0x20000
      if (__HAL_RCC_GET_FLAG(RCC_FLAG_HSIRDY) == RESET)
 800568c:	d0a5      	beq.n	80055da <HAL_RCC_ClockConfig+0xa>
    __HAL_RCC_SYSCLK_CONFIG(RCC_ClkInitStruct->SYSCLKSource);
 800568e:	6873      	ldr	r3, [r6, #4]
      if ((HAL_GetTick() - tickstart) > CLOCKSWITCH_TIMEOUT_VALUE)
 8005690:	f241 3888 	movw	r8, #5000	; 0x1388
    __HAL_RCC_SYSCLK_CONFIG(RCC_ClkInitStruct->SYSCLKSource);
 8005694:	f023 0303 	bic.w	r3, r3, #3
 8005698:	4313      	orrs	r3, r2
 800569a:	6073      	str	r3, [r6, #4]
    tickstart = HAL_GetTick();
 800569c:	f7ff fad6 	bl	8004c4c <HAL_GetTick>
 80056a0:	4607      	mov	r7, r0
    while (__HAL_RCC_GET_SYSCLK_SOURCE() != (RCC_ClkInitStruct->SYSCLKSource << RCC_CFGR_SWS_Pos))
 80056a2:	6873      	ldr	r3, [r6, #4]
 80056a4:	6862      	ldr	r2, [r4, #4]
 80056a6:	f003 030c 	and.w	r3, r3, #12
 80056aa:	ebb3 0f82 	cmp.w	r3, r2, lsl #2
 80056ae:	d0a2      	beq.n	80055f6 <HAL_RCC_ClockConfig+0x26>
      if ((HAL_GetTick() - tickstart) > CLOCKSWITCH_TIMEOUT_VALUE)
 80056b0:	f7ff facc 	bl	8004c4c <HAL_GetTick>
 80056b4:	1bc0      	subs	r0, r0, r7
 80056b6:	4540      	cmp	r0, r8
 80056b8:	d9f3      	bls.n	80056a2 <HAL_RCC_ClockConfig+0xd2>
        return HAL_TIMEOUT;
 80056ba:	2003      	movs	r0, #3
 80056bc:	e78e      	b.n	80055dc <HAL_RCC_ClockConfig+0xc>
    else if (RCC_ClkInitStruct->SYSCLKSource == RCC_SYSCLKSOURCE_PLLCLK)
 80056be:	2a02      	cmp	r2, #2
 80056c0:	d102      	bne.n	80056c8 <HAL_RCC_ClockConfig+0xf8>
      if (__HAL_RCC_GET_FLAG(RCC_FLAG_PLLRDY) == RESET)
 80056c2:	f013 7f00 	tst.w	r3, #33554432	; 0x2000000
 80056c6:	e7e1      	b.n	800568c <HAL_RCC_ClockConfig+0xbc>
      if (__HAL_RCC_GET_FLAG(RCC_FLAG_HSIRDY) == RESET)
 80056c8:	f013 0f02 	tst.w	r3, #2
 80056cc:	e7de      	b.n	800568c <HAL_RCC_ClockConfig+0xbc>
    __HAL_FLASH_SET_LATENCY(FLatency);
 80056ce:	6813      	ldr	r3, [r2, #0]
 80056d0:	f023 0307 	bic.w	r3, r3, #7
 80056d4:	432b      	orrs	r3, r5
 80056d6:	6013      	str	r3, [r2, #0]
    if (__HAL_FLASH_GET_LATENCY() != FLatency)
 80056d8:	6813      	ldr	r3, [r2, #0]
 80056da:	f003 0307 	and.w	r3, r3, #7
 80056de:	42ab      	cmp	r3, r5
 80056e0:	f47f af7b 	bne.w	80055da <HAL_RCC_ClockConfig+0xa>
 80056e4:	e78d      	b.n	8005602 <HAL_RCC_ClockConfig+0x32>
    MODIFY_REG(RCC->CFGR, RCC_CFGR_PPRE1, RCC_ClkInitStruct->APB1CLKDivider);
 80056e6:	686b      	ldr	r3, [r5, #4]
 80056e8:	68e1      	ldr	r1, [r4, #12]
 80056ea:	f423 63e0 	bic.w	r3, r3, #1792	; 0x700
 80056ee:	430b      	orrs	r3, r1
 80056f0:	606b      	str	r3, [r5, #4]
 80056f2:	e78b      	b.n	800560c <HAL_RCC_ClockConfig+0x3c>
 80056f4:	40022000 	.word	0x40022000
 80056f8:	40021000 	.word	0x40021000
 80056fc:	0800735c 	.word	0x0800735c
 8005700:	20000004 	.word	0x20000004
 8005704:	2000000c 	.word	0x2000000c

08005708 <HAL_RCC_GetPCLK1Freq>:
  return (HAL_RCC_GetHCLKFreq() >> APBPrescTable[(RCC->CFGR & RCC_CFGR_PPRE1) >> RCC_CFGR_PPRE1_Pos]);
 8005708:	4b04      	ldr	r3, [pc, #16]	; (800571c <HAL_RCC_GetPCLK1Freq+0x14>)
 800570a:	4a05      	ldr	r2, [pc, #20]	; (8005720 <HAL_RCC_GetPCLK1Freq+0x18>)
 800570c:	685b      	ldr	r3, [r3, #4]
 800570e:	f3c3 2302 	ubfx	r3, r3, #8, #3
 8005712:	5cd3      	ldrb	r3, [r2, r3]
 8005714:	4a03      	ldr	r2, [pc, #12]	; (8005724 <HAL_RCC_GetPCLK1Freq+0x1c>)
 8005716:	6810      	ldr	r0, [r2, #0]
}
 8005718:	40d8      	lsrs	r0, r3
 800571a:	4770      	bx	lr
 800571c:	40021000 	.word	0x40021000
 8005720:	0800736c 	.word	0x0800736c
 8005724:	20000004 	.word	0x20000004

08005728 <HAL_RCC_GetPCLK2Freq>:
  return (HAL_RCC_GetHCLKFreq() >> APBPrescTable[(RCC->CFGR & RCC_CFGR_PPRE2) >> RCC_CFGR_PPRE2_Pos]);
 8005728:	4b04      	ldr	r3, [pc, #16]	; (800573c <HAL_RCC_GetPCLK2Freq+0x14>)
 800572a:	4a05      	ldr	r2, [pc, #20]	; (8005740 <HAL_RCC_GetPCLK2Freq+0x18>)
 800572c:	685b      	ldr	r3, [r3, #4]
 800572e:	f3c3 23c2 	ubfx	r3, r3, #11, #3
 8005732:	5cd3      	ldrb	r3, [r2, r3]
 8005734:	4a03      	ldr	r2, [pc, #12]	; (8005744 <HAL_RCC_GetPCLK2Freq+0x1c>)
 8005736:	6810      	ldr	r0, [r2, #0]
}
 8005738:	40d8      	lsrs	r0, r3
 800573a:	4770      	bx	lr
 800573c:	40021000 	.word	0x40021000
 8005740:	0800736c 	.word	0x0800736c
 8005744:	20000004 	.word	0x20000004

08005748 <TIM_OC1_SetConfig>:
  uint32_t tmpccmrx;
  uint32_t tmpccer;
  uint32_t tmpcr2;

  /* Disable the Channel 1: Reset the CC1E Bit */
  TIMx->CCER &= ~TIM_CCER_CC1E;
 8005748:	6a03      	ldr	r3, [r0, #32]
{
 800574a:	b570      	push	{r4, r5, r6, lr}
  TIMx->CCER &= ~TIM_CCER_CC1E;
 800574c:	f023 0301 	bic.w	r3, r3, #1
 8005750:	6203      	str	r3, [r0, #32]

  /* Get the TIMx CCER register value */
  tmpccer = TIMx->CCER;
 8005752:	6a03      	ldr	r3, [r0, #32]
  /* Get the TIMx CR2 register value */
  tmpcr2 =  TIMx->CR2;
 8005754:	6844      	ldr	r4, [r0, #4]

  /* Get the TIMx CCMR1 register value */
  tmpccmrx = TIMx->CCMR1;
 8005756:	6982      	ldr	r2, [r0, #24]

  /* Reset the Output Compare Mode Bits */
  tmpccmrx &= ~TIM_CCMR1_OC1M;
  tmpccmrx &= ~TIM_CCMR1_CC1S;
  /* Select the Output Compare Mode */
  tmpccmrx |= OC_Config->OCMode;
 8005758:	680d      	ldr	r5, [r1, #0]
  tmpccmrx &= ~TIM_CCMR1_CC1S;
 800575a:	f022 0273 	bic.w	r2, r2, #115	; 0x73
  tmpccmrx |= OC_Config->OCMode;
 800575e:	432a      	orrs	r2, r5

  /* Reset the Output Polarity level */
  tmpccer &= ~TIM_CCER_CC1P;
  /* Set the Output Compare Polarity */
  tmpccer |= OC_Config->OCPolarity;
 8005760:	688d      	ldr	r5, [r1, #8]
  tmpccer &= ~TIM_CCER_CC1P;
 8005762:	f023 0302 	bic.w	r3, r3, #2
  tmpccer |= OC_Config->OCPolarity;
 8005766:	432b      	orrs	r3, r5

  if (IS_TIM_CCXN_INSTANCE(TIMx, TIM_CHANNEL_1))
 8005768:	4d0a      	ldr	r5, [pc, #40]	; (8005794 <TIM_OC1_SetConfig+0x4c>)
 800576a:	42a8      	cmp	r0, r5
 800576c:	d10b      	bne.n	8005786 <TIM_OC1_SetConfig+0x3e>
    assert_param(IS_TIM_OCN_POLARITY(OC_Config->OCNPolarity));

    /* Reset the Output N Polarity level */
    tmpccer &= ~TIM_CCER_CC1NP;
    /* Set the Output N Polarity */
    tmpccer |= OC_Config->OCNPolarity;
 800576e:	68cd      	ldr	r5, [r1, #12]
    tmpccer &= ~TIM_CCER_CC1NP;
 8005770:	f023 0308 	bic.w	r3, r3, #8
    tmpccer |= OC_Config->OCNPolarity;
 8005774:	432b      	orrs	r3, r5
    assert_param(IS_TIM_OCNIDLE_STATE(OC_Config->OCNIdleState));
    assert_param(IS_TIM_OCIDLE_STATE(OC_Config->OCIdleState));

    /* Reset the Output Compare and Output Compare N IDLE State */
    tmpcr2 &= ~TIM_CR2_OIS1;
    tmpcr2 &= ~TIM_CR2_OIS1N;
 8005776:	f424 7440 	bic.w	r4, r4, #768	; 0x300
    /* Set the Output Idle state */
    tmpcr2 |= OC_Config->OCIdleState;
    /* Set the Output N Idle state */
    tmpcr2 |= OC_Config->OCNIdleState;
 800577a:	e9d1 5605 	ldrd	r5, r6, [r1, #20]
 800577e:	4335      	orrs	r5, r6
    tmpccer &= ~TIM_CCER_CC1NE;
 8005780:	f023 0304 	bic.w	r3, r3, #4
    tmpcr2 |= OC_Config->OCNIdleState;
 8005784:	432c      	orrs	r4, r5
  }

  /* Write to TIMx CR2 */
  TIMx->CR2 = tmpcr2;
 8005786:	6044      	str	r4, [r0, #4]

  /* Write to TIMx CCMR1 */
  TIMx->CCMR1 = tmpccmrx;
 8005788:	6182      	str	r2, [r0, #24]

  /* Set the Capture Compare Register value */
  TIMx->CCR1 = OC_Config->Pulse;
 800578a:	684a      	ldr	r2, [r1, #4]
 800578c:	6342      	str	r2, [r0, #52]	; 0x34

  /* Write to TIMx CCER */
  TIMx->CCER = tmpccer;
 800578e:	6203      	str	r3, [r0, #32]
}
 8005790:	bd70      	pop	{r4, r5, r6, pc}
 8005792:	bf00      	nop
 8005794:	40012c00 	.word	0x40012c00

08005798 <TIM_OC3_SetConfig>:
  uint32_t tmpccmrx;
  uint32_t tmpccer;
  uint32_t tmpcr2;

  /* Disable the Channel 3: Reset the CC2E Bit */
  TIMx->CCER &= ~TIM_CCER_CC3E;
 8005798:	6a03      	ldr	r3, [r0, #32]
{
 800579a:	b570      	push	{r4, r5, r6, lr}
  TIMx->CCER &= ~TIM_CCER_CC3E;
 800579c:	f423 7380 	bic.w	r3, r3, #256	; 0x100
 80057a0:	6203      	str	r3, [r0, #32]

  /* Get the TIMx CCER register value */
  tmpccer = TIMx->CCER;
 80057a2:	6a03      	ldr	r3, [r0, #32]
  /* Get the TIMx CR2 register value */
  tmpcr2 =  TIMx->CR2;
 80057a4:	6844      	ldr	r4, [r0, #4]

  /* Get the TIMx CCMR2 register value */
  tmpccmrx = TIMx->CCMR2;
 80057a6:	69c2      	ldr	r2, [r0, #28]

  /* Reset the Output Compare mode and Capture/Compare selection Bits */
  tmpccmrx &= ~TIM_CCMR2_OC3M;
  tmpccmrx &= ~TIM_CCMR2_CC3S;
  /* Select the Output Compare Mode */
  tmpccmrx |= OC_Config->OCMode;
 80057a8:	680d      	ldr	r5, [r1, #0]
  tmpccmrx &= ~TIM_CCMR2_CC3S;
 80057aa:	f022 0273 	bic.w	r2, r2, #115	; 0x73
  tmpccmrx |= OC_Config->OCMode;
 80057ae:	432a      	orrs	r2, r5

  /* Reset the Output Polarity level */
  tmpccer &= ~TIM_CCER_CC3P;
  /* Set the Output Compare Polarity */
  tmpccer |= (OC_Config->OCPolarity << 8U);
 80057b0:	688d      	ldr	r5, [r1, #8]
  tmpccer &= ~TIM_CCER_CC3P;
 80057b2:	f423 7300 	bic.w	r3, r3, #512	; 0x200
  tmpccer |= (OC_Config->OCPolarity << 8U);
 80057b6:	ea43 2305 	orr.w	r3, r3, r5, lsl #8

  if (IS_TIM_CCXN_INSTANCE(TIMx, TIM_CHANNEL_3))
 80057ba:	4d0b      	ldr	r5, [pc, #44]	; (80057e8 <TIM_OC3_SetConfig+0x50>)
 80057bc:	42a8      	cmp	r0, r5
 80057be:	d10d      	bne.n	80057dc <TIM_OC3_SetConfig+0x44>
    assert_param(IS_TIM_OCN_POLARITY(OC_Config->OCNPolarity));

    /* Reset the Output N Polarity level */
    tmpccer &= ~TIM_CCER_CC3NP;
    /* Set the Output N Polarity */
    tmpccer |= (OC_Config->OCNPolarity << 8U);
 80057c0:	68cd      	ldr	r5, [r1, #12]
    tmpccer &= ~TIM_CCER_CC3NP;
 80057c2:	f423 6300 	bic.w	r3, r3, #2048	; 0x800
    tmpccer |= (OC_Config->OCNPolarity << 8U);
 80057c6:	ea43 2305 	orr.w	r3, r3, r5, lsl #8
    assert_param(IS_TIM_OCNIDLE_STATE(OC_Config->OCNIdleState));
    assert_param(IS_TIM_OCIDLE_STATE(OC_Config->OCIdleState));

    /* Reset the Output Compare and Output Compare N IDLE State */
    tmpcr2 &= ~TIM_CR2_OIS3;
    tmpcr2 &= ~TIM_CR2_OIS3N;
 80057ca:	f424 5440 	bic.w	r4, r4, #12288	; 0x3000
    /* Set the Output Idle state */
    tmpcr2 |= (OC_Config->OCIdleState << 4U);
    /* Set the Output N Idle state */
    tmpcr2 |= (OC_Config->OCNIdleState << 4U);
 80057ce:	e9d1 5605 	ldrd	r5, r6, [r1, #20]
 80057d2:	4335      	orrs	r5, r6
    tmpccer &= ~TIM_CCER_CC3NE;
 80057d4:	f423 6380 	bic.w	r3, r3, #1024	; 0x400
    tmpcr2 |= (OC_Config->OCNIdleState << 4U);
 80057d8:	ea44 1405 	orr.w	r4, r4, r5, lsl #4
  }

  /* Write to TIMx CR2 */
  TIMx->CR2 = tmpcr2;
 80057dc:	6044      	str	r4, [r0, #4]

  /* Write to TIMx CCMR2 */
  TIMx->CCMR2 = tmpccmrx;
 80057de:	61c2      	str	r2, [r0, #28]

  /* Set the Capture Compare Register value */
  TIMx->CCR3 = OC_Config->Pulse;
 80057e0:	684a      	ldr	r2, [r1, #4]
 80057e2:	63c2      	str	r2, [r0, #60]	; 0x3c

  /* Write to TIMx CCER */
  TIMx->CCER = tmpccer;
 80057e4:	6203      	str	r3, [r0, #32]
}
 80057e6:	bd70      	pop	{r4, r5, r6, pc}
 80057e8:	40012c00 	.word	0x40012c00

080057ec <TIM_OC4_SetConfig>:
  uint32_t tmpccmrx;
  uint32_t tmpccer;
  uint32_t tmpcr2;

  /* Disable the Channel 4: Reset the CC4E Bit */
  TIMx->CCER &= ~TIM_CCER_CC4E;
 80057ec:	6a03      	ldr	r3, [r0, #32]
{
 80057ee:	b530      	push	{r4, r5, lr}
  TIMx->CCER &= ~TIM_CCER_CC4E;
 80057f0:	f423 5380 	bic.w	r3, r3, #4096	; 0x1000
 80057f4:	6203      	str	r3, [r0, #32]

  /* Get the TIMx CCER register value */
  tmpccer = TIMx->CCER;
 80057f6:	6a03      	ldr	r3, [r0, #32]
  /* Get the TIMx CR2 register value */
  tmpcr2 =  TIMx->CR2;
 80057f8:	6844      	ldr	r4, [r0, #4]

  /* Get the TIMx CCMR2 register value */
  tmpccmrx = TIMx->CCMR2;
 80057fa:	69c2      	ldr	r2, [r0, #28]
  /* Reset the Output Compare mode and Capture/Compare selection Bits */
  tmpccmrx &= ~TIM_CCMR2_OC4M;
  tmpccmrx &= ~TIM_CCMR2_CC4S;

  /* Select the Output Compare Mode */
  tmpccmrx |= (OC_Config->OCMode << 8U);
 80057fc:	680d      	ldr	r5, [r1, #0]
  tmpccmrx &= ~TIM_CCMR2_CC4S;
 80057fe:	f422 42e6 	bic.w	r2, r2, #29440	; 0x7300
  tmpccmrx |= (OC_Config->OCMode << 8U);
 8005802:	ea42 2205 	orr.w	r2, r2, r5, lsl #8

  /* Reset the Output Polarity level */
  tmpccer &= ~TIM_CCER_CC4P;
  /* Set the Output Compare Polarity */
  tmpccer |= (OC_Config->OCPolarity << 12U);
 8005806:	688d      	ldr	r5, [r1, #8]
  tmpccer &= ~TIM_CCER_CC4P;
 8005808:	f423 5300 	bic.w	r3, r3, #8192	; 0x2000
  tmpccer |= (OC_Config->OCPolarity << 12U);
 800580c:	ea43 3305 	orr.w	r3, r3, r5, lsl #12

  if (IS_TIM_BREAK_INSTANCE(TIMx))
 8005810:	4d06      	ldr	r5, [pc, #24]	; (800582c <TIM_OC4_SetConfig+0x40>)
 8005812:	42a8      	cmp	r0, r5

    /* Reset the Output Compare IDLE State */
    tmpcr2 &= ~TIM_CR2_OIS4;

    /* Set the Output Idle state */
    tmpcr2 |= (OC_Config->OCIdleState << 6U);
 8005814:	bf02      	ittt	eq
 8005816:	694d      	ldreq	r5, [r1, #20]
    tmpcr2 &= ~TIM_CR2_OIS4;
 8005818:	f424 4480 	biceq.w	r4, r4, #16384	; 0x4000
    tmpcr2 |= (OC_Config->OCIdleState << 6U);
 800581c:	ea44 1485 	orreq.w	r4, r4, r5, lsl #6
  }

  /* Write to TIMx CR2 */
  TIMx->CR2 = tmpcr2;
 8005820:	6044      	str	r4, [r0, #4]

  /* Write to TIMx CCMR2 */
  TIMx->CCMR2 = tmpccmrx;
 8005822:	61c2      	str	r2, [r0, #28]

  /* Set the Capture Compare Register value */
  TIMx->CCR4 = OC_Config->Pulse;
 8005824:	684a      	ldr	r2, [r1, #4]
 8005826:	6402      	str	r2, [r0, #64]	; 0x40

  /* Write to TIMx CCER */
  TIMx->CCER = tmpccer;
 8005828:	6203      	str	r3, [r0, #32]
}
 800582a:	bd30      	pop	{r4, r5, pc}
 800582c:	40012c00 	.word	0x40012c00

08005830 <HAL_TIM_PWM_MspInit>:
 8005830:	4770      	bx	lr
	...

08005834 <TIM_Base_SetConfig>:
  if (IS_TIM_COUNTER_MODE_SELECT_INSTANCE(TIMx))
 8005834:	4a16      	ldr	r2, [pc, #88]	; (8005890 <TIM_Base_SetConfig+0x5c>)
{
 8005836:	b510      	push	{r4, lr}
  if (IS_TIM_COUNTER_MODE_SELECT_INSTANCE(TIMx))
 8005838:	4290      	cmp	r0, r2
  tmpcr1 = TIMx->CR1;
 800583a:	6803      	ldr	r3, [r0, #0]
  if (IS_TIM_COUNTER_MODE_SELECT_INSTANCE(TIMx))
 800583c:	d005      	beq.n	800584a <TIM_Base_SetConfig+0x16>
 800583e:	f1b0 4f80 	cmp.w	r0, #1073741824	; 0x40000000
 8005842:	d002      	beq.n	800584a <TIM_Base_SetConfig+0x16>
 8005844:	4c13      	ldr	r4, [pc, #76]	; (8005894 <TIM_Base_SetConfig+0x60>)
 8005846:	42a0      	cmp	r0, r4
 8005848:	d110      	bne.n	800586c <TIM_Base_SetConfig+0x38>
    tmpcr1 |= Structure->CounterMode;
 800584a:	684c      	ldr	r4, [r1, #4]
    tmpcr1 &= ~(TIM_CR1_DIR | TIM_CR1_CMS);
 800584c:	f023 0370 	bic.w	r3, r3, #112	; 0x70
  if (IS_TIM_CLOCK_DIVISION_INSTANCE(TIMx))
 8005850:	4290      	cmp	r0, r2
    tmpcr1 |= Structure->CounterMode;
 8005852:	ea43 0304 	orr.w	r3, r3, r4
  if (IS_TIM_CLOCK_DIVISION_INSTANCE(TIMx))
 8005856:	d005      	beq.n	8005864 <TIM_Base_SetConfig+0x30>
 8005858:	f1b0 4f80 	cmp.w	r0, #1073741824	; 0x40000000
 800585c:	d002      	beq.n	8005864 <TIM_Base_SetConfig+0x30>
 800585e:	4a0d      	ldr	r2, [pc, #52]	; (8005894 <TIM_Base_SetConfig+0x60>)
 8005860:	4290      	cmp	r0, r2
 8005862:	d103      	bne.n	800586c <TIM_Base_SetConfig+0x38>
    tmpcr1 |= (uint32_t)Structure->ClockDivision;
 8005864:	68ca      	ldr	r2, [r1, #12]
    tmpcr1 &= ~TIM_CR1_CKD;
 8005866:	f423 7340 	bic.w	r3, r3, #768	; 0x300
    tmpcr1 |= (uint32_t)Structure->ClockDivision;
 800586a:	4313      	orrs	r3, r2
  MODIFY_REG(tmpcr1, TIM_CR1_ARPE, Structure->AutoReloadPreload);
 800586c:	694a      	ldr	r2, [r1, #20]
 800586e:	f023 0380 	bic.w	r3, r3, #128	; 0x80
 8005872:	4313      	orrs	r3, r2
  TIMx->CR1 = tmpcr1;
 8005874:	6003      	str	r3, [r0, #0]
  TIMx->ARR = (uint32_t)Structure->Period ;
 8005876:	688b      	ldr	r3, [r1, #8]
 8005878:	62c3      	str	r3, [r0, #44]	; 0x2c
  TIMx->PSC = Structure->Prescaler;
 800587a:	680b      	ldr	r3, [r1, #0]
 800587c:	6283      	str	r3, [r0, #40]	; 0x28
  if (IS_TIM_REPETITION_COUNTER_INSTANCE(TIMx))
 800587e:	4b04      	ldr	r3, [pc, #16]	; (8005890 <TIM_Base_SetConfig+0x5c>)
 8005880:	4298      	cmp	r0, r3
    TIMx->RCR = Structure->RepetitionCounter;
 8005882:	bf04      	itt	eq
 8005884:	690b      	ldreq	r3, [r1, #16]
 8005886:	6303      	streq	r3, [r0, #48]	; 0x30
  TIMx->EGR = TIM_EGR_UG;
 8005888:	2301      	movs	r3, #1
 800588a:	6143      	str	r3, [r0, #20]
}
 800588c:	bd10      	pop	{r4, pc}
 800588e:	bf00      	nop
 8005890:	40012c00 	.word	0x40012c00
 8005894:	40000400 	.word	0x40000400

08005898 <HAL_TIM_Base_Init>:
{
 8005898:	b510      	push	{r4, lr}
  if (htim == NULL)
 800589a:	4604      	mov	r4, r0
 800589c:	b330      	cbz	r0, 80058ec <HAL_TIM_Base_Init+0x54>
  if (htim->State == HAL_TIM_STATE_RESET)
 800589e:	f890 303d 	ldrb.w	r3, [r0, #61]	; 0x3d
 80058a2:	f003 02ff 	and.w	r2, r3, #255	; 0xff
 80058a6:	b91b      	cbnz	r3, 80058b0 <HAL_TIM_Base_Init+0x18>
    htim->Lock = HAL_UNLOCKED;
 80058a8:	f880 203c 	strb.w	r2, [r0, #60]	; 0x3c
    HAL_TIM_Base_MspInit(htim);
 80058ac:	f7fe fb54 	bl	8003f58 <HAL_TIM_Base_MspInit>
  htim->State = HAL_TIM_STATE_BUSY;
 80058b0:	2302      	movs	r3, #2
  TIM_Base_SetConfig(htim->Instance, &htim->Init);
 80058b2:	6820      	ldr	r0, [r4, #0]
  htim->State = HAL_TIM_STATE_BUSY;
 80058b4:	f884 303d 	strb.w	r3, [r4, #61]	; 0x3d
  TIM_Base_SetConfig(htim->Instance, &htim->Init);
 80058b8:	1d21      	adds	r1, r4, #4
 80058ba:	f7ff ffbb 	bl	8005834 <TIM_Base_SetConfig>
  htim->DMABurstState = HAL_DMA_BURST_STATE_READY;
 80058be:	2301      	movs	r3, #1
  return HAL_OK;
 80058c0:	2000      	movs	r0, #0
  htim->DMABurstState = HAL_DMA_BURST_STATE_READY;
 80058c2:	f884 3046 	strb.w	r3, [r4, #70]	; 0x46
  TIM_CHANNEL_STATE_SET_ALL(htim, HAL_TIM_CHANNEL_STATE_READY);
 80058c6:	f884 303e 	strb.w	r3, [r4, #62]	; 0x3e
 80058ca:	f884 303f 	strb.w	r3, [r4, #63]	; 0x3f
 80058ce:	f884 3040 	strb.w	r3, [r4, #64]	; 0x40
 80058d2:	f884 3041 	strb.w	r3, [r4, #65]	; 0x41
  TIM_CHANNEL_N_STATE_SET_ALL(htim, HAL_TIM_CHANNEL_STATE_READY);
 80058d6:	f884 3042 	strb.w	r3, [r4, #66]	; 0x42
 80058da:	f884 3043 	strb.w	r3, [r4, #67]	; 0x43
 80058de:	f884 3044 	strb.w	r3, [r4, #68]	; 0x44
 80058e2:	f884 3045 	strb.w	r3, [r4, #69]	; 0x45
  htim->State = HAL_TIM_STATE_READY;
 80058e6:	f884 303d 	strb.w	r3, [r4, #61]	; 0x3d
}
 80058ea:	bd10      	pop	{r4, pc}
    return HAL_ERROR;
 80058ec:	2001      	movs	r0, #1
 80058ee:	e7fc      	b.n	80058ea <HAL_TIM_Base_Init+0x52>

080058f0 <HAL_TIM_PWM_Init>:
{
 80058f0:	b510      	push	{r4, lr}
  if (htim == NULL)
 80058f2:	4604      	mov	r4, r0
 80058f4:	b330      	cbz	r0, 8005944 <HAL_TIM_PWM_Init+0x54>
  if (htim->State == HAL_TIM_STATE_RESET)
 80058f6:	f890 303d 	ldrb.w	r3, [r0, #61]	; 0x3d
 80058fa:	f003 02ff 	and.w	r2, r3, #255	; 0xff
 80058fe:	b91b      	cbnz	r3, 8005908 <HAL_TIM_PWM_Init+0x18>
    htim->Lock = HAL_UNLOCKED;
 8005900:	f880 203c 	strb.w	r2, [r0, #60]	; 0x3c
    HAL_TIM_PWM_MspInit(htim);
 8005904:	f7ff ff94 	bl	8005830 <HAL_TIM_PWM_MspInit>
  htim->State = HAL_TIM_STATE_BUSY;
 8005908:	2302      	movs	r3, #2
  TIM_Base_SetConfig(htim->Instance, &htim->Init);
 800590a:	6820      	ldr	r0, [r4, #0]
  htim->State = HAL_TIM_STATE_BUSY;
 800590c:	f884 303d 	strb.w	r3, [r4, #61]	; 0x3d
  TIM_Base_SetConfig(htim->Instance, &htim->Init);
 8005910:	1d21      	adds	r1, r4, #4
 8005912:	f7ff ff8f 	bl	8005834 <TIM_Base_SetConfig>
  htim->DMABurstState = HAL_DMA_BURST_STATE_READY;
 8005916:	2301      	movs	r3, #1
  return HAL_OK;
 8005918:	2000      	movs	r0, #0
  htim->DMABurstState = HAL_DMA_BURST_STATE_READY;
 800591a:	f884 3046 	strb.w	r3, [r4, #70]	; 0x46
  TIM_CHANNEL_STATE_SET_ALL(htim, HAL_TIM_CHANNEL_STATE_READY);
 800591e:	f884 303e 	strb.w	r3, [r4, #62]	; 0x3e
 8005922:	f884 303f 	strb.w	r3, [r4, #63]	; 0x3f
 8005926:	f884 3040 	strb.w	r3, [r4, #64]	; 0x40
 800592a:	f884 3041 	strb.w	r3, [r4, #65]	; 0x41
  TIM_CHANNEL_N_STATE_SET_ALL(htim, HAL_TIM_CHANNEL_STATE_READY);
 800592e:	f884 3042 	strb.w	r3, [r4, #66]	; 0x42
 8005932:	f884 3043 	strb.w	r3, [r4, #67]	; 0x43
 8005936:	f884 3044 	strb.w	r3, [r4, #68]	; 0x44
 800593a:	f884 3045 	strb.w	r3, [r4, #69]	; 0x45
  htim->State = HAL_TIM_STATE_READY;
 800593e:	f884 303d 	strb.w	r3, [r4, #61]	; 0x3d
}
 8005942:	bd10      	pop	{r4, pc}
    return HAL_ERROR;
 8005944:	2001      	movs	r0, #1
 8005946:	e7fc      	b.n	8005942 <HAL_TIM_PWM_Init+0x52>

08005948 <TIM_OC2_SetConfig>:
  TIMx->CCER &= ~TIM_CCER_CC2E;
 8005948:	6a03      	ldr	r3, [r0, #32]
{
 800594a:	b570      	push	{r4, r5, r6, lr}
  TIMx->CCER &= ~TIM_CCER_CC2E;
 800594c:	f023 0310 	bic.w	r3, r3, #16
 8005950:	6203      	str	r3, [r0, #32]
  tmpccer = TIMx->CCER;
 8005952:	6a03      	ldr	r3, [r0, #32]
  tmpcr2 =  TIMx->CR2;
 8005954:	6844      	ldr	r4, [r0, #4]
  tmpccmrx = TIMx->CCMR1;
 8005956:	6982      	ldr	r2, [r0, #24]
  tmpccmrx |= (OC_Config->OCMode << 8U);
 8005958:	680d      	ldr	r5, [r1, #0]
  tmpccmrx &= ~TIM_CCMR1_CC2S;
 800595a:	f422 42e6 	bic.w	r2, r2, #29440	; 0x7300
  tmpccmrx |= (OC_Config->OCMode << 8U);
 800595e:	ea42 2205 	orr.w	r2, r2, r5, lsl #8
  tmpccer |= (OC_Config->OCPolarity << 4U);
 8005962:	688d      	ldr	r5, [r1, #8]
  tmpccer &= ~TIM_CCER_CC2P;
 8005964:	f023 0320 	bic.w	r3, r3, #32
  tmpccer |= (OC_Config->OCPolarity << 4U);
 8005968:	ea43 1305 	orr.w	r3, r3, r5, lsl #4
  if (IS_TIM_CCXN_INSTANCE(TIMx, TIM_CHANNEL_2))
 800596c:	4d0b      	ldr	r5, [pc, #44]	; (800599c <TIM_OC2_SetConfig+0x54>)
 800596e:	42a8      	cmp	r0, r5
 8005970:	d10d      	bne.n	800598e <TIM_OC2_SetConfig+0x46>
    tmpccer |= (OC_Config->OCNPolarity << 4U);
 8005972:	68cd      	ldr	r5, [r1, #12]
    tmpccer &= ~TIM_CCER_CC2NP;
 8005974:	f023 0380 	bic.w	r3, r3, #128	; 0x80
    tmpccer |= (OC_Config->OCNPolarity << 4U);
 8005978:	ea43 1305 	orr.w	r3, r3, r5, lsl #4
    tmpcr2 &= ~TIM_CR2_OIS2N;
 800597c:	f424 6440 	bic.w	r4, r4, #3072	; 0xc00
    tmpcr2 |= (OC_Config->OCNIdleState << 2U);
 8005980:	e9d1 5605 	ldrd	r5, r6, [r1, #20]
 8005984:	4335      	orrs	r5, r6
    tmpccer &= ~TIM_CCER_CC2NE;
 8005986:	f023 0340 	bic.w	r3, r3, #64	; 0x40
    tmpcr2 |= (OC_Config->OCNIdleState << 2U);
 800598a:	ea44 0485 	orr.w	r4, r4, r5, lsl #2
  TIMx->CR2 = tmpcr2;
 800598e:	6044      	str	r4, [r0, #4]
  TIMx->CCMR1 = tmpccmrx;
 8005990:	6182      	str	r2, [r0, #24]
  TIMx->CCR2 = OC_Config->Pulse;
 8005992:	684a      	ldr	r2, [r1, #4]
 8005994:	6382      	str	r2, [r0, #56]	; 0x38
  TIMx->CCER = tmpccer;
 8005996:	6203      	str	r3, [r0, #32]
}
 8005998:	bd70      	pop	{r4, r5, r6, pc}
 800599a:	bf00      	nop
 800599c:	40012c00 	.word	0x40012c00

080059a0 <HAL_TIM_PWM_ConfigChannel>:
{
 80059a0:	b538      	push	{r3, r4, r5, lr}
  __HAL_LOCK(htim);
 80059a2:	f890 303c 	ldrb.w	r3, [r0, #60]	; 0x3c
{
 80059a6:	4604      	mov	r4, r0
  __HAL_LOCK(htim);
 80059a8:	2b01      	cmp	r3, #1
 80059aa:	d052      	beq.n	8005a52 <HAL_TIM_PWM_ConfigChannel+0xb2>
 80059ac:	2301      	movs	r3, #1
  switch (Channel)
 80059ae:	2a08      	cmp	r2, #8
  __HAL_LOCK(htim);
 80059b0:	f880 303c 	strb.w	r3, [r0, #60]	; 0x3c
  switch (Channel)
 80059b4:	d03c      	beq.n	8005a30 <HAL_TIM_PWM_ConfigChannel+0x90>
 80059b6:	d806      	bhi.n	80059c6 <HAL_TIM_PWM_ConfigChannel+0x26>
 80059b8:	b1c2      	cbz	r2, 80059ec <HAL_TIM_PWM_ConfigChannel+0x4c>
 80059ba:	2a04      	cmp	r2, #4
 80059bc:	d027      	beq.n	8005a0e <HAL_TIM_PWM_ConfigChannel+0x6e>
  __HAL_UNLOCK(htim);
 80059be:	2000      	movs	r0, #0
 80059c0:	f884 003c 	strb.w	r0, [r4, #60]	; 0x3c
}
 80059c4:	bd38      	pop	{r3, r4, r5, pc}
  switch (Channel)
 80059c6:	2a0c      	cmp	r2, #12
 80059c8:	d1f9      	bne.n	80059be <HAL_TIM_PWM_ConfigChannel+0x1e>
      TIM_OC4_SetConfig(htim->Instance, sConfig);
 80059ca:	6800      	ldr	r0, [r0, #0]
 80059cc:	f7ff ff0e 	bl	80057ec <TIM_OC4_SetConfig>
      htim->Instance->CCMR2 |= TIM_CCMR2_OC4PE;
 80059d0:	6823      	ldr	r3, [r4, #0]
      htim->Instance->CCMR2 |= sConfig->OCFastMode << 8U;
 80059d2:	6909      	ldr	r1, [r1, #16]
      htim->Instance->CCMR2 |= TIM_CCMR2_OC4PE;
 80059d4:	69da      	ldr	r2, [r3, #28]
 80059d6:	f442 6200 	orr.w	r2, r2, #2048	; 0x800
 80059da:	61da      	str	r2, [r3, #28]
      htim->Instance->CCMR2 &= ~TIM_CCMR2_OC4FE;
 80059dc:	69da      	ldr	r2, [r3, #28]
 80059de:	f422 6280 	bic.w	r2, r2, #1024	; 0x400
 80059e2:	61da      	str	r2, [r3, #28]
      htim->Instance->CCMR2 |= sConfig->OCFastMode << 8U;
 80059e4:	69da      	ldr	r2, [r3, #28]
 80059e6:	ea42 2201 	orr.w	r2, r2, r1, lsl #8
 80059ea:	e030      	b.n	8005a4e <HAL_TIM_PWM_ConfigChannel+0xae>
      TIM_OC1_SetConfig(htim->Instance, sConfig);
 80059ec:	6800      	ldr	r0, [r0, #0]
 80059ee:	f7ff feab 	bl	8005748 <TIM_OC1_SetConfig>
      htim->Instance->CCMR1 |= TIM_CCMR1_OC1PE;
 80059f2:	6823      	ldr	r3, [r4, #0]
      htim->Instance->CCMR1 |= sConfig->OCFastMode;
 80059f4:	6909      	ldr	r1, [r1, #16]
      htim->Instance->CCMR1 |= TIM_CCMR1_OC1PE;
 80059f6:	699a      	ldr	r2, [r3, #24]
 80059f8:	f042 0208 	orr.w	r2, r2, #8
 80059fc:	619a      	str	r2, [r3, #24]
      htim->Instance->CCMR1 &= ~TIM_CCMR1_OC1FE;
 80059fe:	699a      	ldr	r2, [r3, #24]
 8005a00:	f022 0204 	bic.w	r2, r2, #4
 8005a04:	619a      	str	r2, [r3, #24]
      htim->Instance->CCMR1 |= sConfig->OCFastMode;
 8005a06:	699a      	ldr	r2, [r3, #24]
 8005a08:	430a      	orrs	r2, r1
      htim->Instance->CCMR1 |= sConfig->OCFastMode << 8U;
 8005a0a:	619a      	str	r2, [r3, #24]
      break;
 8005a0c:	e7d7      	b.n	80059be <HAL_TIM_PWM_ConfigChannel+0x1e>
      TIM_OC2_SetConfig(htim->Instance, sConfig);
 8005a0e:	6800      	ldr	r0, [r0, #0]
 8005a10:	f7ff ff9a 	bl	8005948 <TIM_OC2_SetConfig>
      htim->Instance->CCMR1 |= TIM_CCMR1_OC2PE;
 8005a14:	6823      	ldr	r3, [r4, #0]
      htim->Instance->CCMR1 |= sConfig->OCFastMode << 8U;
 8005a16:	6909      	ldr	r1, [r1, #16]
      htim->Instance->CCMR1 |= TIM_CCMR1_OC2PE;
 8005a18:	699a      	ldr	r2, [r3, #24]
 8005a1a:	f442 6200 	orr.w	r2, r2, #2048	; 0x800
 8005a1e:	619a      	str	r2, [r3, #24]
      htim->Instance->CCMR1 &= ~TIM_CCMR1_OC2FE;
 8005a20:	699a      	ldr	r2, [r3, #24]
 8005a22:	f422 6280 	bic.w	r2, r2, #1024	; 0x400
 8005a26:	619a      	str	r2, [r3, #24]
      htim->Instance->CCMR1 |= sConfig->OCFastMode << 8U;
 8005a28:	699a      	ldr	r2, [r3, #24]
 8005a2a:	ea42 2201 	orr.w	r2, r2, r1, lsl #8
 8005a2e:	e7ec      	b.n	8005a0a <HAL_TIM_PWM_ConfigChannel+0x6a>
      TIM_OC3_SetConfig(htim->Instance, sConfig);
 8005a30:	6800      	ldr	r0, [r0, #0]
 8005a32:	f7ff feb1 	bl	8005798 <TIM_OC3_SetConfig>
      htim->Instance->CCMR2 |= TIM_CCMR2_OC3PE;
 8005a36:	6823      	ldr	r3, [r4, #0]
      htim->Instance->CCMR2 |= sConfig->OCFastMode;
 8005a38:	6909      	ldr	r1, [r1, #16]
      htim->Instance->CCMR2 |= TIM_CCMR2_OC3PE;
 8005a3a:	69da      	ldr	r2, [r3, #28]
 8005a3c:	f042 0208 	orr.w	r2, r2, #8
 8005a40:	61da      	str	r2, [r3, #28]
      htim->Instance->CCMR2 &= ~TIM_CCMR2_OC3FE;
 8005a42:	69da      	ldr	r2, [r3, #28]
 8005a44:	f022 0204 	bic.w	r2, r2, #4
 8005a48:	61da      	str	r2, [r3, #28]
      htim->Instance->CCMR2 |= sConfig->OCFastMode;
 8005a4a:	69da      	ldr	r2, [r3, #28]
 8005a4c:	430a      	orrs	r2, r1
      htim->Instance->CCMR2 |= sConfig->OCFastMode << 8U;
 8005a4e:	61da      	str	r2, [r3, #28]
      break;
 8005a50:	e7b5      	b.n	80059be <HAL_TIM_PWM_ConfigChannel+0x1e>
  __HAL_LOCK(htim);
 8005a52:	2002      	movs	r0, #2
 8005a54:	e7b6      	b.n	80059c4 <HAL_TIM_PWM_ConfigChannel+0x24>

08005a56 <TIM_ETR_SetConfig>:
  *          This parameter must be a value between 0x00 and 0x0F
  * @retval None
  */
void TIM_ETR_SetConfig(TIM_TypeDef *TIMx, uint32_t TIM_ExtTRGPrescaler,
                       uint32_t TIM_ExtTRGPolarity, uint32_t ExtTRGFilter)
{
 8005a56:	b510      	push	{r4, lr}
  uint32_t tmpsmcr;

  tmpsmcr = TIMx->SMCR;
 8005a58:	6884      	ldr	r4, [r0, #8]

  /* Reset the ETR Bits */
  tmpsmcr &= ~(TIM_SMCR_ETF | TIM_SMCR_ETPS | TIM_SMCR_ECE | TIM_SMCR_ETP);

  /* Set the Prescaler, the Filter value and the Polarity */
  tmpsmcr |= (uint32_t)(TIM_ExtTRGPrescaler | (TIM_ExtTRGPolarity | (ExtTRGFilter << 8U)));
 8005a5a:	430a      	orrs	r2, r1
  tmpsmcr &= ~(TIM_SMCR_ETF | TIM_SMCR_ETPS | TIM_SMCR_ECE | TIM_SMCR_ETP);
 8005a5c:	f424 447f 	bic.w	r4, r4, #65280	; 0xff00
  tmpsmcr |= (uint32_t)(TIM_ExtTRGPrescaler | (TIM_ExtTRGPolarity | (ExtTRGFilter << 8U)));
 8005a60:	ea42 2203 	orr.w	r2, r2, r3, lsl #8
 8005a64:	4322      	orrs	r2, r4

  /* Write to TIMx SMCR */
  TIMx->SMCR = tmpsmcr;
 8005a66:	6082      	str	r2, [r0, #8]
}
 8005a68:	bd10      	pop	{r4, pc}

08005a6a <HAL_TIM_ConfigClockSource>:
{
 8005a6a:	b570      	push	{r4, r5, r6, lr}
  __HAL_LOCK(htim);
 8005a6c:	f890 303c 	ldrb.w	r3, [r0, #60]	; 0x3c
{
 8005a70:	4604      	mov	r4, r0
  __HAL_LOCK(htim);
 8005a72:	2b01      	cmp	r3, #1
 8005a74:	f04f 0002 	mov.w	r0, #2
 8005a78:	d027      	beq.n	8005aca <HAL_TIM_ConfigClockSource+0x60>
 8005a7a:	2301      	movs	r3, #1
  htim->State = HAL_TIM_STATE_BUSY;
 8005a7c:	f884 003d 	strb.w	r0, [r4, #61]	; 0x3d
  tmpsmcr = htim->Instance->SMCR;
 8005a80:	6820      	ldr	r0, [r4, #0]
  __HAL_LOCK(htim);
 8005a82:	f884 303c 	strb.w	r3, [r4, #60]	; 0x3c
  tmpsmcr = htim->Instance->SMCR;
 8005a86:	6883      	ldr	r3, [r0, #8]
  tmpsmcr &= ~(TIM_SMCR_ETF | TIM_SMCR_ETPS | TIM_SMCR_ECE | TIM_SMCR_ETP);
 8005a88:	f423 437f 	bic.w	r3, r3, #65280	; 0xff00
 8005a8c:	f023 0377 	bic.w	r3, r3, #119	; 0x77
  htim->Instance->SMCR = tmpsmcr;
 8005a90:	6083      	str	r3, [r0, #8]
  switch (sClockSourceConfig->ClockSource)
 8005a92:	680b      	ldr	r3, [r1, #0]
 8005a94:	2b60      	cmp	r3, #96	; 0x60
 8005a96:	d04d      	beq.n	8005b34 <HAL_TIM_ConfigClockSource+0xca>
 8005a98:	d832      	bhi.n	8005b00 <HAL_TIM_ConfigClockSource+0x96>
 8005a9a:	2b40      	cmp	r3, #64	; 0x40
 8005a9c:	d062      	beq.n	8005b64 <HAL_TIM_ConfigClockSource+0xfa>
 8005a9e:	d815      	bhi.n	8005acc <HAL_TIM_ConfigClockSource+0x62>
 8005aa0:	2b20      	cmp	r3, #32
 8005aa2:	d003      	beq.n	8005aac <HAL_TIM_ConfigClockSource+0x42>
 8005aa4:	d809      	bhi.n	8005aba <HAL_TIM_ConfigClockSource+0x50>
 8005aa6:	f033 0210 	bics.w	r2, r3, #16
 8005aaa:	d108      	bne.n	8005abe <HAL_TIM_ConfigClockSource+0x54>
  tmpsmcr = TIMx->SMCR;
 8005aac:	6882      	ldr	r2, [r0, #8]
  tmpsmcr &= ~TIM_SMCR_TS;
 8005aae:	f022 0270 	bic.w	r2, r2, #112	; 0x70
  tmpsmcr |= (InputTriggerSource | TIM_SLAVEMODE_EXTERNAL1);
 8005ab2:	4313      	orrs	r3, r2
 8005ab4:	f043 0307 	orr.w	r3, r3, #7
 8005ab8:	e020      	b.n	8005afc <HAL_TIM_ConfigClockSource+0x92>
  switch (sClockSourceConfig->ClockSource)
 8005aba:	2b30      	cmp	r3, #48	; 0x30
 8005abc:	d0f6      	beq.n	8005aac <HAL_TIM_ConfigClockSource+0x42>
  htim->State = HAL_TIM_STATE_READY;
 8005abe:	2301      	movs	r3, #1
  __HAL_UNLOCK(htim);
 8005ac0:	2000      	movs	r0, #0
  htim->State = HAL_TIM_STATE_READY;
 8005ac2:	f884 303d 	strb.w	r3, [r4, #61]	; 0x3d
  __HAL_UNLOCK(htim);
 8005ac6:	f884 003c 	strb.w	r0, [r4, #60]	; 0x3c
}
 8005aca:	bd70      	pop	{r4, r5, r6, pc}
  switch (sClockSourceConfig->ClockSource)
 8005acc:	2b50      	cmp	r3, #80	; 0x50
 8005ace:	d1f6      	bne.n	8005abe <HAL_TIM_ConfigClockSource+0x54>
      TIM_TI1_ConfigInputStage(htim->Instance,
 8005ad0:	684a      	ldr	r2, [r1, #4]
 8005ad2:	68ce      	ldr	r6, [r1, #12]
  tmpccer = TIMx->CCER;
 8005ad4:	6a01      	ldr	r1, [r0, #32]
  TIMx->CCER &= ~TIM_CCER_CC1E;
 8005ad6:	6a05      	ldr	r5, [r0, #32]
  tmpccer &= ~(TIM_CCER_CC1P | TIM_CCER_CC1NP);
 8005ad8:	f021 010a 	bic.w	r1, r1, #10
  TIMx->CCER &= ~TIM_CCER_CC1E;
 8005adc:	f025 0501 	bic.w	r5, r5, #1
 8005ae0:	6205      	str	r5, [r0, #32]
  tmpccmr1 = TIMx->CCMR1;
 8005ae2:	6983      	ldr	r3, [r0, #24]
  tmpccer |= TIM_ICPolarity;
 8005ae4:	430a      	orrs	r2, r1
  tmpccmr1 &= ~TIM_CCMR1_IC1F;
 8005ae6:	f023 03f0 	bic.w	r3, r3, #240	; 0xf0
  tmpccmr1 |= (TIM_ICFilter << 4U);
 8005aea:	ea43 1306 	orr.w	r3, r3, r6, lsl #4
  TIMx->CCMR1 = tmpccmr1;
 8005aee:	6183      	str	r3, [r0, #24]
  TIMx->CCER = tmpccer;
 8005af0:	6202      	str	r2, [r0, #32]
  tmpsmcr = TIMx->SMCR;
 8005af2:	6883      	ldr	r3, [r0, #8]
  tmpsmcr &= ~TIM_SMCR_TS;
 8005af4:	f023 0370 	bic.w	r3, r3, #112	; 0x70
  tmpsmcr |= (InputTriggerSource | TIM_SLAVEMODE_EXTERNAL1);
 8005af8:	f043 0357 	orr.w	r3, r3, #87	; 0x57
  TIMx->SMCR = tmpsmcr;
 8005afc:	6083      	str	r3, [r0, #8]
}
 8005afe:	e7de      	b.n	8005abe <HAL_TIM_ConfigClockSource+0x54>
  switch (sClockSourceConfig->ClockSource)
 8005b00:	2b70      	cmp	r3, #112	; 0x70
 8005b02:	d00c      	beq.n	8005b1e <HAL_TIM_ConfigClockSource+0xb4>
 8005b04:	f5b3 5f00 	cmp.w	r3, #8192	; 0x2000
 8005b08:	d1d9      	bne.n	8005abe <HAL_TIM_ConfigClockSource+0x54>
      TIM_ETR_SetConfig(htim->Instance,
 8005b0a:	68cb      	ldr	r3, [r1, #12]
 8005b0c:	e9d1 2101 	ldrd	r2, r1, [r1, #4]
 8005b10:	f7ff ffa1 	bl	8005a56 <TIM_ETR_SetConfig>
      htim->Instance->SMCR |= TIM_SMCR_ECE;
 8005b14:	6822      	ldr	r2, [r4, #0]
 8005b16:	6893      	ldr	r3, [r2, #8]
 8005b18:	f443 4380 	orr.w	r3, r3, #16384	; 0x4000
 8005b1c:	e008      	b.n	8005b30 <HAL_TIM_ConfigClockSource+0xc6>
      TIM_ETR_SetConfig(htim->Instance,
 8005b1e:	68cb      	ldr	r3, [r1, #12]
 8005b20:	e9d1 2101 	ldrd	r2, r1, [r1, #4]
 8005b24:	f7ff ff97 	bl	8005a56 <TIM_ETR_SetConfig>
      tmpsmcr = htim->Instance->SMCR;
 8005b28:	6822      	ldr	r2, [r4, #0]
 8005b2a:	6893      	ldr	r3, [r2, #8]
      tmpsmcr |= (TIM_SLAVEMODE_EXTERNAL1 | TIM_CLOCKSOURCE_ETRMODE1);
 8005b2c:	f043 0377 	orr.w	r3, r3, #119	; 0x77
      htim->Instance->SMCR |= TIM_SMCR_ECE;
 8005b30:	6093      	str	r3, [r2, #8]
      break;
 8005b32:	e7c4      	b.n	8005abe <HAL_TIM_ConfigClockSource+0x54>
      TIM_TI2_ConfigInputStage(htim->Instance,
 8005b34:	684d      	ldr	r5, [r1, #4]
 8005b36:	68ce      	ldr	r6, [r1, #12]
  TIMx->CCER &= ~TIM_CCER_CC2E;
 8005b38:	6a01      	ldr	r1, [r0, #32]
 8005b3a:	f021 0110 	bic.w	r1, r1, #16
 8005b3e:	6201      	str	r1, [r0, #32]
  tmpccmr1 = TIMx->CCMR1;
 8005b40:	6982      	ldr	r2, [r0, #24]
  tmpccer = TIMx->CCER;
 8005b42:	6a03      	ldr	r3, [r0, #32]
  tmpccmr1 &= ~TIM_CCMR1_IC2F;
 8005b44:	f422 4270 	bic.w	r2, r2, #61440	; 0xf000
  tmpccer &= ~(TIM_CCER_CC2P | TIM_CCER_CC2NP);
 8005b48:	f023 03a0 	bic.w	r3, r3, #160	; 0xa0
  tmpccer |= (TIM_ICPolarity << 4U);
 8005b4c:	ea43 1305 	orr.w	r3, r3, r5, lsl #4
  tmpccmr1 |= (TIM_ICFilter << 12U);
 8005b50:	ea42 3206 	orr.w	r2, r2, r6, lsl #12
  TIMx->CCMR1 = tmpccmr1 ;
 8005b54:	6182      	str	r2, [r0, #24]
  TIMx->CCER = tmpccer;
 8005b56:	6203      	str	r3, [r0, #32]
  tmpsmcr = TIMx->SMCR;
 8005b58:	6883      	ldr	r3, [r0, #8]
  tmpsmcr &= ~TIM_SMCR_TS;
 8005b5a:	f023 0370 	bic.w	r3, r3, #112	; 0x70
  tmpsmcr |= (InputTriggerSource | TIM_SLAVEMODE_EXTERNAL1);
 8005b5e:	f043 0367 	orr.w	r3, r3, #103	; 0x67
  TIMx->SMCR = tmpsmcr;
 8005b62:	e7cb      	b.n	8005afc <HAL_TIM_ConfigClockSource+0x92>
      TIM_TI1_ConfigInputStage(htim->Instance,
 8005b64:	684a      	ldr	r2, [r1, #4]
 8005b66:	68ce      	ldr	r6, [r1, #12]
  tmpccer = TIMx->CCER;
 8005b68:	6a01      	ldr	r1, [r0, #32]
  TIMx->CCER &= ~TIM_CCER_CC1E;
 8005b6a:	6a05      	ldr	r5, [r0, #32]
  tmpccer &= ~(TIM_CCER_CC1P | TIM_CCER_CC1NP);
 8005b6c:	f021 010a 	bic.w	r1, r1, #10
  TIMx->CCER &= ~TIM_CCER_CC1E;
 8005b70:	f025 0501 	bic.w	r5, r5, #1
 8005b74:	6205      	str	r5, [r0, #32]
  tmpccmr1 = TIMx->CCMR1;
 8005b76:	6983      	ldr	r3, [r0, #24]
  tmpccer |= TIM_ICPolarity;
 8005b78:	430a      	orrs	r2, r1
  tmpccmr1 &= ~TIM_CCMR1_IC1F;
 8005b7a:	f023 03f0 	bic.w	r3, r3, #240	; 0xf0
  tmpccmr1 |= (TIM_ICFilter << 4U);
 8005b7e:	ea43 1306 	orr.w	r3, r3, r6, lsl #4
  TIMx->CCMR1 = tmpccmr1;
 8005b82:	6183      	str	r3, [r0, #24]
  TIMx->CCER = tmpccer;
 8005b84:	6202      	str	r2, [r0, #32]
  tmpsmcr = TIMx->SMCR;
 8005b86:	6883      	ldr	r3, [r0, #8]
  tmpsmcr &= ~TIM_SMCR_TS;
 8005b88:	f023 0370 	bic.w	r3, r3, #112	; 0x70
  tmpsmcr |= (InputTriggerSource | TIM_SLAVEMODE_EXTERNAL1);
 8005b8c:	f043 0347 	orr.w	r3, r3, #71	; 0x47
  TIMx->SMCR = tmpsmcr;
 8005b90:	e7b4      	b.n	8005afc <HAL_TIM_ConfigClockSource+0x92>

08005b92 <TIM_CCxChannelCmd>:
  * @param  ChannelState specifies the TIM Channel CCxE bit new state.
  *          This parameter can be: TIM_CCx_ENABLE or TIM_CCx_DISABLE.
  * @retval None
  */
void TIM_CCxChannelCmd(TIM_TypeDef *TIMx, uint32_t Channel, uint32_t ChannelState)
{
 8005b92:	b510      	push	{r4, lr}

  /* Check the parameters */
  assert_param(IS_TIM_CC1_INSTANCE(TIMx));
  assert_param(IS_TIM_CHANNELS(Channel));

  tmp = TIM_CCER_CC1E << (Channel & 0x1FU); /* 0x1FU = 31 bits max shift */
 8005b94:	2401      	movs	r4, #1

  /* Reset the CCxE Bit */
  TIMx->CCER &= ~tmp;
 8005b96:	6a03      	ldr	r3, [r0, #32]
  tmp = TIM_CCER_CC1E << (Channel & 0x1FU); /* 0x1FU = 31 bits max shift */
 8005b98:	f001 011f 	and.w	r1, r1, #31
 8005b9c:	408c      	lsls	r4, r1
  TIMx->CCER &= ~tmp;
 8005b9e:	ea23 0304 	bic.w	r3, r3, r4
 8005ba2:	6203      	str	r3, [r0, #32]

  /* Set or reset the CCxE Bit */
  TIMx->CCER |= (uint32_t)(ChannelState << (Channel & 0x1FU)); /* 0x1FU = 31 bits max shift */
 8005ba4:	6a03      	ldr	r3, [r0, #32]
 8005ba6:	408a      	lsls	r2, r1
 8005ba8:	431a      	orrs	r2, r3
 8005baa:	6202      	str	r2, [r0, #32]
}
 8005bac:	bd10      	pop	{r4, pc}
	...

08005bb0 <HAL_TIM_OC_Start>:
{
 8005bb0:	b510      	push	{r4, lr}
 8005bb2:	4604      	mov	r4, r0
  if (TIM_CHANNEL_STATE_GET(htim, Channel) != HAL_TIM_CHANNEL_STATE_READY)
 8005bb4:	b929      	cbnz	r1, 8005bc2 <HAL_TIM_OC_Start+0x12>
 8005bb6:	f890 303e 	ldrb.w	r3, [r0, #62]	; 0x3e
 8005bba:	2b01      	cmp	r3, #1
 8005bbc:	d021      	beq.n	8005c02 <HAL_TIM_OC_Start+0x52>
    return HAL_ERROR;
 8005bbe:	2001      	movs	r0, #1
}
 8005bc0:	bd10      	pop	{r4, pc}
  if (TIM_CHANNEL_STATE_GET(htim, Channel) != HAL_TIM_CHANNEL_STATE_READY)
 8005bc2:	2904      	cmp	r1, #4
 8005bc4:	d107      	bne.n	8005bd6 <HAL_TIM_OC_Start+0x26>
 8005bc6:	f890 303f 	ldrb.w	r3, [r0, #63]	; 0x3f
 8005bca:	2b01      	cmp	r3, #1
 8005bcc:	d1f7      	bne.n	8005bbe <HAL_TIM_OC_Start+0xe>
  TIM_CHANNEL_STATE_SET(htim, Channel, HAL_TIM_CHANNEL_STATE_BUSY);
 8005bce:	2302      	movs	r3, #2
 8005bd0:	f884 303f 	strb.w	r3, [r4, #63]	; 0x3f
 8005bd4:	e018      	b.n	8005c08 <HAL_TIM_OC_Start+0x58>
  if (TIM_CHANNEL_STATE_GET(htim, Channel) != HAL_TIM_CHANNEL_STATE_READY)
 8005bd6:	2908      	cmp	r1, #8
 8005bd8:	d107      	bne.n	8005bea <HAL_TIM_OC_Start+0x3a>
 8005bda:	f890 3040 	ldrb.w	r3, [r0, #64]	; 0x40
 8005bde:	2b01      	cmp	r3, #1
 8005be0:	d1ed      	bne.n	8005bbe <HAL_TIM_OC_Start+0xe>
  TIM_CHANNEL_STATE_SET(htim, Channel, HAL_TIM_CHANNEL_STATE_BUSY);
 8005be2:	2302      	movs	r3, #2
 8005be4:	f884 3040 	strb.w	r3, [r4, #64]	; 0x40
 8005be8:	e00e      	b.n	8005c08 <HAL_TIM_OC_Start+0x58>
  if (TIM_CHANNEL_STATE_GET(htim, Channel) != HAL_TIM_CHANNEL_STATE_READY)
 8005bea:	f890 3041 	ldrb.w	r3, [r0, #65]	; 0x41
 8005bee:	2b01      	cmp	r3, #1
 8005bf0:	d1e5      	bne.n	8005bbe <HAL_TIM_OC_Start+0xe>
  TIM_CHANNEL_STATE_SET(htim, Channel, HAL_TIM_CHANNEL_STATE_BUSY);
 8005bf2:	2904      	cmp	r1, #4
 8005bf4:	d0eb      	beq.n	8005bce <HAL_TIM_OC_Start+0x1e>
 8005bf6:	2908      	cmp	r1, #8
 8005bf8:	d0f3      	beq.n	8005be2 <HAL_TIM_OC_Start+0x32>
 8005bfa:	2302      	movs	r3, #2
 8005bfc:	f880 3041 	strb.w	r3, [r0, #65]	; 0x41
 8005c00:	e002      	b.n	8005c08 <HAL_TIM_OC_Start+0x58>
 8005c02:	2302      	movs	r3, #2
 8005c04:	f880 303e 	strb.w	r3, [r0, #62]	; 0x3e
  TIM_CCxChannelCmd(htim->Instance, Channel, TIM_CCx_ENABLE);
 8005c08:	2201      	movs	r2, #1
 8005c0a:	6820      	ldr	r0, [r4, #0]
 8005c0c:	f7ff ffc1 	bl	8005b92 <TIM_CCxChannelCmd>
  if (IS_TIM_BREAK_INSTANCE(htim->Instance) != RESET)
 8005c10:	6823      	ldr	r3, [r4, #0]
 8005c12:	4a0c      	ldr	r2, [pc, #48]	; (8005c44 <HAL_TIM_OC_Start+0x94>)
 8005c14:	4293      	cmp	r3, r2
 8005c16:	d10a      	bne.n	8005c2e <HAL_TIM_OC_Start+0x7e>
    __HAL_TIM_MOE_ENABLE(htim);
 8005c18:	6c5a      	ldr	r2, [r3, #68]	; 0x44
 8005c1a:	f442 4200 	orr.w	r2, r2, #32768	; 0x8000
 8005c1e:	645a      	str	r2, [r3, #68]	; 0x44
    tmpsmcr = htim->Instance->SMCR & TIM_SMCR_SMS;
 8005c20:	689a      	ldr	r2, [r3, #8]
 8005c22:	f002 0207 	and.w	r2, r2, #7
    if (!IS_TIM_SLAVEMODE_TRIGGER_ENABLED(tmpsmcr))
 8005c26:	2a06      	cmp	r2, #6
 8005c28:	d107      	bne.n	8005c3a <HAL_TIM_OC_Start+0x8a>
  return HAL_OK;
 8005c2a:	2000      	movs	r0, #0
 8005c2c:	e7c8      	b.n	8005bc0 <HAL_TIM_OC_Start+0x10>
  if (IS_TIM_SLAVE_INSTANCE(htim->Instance))
 8005c2e:	f1b3 4f80 	cmp.w	r3, #1073741824	; 0x40000000
 8005c32:	d0f5      	beq.n	8005c20 <HAL_TIM_OC_Start+0x70>
 8005c34:	4a04      	ldr	r2, [pc, #16]	; (8005c48 <HAL_TIM_OC_Start+0x98>)
 8005c36:	4293      	cmp	r3, r2
 8005c38:	d0f2      	beq.n	8005c20 <HAL_TIM_OC_Start+0x70>
    __HAL_TIM_ENABLE(htim);
 8005c3a:	681a      	ldr	r2, [r3, #0]
 8005c3c:	f042 0201 	orr.w	r2, r2, #1
 8005c40:	601a      	str	r2, [r3, #0]
 8005c42:	e7f2      	b.n	8005c2a <HAL_TIM_OC_Start+0x7a>
 8005c44:	40012c00 	.word	0x40012c00
 8005c48:	40000400 	.word	0x40000400

08005c4c <HAL_TIM_PWM_Start>:
 8005c4c:	f7ff bfb0 	b.w	8005bb0 <HAL_TIM_OC_Start>

08005c50 <HAL_TIM_OC_Stop>:
{
 8005c50:	b538      	push	{r3, r4, r5, lr}
 8005c52:	4604      	mov	r4, r0
  TIM_CCxChannelCmd(htim->Instance, Channel, TIM_CCx_DISABLE);
 8005c54:	2200      	movs	r2, #0
 8005c56:	6800      	ldr	r0, [r0, #0]
{
 8005c58:	460d      	mov	r5, r1
  TIM_CCxChannelCmd(htim->Instance, Channel, TIM_CCx_DISABLE);
 8005c5a:	f7ff ff9a 	bl	8005b92 <TIM_CCxChannelCmd>
  if (IS_TIM_BREAK_INSTANCE(htim->Instance) != RESET)
 8005c5e:	6823      	ldr	r3, [r4, #0]
 8005c60:	4a18      	ldr	r2, [pc, #96]	; (8005cc4 <HAL_TIM_OC_Stop+0x74>)
 8005c62:	4293      	cmp	r3, r2
 8005c64:	d10d      	bne.n	8005c82 <HAL_TIM_OC_Stop+0x32>
    __HAL_TIM_MOE_DISABLE(htim);
 8005c66:	f241 1211 	movw	r2, #4369	; 0x1111
 8005c6a:	6a19      	ldr	r1, [r3, #32]
 8005c6c:	4211      	tst	r1, r2
 8005c6e:	d108      	bne.n	8005c82 <HAL_TIM_OC_Stop+0x32>
 8005c70:	f240 4244 	movw	r2, #1092	; 0x444
 8005c74:	6a19      	ldr	r1, [r3, #32]
 8005c76:	4211      	tst	r1, r2
 8005c78:	bf02      	ittt	eq
 8005c7a:	6c5a      	ldreq	r2, [r3, #68]	; 0x44
 8005c7c:	f422 4200 	biceq.w	r2, r2, #32768	; 0x8000
 8005c80:	645a      	streq	r2, [r3, #68]	; 0x44
  __HAL_TIM_DISABLE(htim);
 8005c82:	f241 1211 	movw	r2, #4369	; 0x1111
 8005c86:	6a19      	ldr	r1, [r3, #32]
 8005c88:	4211      	tst	r1, r2
 8005c8a:	d108      	bne.n	8005c9e <HAL_TIM_OC_Stop+0x4e>
 8005c8c:	f240 4244 	movw	r2, #1092	; 0x444
 8005c90:	6a19      	ldr	r1, [r3, #32]
 8005c92:	4211      	tst	r1, r2
 8005c94:	bf02      	ittt	eq
 8005c96:	681a      	ldreq	r2, [r3, #0]
 8005c98:	f022 0201 	biceq.w	r2, r2, #1
 8005c9c:	601a      	streq	r2, [r3, #0]
  TIM_CHANNEL_STATE_SET(htim, Channel, HAL_TIM_CHANNEL_STATE_READY);
 8005c9e:	2301      	movs	r3, #1
 8005ca0:	b91d      	cbnz	r5, 8005caa <HAL_TIM_OC_Stop+0x5a>
 8005ca2:	f884 303e 	strb.w	r3, [r4, #62]	; 0x3e
}
 8005ca6:	2000      	movs	r0, #0
 8005ca8:	bd38      	pop	{r3, r4, r5, pc}
  TIM_CHANNEL_STATE_SET(htim, Channel, HAL_TIM_CHANNEL_STATE_READY);
 8005caa:	2d04      	cmp	r5, #4
 8005cac:	d102      	bne.n	8005cb4 <HAL_TIM_OC_Stop+0x64>
 8005cae:	f884 303f 	strb.w	r3, [r4, #63]	; 0x3f
 8005cb2:	e7f8      	b.n	8005ca6 <HAL_TIM_OC_Stop+0x56>
 8005cb4:	2d08      	cmp	r5, #8
 8005cb6:	bf0c      	ite	eq
 8005cb8:	f884 3040 	strbeq.w	r3, [r4, #64]	; 0x40
 8005cbc:	f884 3041 	strbne.w	r3, [r4, #65]	; 0x41
 8005cc0:	e7f1      	b.n	8005ca6 <HAL_TIM_OC_Stop+0x56>
 8005cc2:	bf00      	nop
 8005cc4:	40012c00 	.word	0x40012c00

08005cc8 <HAL_TIM_PWM_Stop>:
 8005cc8:	f7ff bfc2 	b.w	8005c50 <HAL_TIM_OC_Stop>

08005ccc <HAL_TIMEx_MasterConfigSynchronization>:
  *         mode.
  * @retval HAL status
  */
HAL_StatusTypeDef HAL_TIMEx_MasterConfigSynchronization(TIM_HandleTypeDef *htim,
                                                        TIM_MasterConfigTypeDef *sMasterConfig)
{
 8005ccc:	b530      	push	{r4, r5, lr}
  assert_param(IS_TIM_MASTER_INSTANCE(htim->Instance));
  assert_param(IS_TIM_TRGO_SOURCE(sMasterConfig->MasterOutputTrigger));
  assert_param(IS_TIM_MSM_STATE(sMasterConfig->MasterSlaveMode));

  /* Check input state */
  __HAL_LOCK(htim);
 8005cce:	f890 203c 	ldrb.w	r2, [r0, #60]	; 0x3c
{
 8005cd2:	4603      	mov	r3, r0
  __HAL_LOCK(htim);
 8005cd4:	2a01      	cmp	r2, #1
 8005cd6:	f04f 0002 	mov.w	r0, #2
 8005cda:	d01e      	beq.n	8005d1a <HAL_TIMEx_MasterConfigSynchronization+0x4e>

  /* Change the handler state */
  htim->State = HAL_TIM_STATE_BUSY;

  /* Get the TIMx CR2 register value */
  tmpcr2 = htim->Instance->CR2;
 8005cdc:	681a      	ldr	r2, [r3, #0]
  htim->State = HAL_TIM_STATE_BUSY;
 8005cde:	f883 003d 	strb.w	r0, [r3, #61]	; 0x3d
  tmpcr2 = htim->Instance->CR2;
 8005ce2:	6854      	ldr	r4, [r2, #4]
  tmpsmcr = htim->Instance->SMCR;

  /* Reset the MMS Bits */
  tmpcr2 &= ~TIM_CR2_MMS;
  /* Select the TRGO source */
  tmpcr2 |=  sMasterConfig->MasterOutputTrigger;
 8005ce4:	680d      	ldr	r5, [r1, #0]
  tmpcr2 &= ~TIM_CR2_MMS;
 8005ce6:	f024 0470 	bic.w	r4, r4, #112	; 0x70
  tmpcr2 |=  sMasterConfig->MasterOutputTrigger;
 8005cea:	432c      	orrs	r4, r5
  tmpsmcr = htim->Instance->SMCR;
 8005cec:	6890      	ldr	r0, [r2, #8]

  /* Update TIMx CR2 */
  htim->Instance->CR2 = tmpcr2;
 8005cee:	6054      	str	r4, [r2, #4]

  if (IS_TIM_SLAVE_INSTANCE(htim->Instance))
 8005cf0:	4c0a      	ldr	r4, [pc, #40]	; (8005d1c <HAL_TIMEx_MasterConfigSynchronization+0x50>)
 8005cf2:	42a2      	cmp	r2, r4
 8005cf4:	d006      	beq.n	8005d04 <HAL_TIMEx_MasterConfigSynchronization+0x38>
 8005cf6:	f1b2 4f80 	cmp.w	r2, #1073741824	; 0x40000000
 8005cfa:	d003      	beq.n	8005d04 <HAL_TIMEx_MasterConfigSynchronization+0x38>
 8005cfc:	f5a4 3494 	sub.w	r4, r4, #75776	; 0x12800
 8005d00:	42a2      	cmp	r2, r4
 8005d02:	d104      	bne.n	8005d0e <HAL_TIMEx_MasterConfigSynchronization+0x42>
  {
    /* Reset the MSM Bit */
    tmpsmcr &= ~TIM_SMCR_MSM;
    /* Set master mode */
    tmpsmcr |= sMasterConfig->MasterSlaveMode;
 8005d04:	6849      	ldr	r1, [r1, #4]
    tmpsmcr &= ~TIM_SMCR_MSM;
 8005d06:	f020 0080 	bic.w	r0, r0, #128	; 0x80
    tmpsmcr |= sMasterConfig->MasterSlaveMode;
 8005d0a:	4301      	orrs	r1, r0

    /* Update TIMx SMCR */
    htim->Instance->SMCR = tmpsmcr;
 8005d0c:	6091      	str	r1, [r2, #8]
  }

  /* Change the htim state */
  htim->State = HAL_TIM_STATE_READY;
 8005d0e:	2201      	movs	r2, #1

  __HAL_UNLOCK(htim);
 8005d10:	2000      	movs	r0, #0
  htim->State = HAL_TIM_STATE_READY;
 8005d12:	f883 203d 	strb.w	r2, [r3, #61]	; 0x3d
  __HAL_UNLOCK(htim);
 8005d16:	f883 003c 	strb.w	r0, [r3, #60]	; 0x3c

  return HAL_OK;
}
 8005d1a:	bd30      	pop	{r4, r5, pc}
 8005d1c:	40012c00 	.word	0x40012c00

08005d20 <HAL_TIMEx_ConfigBreakDeadTime>:
  assert_param(IS_TIM_BREAK_STATE(sBreakDeadTimeConfig->BreakState));
  assert_param(IS_TIM_BREAK_POLARITY(sBreakDeadTimeConfig->BreakPolarity));
  assert_param(IS_TIM_AUTOMATIC_OUTPUT_STATE(sBreakDeadTimeConfig->AutomaticOutput));

  /* Check input state */
  __HAL_LOCK(htim);
 8005d20:	f890 303c 	ldrb.w	r3, [r0, #60]	; 0x3c
 8005d24:	2b01      	cmp	r3, #1
 8005d26:	d01f      	beq.n	8005d68 <HAL_TIMEx_ConfigBreakDeadTime+0x48>
  /* Set the Lock level, the Break enable Bit and the Polarity, the OSSR State,
     the OSSI State, the dead time value and the Automatic Output Enable Bit */

  /* Set the BDTR bits */
  MODIFY_REG(tmpbdtr, TIM_BDTR_DTG, sBreakDeadTimeConfig->DeadTime);
  MODIFY_REG(tmpbdtr, TIM_BDTR_LOCK, sBreakDeadTimeConfig->LockLevel);
 8005d28:	68cb      	ldr	r3, [r1, #12]
 8005d2a:	688a      	ldr	r2, [r1, #8]
 8005d2c:	f423 7340 	bic.w	r3, r3, #768	; 0x300
 8005d30:	4313      	orrs	r3, r2
  MODIFY_REG(tmpbdtr, TIM_BDTR_OSSI, sBreakDeadTimeConfig->OffStateIDLEMode);
 8005d32:	684a      	ldr	r2, [r1, #4]
 8005d34:	f423 6380 	bic.w	r3, r3, #1024	; 0x400
 8005d38:	4313      	orrs	r3, r2
  MODIFY_REG(tmpbdtr, TIM_BDTR_OSSR, sBreakDeadTimeConfig->OffStateRunMode);
 8005d3a:	680a      	ldr	r2, [r1, #0]
 8005d3c:	f423 6300 	bic.w	r3, r3, #2048	; 0x800
 8005d40:	4313      	orrs	r3, r2
  MODIFY_REG(tmpbdtr, TIM_BDTR_BKE, sBreakDeadTimeConfig->BreakState);
 8005d42:	690a      	ldr	r2, [r1, #16]
 8005d44:	f423 5380 	bic.w	r3, r3, #4096	; 0x1000
 8005d48:	4313      	orrs	r3, r2
  MODIFY_REG(tmpbdtr, TIM_BDTR_BKP, sBreakDeadTimeConfig->BreakPolarity);
 8005d4a:	694a      	ldr	r2, [r1, #20]
 8005d4c:	f423 5300 	bic.w	r3, r3, #8192	; 0x2000
 8005d50:	4313      	orrs	r3, r2
  MODIFY_REG(tmpbdtr, TIM_BDTR_AOE, sBreakDeadTimeConfig->AutomaticOutput);
 8005d52:	69ca      	ldr	r2, [r1, #28]
 8005d54:	f423 4380 	bic.w	r3, r3, #16384	; 0x4000
 8005d58:	4313      	orrs	r3, r2


  /* Set TIMx_BDTR */
  htim->Instance->BDTR = tmpbdtr;
 8005d5a:	6802      	ldr	r2, [r0, #0]
 8005d5c:	6453      	str	r3, [r2, #68]	; 0x44

  __HAL_UNLOCK(htim);
 8005d5e:	2300      	movs	r3, #0
 8005d60:	f880 303c 	strb.w	r3, [r0, #60]	; 0x3c

  return HAL_OK;
 8005d64:	4618      	mov	r0, r3
 8005d66:	4770      	bx	lr
  __HAL_LOCK(htim);
 8005d68:	2002      	movs	r0, #2
}
 8005d6a:	4770      	bx	lr

08005d6c <_ZNK10__cxxabiv117__class_type_info11__do_upcastEPKS0_PPv>:
 8005d6c:	b57f      	push	{r0, r1, r2, r3, r4, r5, r6, lr}
 8005d6e:	2400      	movs	r4, #0
 8005d70:	2310      	movs	r3, #16
 8005d72:	e9cd 3402 	strd	r3, r4, [sp, #8]
 8005d76:	6803      	ldr	r3, [r0, #0]
 8005d78:	4615      	mov	r5, r2
 8005d7a:	699e      	ldr	r6, [r3, #24]
 8005d7c:	e9cd 4400 	strd	r4, r4, [sp]
 8005d80:	466b      	mov	r3, sp
 8005d82:	6812      	ldr	r2, [r2, #0]
 8005d84:	47b0      	blx	r6
 8005d86:	f89d 3004 	ldrb.w	r3, [sp, #4]
 8005d8a:	f003 0306 	and.w	r3, r3, #6
 8005d8e:	2b06      	cmp	r3, #6
 8005d90:	bf09      	itett	eq
 8005d92:	2001      	moveq	r0, #1
 8005d94:	4620      	movne	r0, r4
 8005d96:	9b00      	ldreq	r3, [sp, #0]
 8005d98:	602b      	streq	r3, [r5, #0]
 8005d9a:	b004      	add	sp, #16
 8005d9c:	bd70      	pop	{r4, r5, r6, pc}

08005d9e <_ZNK10__cxxabiv117__class_type_info20__do_find_public_srcEiPKvPKS0_S2_>:
 8005d9e:	9800      	ldr	r0, [sp, #0]
 8005da0:	4290      	cmp	r0, r2
 8005da2:	bf14      	ite	ne
 8005da4:	2001      	movne	r0, #1
 8005da6:	2006      	moveq	r0, #6
 8005da8:	4770      	bx	lr
	...

08005dac <_ZN10__cxxabiv117__class_type_infoD1Ev>:
 8005dac:	b510      	push	{r4, lr}
 8005dae:	4604      	mov	r4, r0
 8005db0:	4b02      	ldr	r3, [pc, #8]	; (8005dbc <_ZN10__cxxabiv117__class_type_infoD1Ev+0x10>)
 8005db2:	6003      	str	r3, [r0, #0]
 8005db4:	f000 fc3b 	bl	800662e <_ZNSt9type_infoD1Ev>
 8005db8:	4620      	mov	r0, r4
 8005dba:	bd10      	pop	{r4, pc}
 8005dbc:	080074ec 	.word	0x080074ec

08005dc0 <_ZN10__cxxabiv117__class_type_infoD0Ev>:
 8005dc0:	b510      	push	{r4, lr}
 8005dc2:	4604      	mov	r4, r0
 8005dc4:	f7ff fff2 	bl	8005dac <_ZN10__cxxabiv117__class_type_infoD1Ev>
 8005dc8:	4620      	mov	r0, r4
 8005dca:	2108      	movs	r1, #8
 8005dcc:	f000 f842 	bl	8005e54 <_ZdlPvj>
 8005dd0:	4620      	mov	r0, r4
 8005dd2:	bd10      	pop	{r4, pc}

08005dd4 <_ZNK10__cxxabiv117__class_type_info12__do_dyncastEiNS0_10__sub_kindEPKS0_PKvS3_S5_RNS0_16__dyncast_resultE>:
 8005dd4:	e92d 41f0 	stmdb	sp!, {r4, r5, r6, r7, r8, lr}
 8005dd8:	f8dd 8018 	ldr.w	r8, [sp, #24]
 8005ddc:	461f      	mov	r7, r3
 8005dde:	e9dd 3408 	ldrd	r3, r4, [sp, #32]
 8005de2:	4598      	cmp	r8, r3
 8005de4:	4606      	mov	r6, r0
 8005de6:	4615      	mov	r5, r2
 8005de8:	d107      	bne.n	8005dfa <_ZNK10__cxxabiv117__class_type_info12__do_dyncastEiNS0_10__sub_kindEPKS0_PKvS3_S5_RNS0_16__dyncast_resultE+0x26>
 8005dea:	9907      	ldr	r1, [sp, #28]
 8005dec:	f000 fc22 	bl	8006634 <_ZNKSt9type_infoeqERKS_>
 8005df0:	b118      	cbz	r0, 8005dfa <_ZNK10__cxxabiv117__class_type_info12__do_dyncastEiNS0_10__sub_kindEPKS0_PKvS3_S5_RNS0_16__dyncast_resultE+0x26>
 8005df2:	7165      	strb	r5, [r4, #5]
 8005df4:	2000      	movs	r0, #0
 8005df6:	e8bd 81f0 	ldmia.w	sp!, {r4, r5, r6, r7, r8, pc}
 8005dfa:	4639      	mov	r1, r7
 8005dfc:	4630      	mov	r0, r6
 8005dfe:	f000 fc19 	bl	8006634 <_ZNKSt9type_infoeqERKS_>
 8005e02:	2800      	cmp	r0, #0
 8005e04:	d0f6      	beq.n	8005df4 <_ZNK10__cxxabiv117__class_type_info12__do_dyncastEiNS0_10__sub_kindEPKS0_PKvS3_S5_RNS0_16__dyncast_resultE+0x20>
 8005e06:	2301      	movs	r3, #1
 8005e08:	f8c4 8000 	str.w	r8, [r4]
 8005e0c:	7125      	strb	r5, [r4, #4]
 8005e0e:	71a3      	strb	r3, [r4, #6]
 8005e10:	e7f0      	b.n	8005df4 <_ZNK10__cxxabiv117__class_type_info12__do_dyncastEiNS0_10__sub_kindEPKS0_PKvS3_S5_RNS0_16__dyncast_resultE+0x20>

08005e12 <_ZNK10__cxxabiv117__class_type_info11__do_upcastEPKS0_PKvRNS0_15__upcast_resultE>:
 8005e12:	b538      	push	{r3, r4, r5, lr}
 8005e14:	4615      	mov	r5, r2
 8005e16:	461c      	mov	r4, r3
 8005e18:	f000 fc0c 	bl	8006634 <_ZNKSt9type_infoeqERKS_>
 8005e1c:	b120      	cbz	r0, 8005e28 <_ZNK10__cxxabiv117__class_type_info11__do_upcastEPKS0_PKvRNS0_15__upcast_resultE+0x16>
 8005e1e:	2308      	movs	r3, #8
 8005e20:	60e3      	str	r3, [r4, #12]
 8005e22:	2306      	movs	r3, #6
 8005e24:	6025      	str	r5, [r4, #0]
 8005e26:	7123      	strb	r3, [r4, #4]
 8005e28:	bd38      	pop	{r3, r4, r5, pc}

08005e2a <_ZNK10__cxxabiv117__class_type_info10__do_catchEPKSt9type_infoPPvj>:
 8005e2a:	e92d 41f0 	stmdb	sp!, {r4, r5, r6, r7, r8, lr}
 8005e2e:	4605      	mov	r5, r0
 8005e30:	460c      	mov	r4, r1
 8005e32:	4616      	mov	r6, r2
 8005e34:	461f      	mov	r7, r3
 8005e36:	f000 fbfd 	bl	8006634 <_ZNKSt9type_infoeqERKS_>
 8005e3a:	b948      	cbnz	r0, 8005e50 <_ZNK10__cxxabiv117__class_type_info10__do_catchEPKSt9type_infoPPvj+0x26>
 8005e3c:	2f03      	cmp	r7, #3
 8005e3e:	d807      	bhi.n	8005e50 <_ZNK10__cxxabiv117__class_type_info10__do_catchEPKSt9type_infoPPvj+0x26>
 8005e40:	6823      	ldr	r3, [r4, #0]
 8005e42:	4632      	mov	r2, r6
 8005e44:	4629      	mov	r1, r5
 8005e46:	4620      	mov	r0, r4
 8005e48:	e8bd 41f0 	ldmia.w	sp!, {r4, r5, r6, r7, r8, lr}
 8005e4c:	695b      	ldr	r3, [r3, #20]
 8005e4e:	4718      	bx	r3
 8005e50:	e8bd 81f0 	ldmia.w	sp!, {r4, r5, r6, r7, r8, pc}

08005e54 <_ZdlPvj>:
 8005e54:	f000 be47 	b.w	8006ae6 <_ZdlPv>

08005e58 <__cxa_end_cleanup>:
 8005e58:	b41e      	push	{r1, r2, r3, r4}
 8005e5a:	f000 f89c 	bl	8005f96 <__gnu_end_cleanup>
 8005e5e:	bc1e      	pop	{r1, r2, r3, r4}
 8005e60:	f7fb fe38 	bl	8001ad4 <_Unwind_Resume>

08005e64 <_ZN10__cxxabiv1L24__is_gxx_exception_classEPc>:
 8005e64:	7803      	ldrb	r3, [r0, #0]
 8005e66:	2b47      	cmp	r3, #71	; 0x47
 8005e68:	d117      	bne.n	8005e9a <_ZN10__cxxabiv1L24__is_gxx_exception_classEPc+0x36>
 8005e6a:	7843      	ldrb	r3, [r0, #1]
 8005e6c:	2b4e      	cmp	r3, #78	; 0x4e
 8005e6e:	d114      	bne.n	8005e9a <_ZN10__cxxabiv1L24__is_gxx_exception_classEPc+0x36>
 8005e70:	7883      	ldrb	r3, [r0, #2]
 8005e72:	2b55      	cmp	r3, #85	; 0x55
 8005e74:	d111      	bne.n	8005e9a <_ZN10__cxxabiv1L24__is_gxx_exception_classEPc+0x36>
 8005e76:	78c3      	ldrb	r3, [r0, #3]
 8005e78:	2b43      	cmp	r3, #67	; 0x43
 8005e7a:	d10e      	bne.n	8005e9a <_ZN10__cxxabiv1L24__is_gxx_exception_classEPc+0x36>
 8005e7c:	7903      	ldrb	r3, [r0, #4]
 8005e7e:	2b43      	cmp	r3, #67	; 0x43
 8005e80:	d10b      	bne.n	8005e9a <_ZN10__cxxabiv1L24__is_gxx_exception_classEPc+0x36>
 8005e82:	7943      	ldrb	r3, [r0, #5]
 8005e84:	2b2b      	cmp	r3, #43	; 0x2b
 8005e86:	d108      	bne.n	8005e9a <_ZN10__cxxabiv1L24__is_gxx_exception_classEPc+0x36>
 8005e88:	7983      	ldrb	r3, [r0, #6]
 8005e8a:	2b2b      	cmp	r3, #43	; 0x2b
 8005e8c:	d105      	bne.n	8005e9a <_ZN10__cxxabiv1L24__is_gxx_exception_classEPc+0x36>
 8005e8e:	79c0      	ldrb	r0, [r0, #7]
 8005e90:	2801      	cmp	r0, #1
 8005e92:	bf8c      	ite	hi
 8005e94:	2000      	movhi	r0, #0
 8005e96:	2001      	movls	r0, #1
 8005e98:	4770      	bx	lr
 8005e9a:	2000      	movs	r0, #0
 8005e9c:	4770      	bx	lr
	...

08005ea0 <__cxa_type_match>:
 8005ea0:	e92d 41f3 	stmdb	sp!, {r0, r1, r4, r5, r6, r7, r8, lr}
 8005ea4:	461d      	mov	r5, r3
 8005ea6:	7803      	ldrb	r3, [r0, #0]
 8005ea8:	460e      	mov	r6, r1
 8005eaa:	2b47      	cmp	r3, #71	; 0x47
 8005eac:	4602      	mov	r2, r0
 8005eae:	79c1      	ldrb	r1, [r0, #7]
 8005eb0:	d113      	bne.n	8005eda <__cxa_type_match+0x3a>
 8005eb2:	7843      	ldrb	r3, [r0, #1]
 8005eb4:	2b4e      	cmp	r3, #78	; 0x4e
 8005eb6:	d110      	bne.n	8005eda <__cxa_type_match+0x3a>
 8005eb8:	7883      	ldrb	r3, [r0, #2]
 8005eba:	2b55      	cmp	r3, #85	; 0x55
 8005ebc:	d10d      	bne.n	8005eda <__cxa_type_match+0x3a>
 8005ebe:	78c3      	ldrb	r3, [r0, #3]
 8005ec0:	2b43      	cmp	r3, #67	; 0x43
 8005ec2:	d10a      	bne.n	8005eda <__cxa_type_match+0x3a>
 8005ec4:	7903      	ldrb	r3, [r0, #4]
 8005ec6:	2b46      	cmp	r3, #70	; 0x46
 8005ec8:	d107      	bne.n	8005eda <__cxa_type_match+0x3a>
 8005eca:	7943      	ldrb	r3, [r0, #5]
 8005ecc:	2b4f      	cmp	r3, #79	; 0x4f
 8005ece:	d104      	bne.n	8005eda <__cxa_type_match+0x3a>
 8005ed0:	7983      	ldrb	r3, [r0, #6]
 8005ed2:	2b52      	cmp	r3, #82	; 0x52
 8005ed4:	d101      	bne.n	8005eda <__cxa_type_match+0x3a>
 8005ed6:	2900      	cmp	r1, #0
 8005ed8:	d030      	beq.n	8005f3c <__cxa_type_match+0x9c>
 8005eda:	4610      	mov	r0, r2
 8005edc:	f7ff ffc2 	bl	8005e64 <_ZN10__cxxabiv1L24__is_gxx_exception_classEPc>
 8005ee0:	2300      	movs	r3, #0
 8005ee2:	f080 0401 	eor.w	r4, r0, #1
 8005ee6:	b2e4      	uxtb	r4, r4
 8005ee8:	2000      	movs	r0, #0
 8005eea:	9001      	str	r0, [sp, #4]
 8005eec:	bb4b      	cbnz	r3, 8005f42 <__cxa_type_match+0xa2>
 8005eee:	bb54      	cbnz	r4, 8005f46 <__cxa_type_match+0xa6>
 8005ef0:	2901      	cmp	r1, #1
 8005ef2:	bf0a      	itet	eq
 8005ef4:	f852 3c20 	ldreq.w	r3, [r2, #-32]
 8005ef8:	f1a2 0320 	subne.w	r3, r2, #32
 8005efc:	3b78      	subeq	r3, #120	; 0x78
 8005efe:	2901      	cmp	r1, #1
 8005f00:	bf0c      	ite	eq
 8005f02:	f852 2c20 	ldreq.w	r2, [r2, #-32]
 8005f06:	3258      	addne	r2, #88	; 0x58
 8005f08:	681c      	ldr	r4, [r3, #0]
 8005f0a:	9201      	str	r2, [sp, #4]
 8005f0c:	6823      	ldr	r3, [r4, #0]
 8005f0e:	4620      	mov	r0, r4
 8005f10:	689b      	ldr	r3, [r3, #8]
 8005f12:	4798      	blx	r3
 8005f14:	b1c8      	cbz	r0, 8005f4a <__cxa_type_match+0xaa>
 8005f16:	2702      	movs	r7, #2
 8005f18:	9b01      	ldr	r3, [sp, #4]
 8005f1a:	681b      	ldr	r3, [r3, #0]
 8005f1c:	9301      	str	r3, [sp, #4]
 8005f1e:	6833      	ldr	r3, [r6, #0]
 8005f20:	4621      	mov	r1, r4
 8005f22:	f8d3 8010 	ldr.w	r8, [r3, #16]
 8005f26:	4630      	mov	r0, r6
 8005f28:	2301      	movs	r3, #1
 8005f2a:	aa01      	add	r2, sp, #4
 8005f2c:	47c0      	blx	r8
 8005f2e:	b170      	cbz	r0, 8005f4e <__cxa_type_match+0xae>
 8005f30:	9b01      	ldr	r3, [sp, #4]
 8005f32:	602b      	str	r3, [r5, #0]
 8005f34:	4638      	mov	r0, r7
 8005f36:	b002      	add	sp, #8
 8005f38:	e8bd 81f0 	ldmia.w	sp!, {r4, r5, r6, r7, r8, pc}
 8005f3c:	2301      	movs	r3, #1
 8005f3e:	460c      	mov	r4, r1
 8005f40:	e7d2      	b.n	8005ee8 <__cxa_type_match+0x48>
 8005f42:	4c04      	ldr	r4, [pc, #16]	; (8005f54 <__cxa_type_match+0xb4>)
 8005f44:	e7e2      	b.n	8005f0c <__cxa_type_match+0x6c>
 8005f46:	4c04      	ldr	r4, [pc, #16]	; (8005f58 <__cxa_type_match+0xb8>)
 8005f48:	e7e0      	b.n	8005f0c <__cxa_type_match+0x6c>
 8005f4a:	2701      	movs	r7, #1
 8005f4c:	e7e7      	b.n	8005f1e <__cxa_type_match+0x7e>
 8005f4e:	4607      	mov	r7, r0
 8005f50:	e7f0      	b.n	8005f34 <__cxa_type_match+0x94>
 8005f52:	bf00      	nop
 8005f54:	08007510 	.word	0x08007510
 8005f58:	08007518 	.word	0x08007518

08005f5c <__cxa_begin_cleanup>:
 8005f5c:	b510      	push	{r4, lr}
 8005f5e:	4604      	mov	r4, r0
 8005f60:	f000 f832 	bl	8005fc8 <__cxa_get_globals>
 8005f64:	4602      	mov	r2, r0
 8005f66:	4620      	mov	r0, r4
 8005f68:	f1a4 0120 	sub.w	r1, r4, #32
 8005f6c:	f7ff ff7a 	bl	8005e64 <_ZN10__cxxabiv1L24__is_gxx_exception_classEPc>
 8005f70:	b160      	cbz	r0, 8005f8c <__cxa_begin_cleanup+0x30>
 8005f72:	f854 3c04 	ldr.w	r3, [r4, #-4]
 8005f76:	3301      	adds	r3, #1
 8005f78:	2b01      	cmp	r3, #1
 8005f7a:	f844 3c04 	str.w	r3, [r4, #-4]
 8005f7e:	d103      	bne.n	8005f88 <__cxa_begin_cleanup+0x2c>
 8005f80:	6893      	ldr	r3, [r2, #8]
 8005f82:	f844 3c08 	str.w	r3, [r4, #-8]
 8005f86:	6091      	str	r1, [r2, #8]
 8005f88:	2001      	movs	r0, #1
 8005f8a:	bd10      	pop	{r4, pc}
 8005f8c:	6893      	ldr	r3, [r2, #8]
 8005f8e:	2b00      	cmp	r3, #0
 8005f90:	d0f9      	beq.n	8005f86 <__cxa_begin_cleanup+0x2a>
 8005f92:	f000 faa3 	bl	80064dc <_ZSt9terminatev>

08005f96 <__gnu_end_cleanup>:
 8005f96:	b510      	push	{r4, lr}
 8005f98:	f000 f816 	bl	8005fc8 <__cxa_get_globals>
 8005f9c:	6882      	ldr	r2, [r0, #8]
 8005f9e:	4601      	mov	r1, r0
 8005fa0:	b90a      	cbnz	r2, 8005fa6 <__gnu_end_cleanup+0x10>
 8005fa2:	f000 fa9b 	bl	80064dc <_ZSt9terminatev>
 8005fa6:	f102 0420 	add.w	r4, r2, #32
 8005faa:	4620      	mov	r0, r4
 8005fac:	f7ff ff5a 	bl	8005e64 <_ZN10__cxxabiv1L24__is_gxx_exception_classEPc>
 8005fb0:	b140      	cbz	r0, 8005fc4 <__gnu_end_cleanup+0x2e>
 8005fb2:	69d3      	ldr	r3, [r2, #28]
 8005fb4:	3b01      	subs	r3, #1
 8005fb6:	61d3      	str	r3, [r2, #28]
 8005fb8:	b913      	cbnz	r3, 8005fc0 <__gnu_end_cleanup+0x2a>
 8005fba:	6990      	ldr	r0, [r2, #24]
 8005fbc:	6088      	str	r0, [r1, #8]
 8005fbe:	6193      	str	r3, [r2, #24]
 8005fc0:	4620      	mov	r0, r4
 8005fc2:	bd10      	pop	{r4, pc}
 8005fc4:	6088      	str	r0, [r1, #8]
 8005fc6:	e7fb      	b.n	8005fc0 <__gnu_end_cleanup+0x2a>

08005fc8 <__cxa_get_globals>:
 8005fc8:	4800      	ldr	r0, [pc, #0]	; (8005fcc <__cxa_get_globals+0x4>)
 8005fca:	4770      	bx	lr
 8005fcc:	20000430 	.word	0x20000430

08005fd0 <_ZL12read_uleb128PKhPm>:
 8005fd0:	2300      	movs	r3, #0
 8005fd2:	461a      	mov	r2, r3
 8005fd4:	b530      	push	{r4, r5, lr}
 8005fd6:	f810 5b01 	ldrb.w	r5, [r0], #1
 8005fda:	f005 047f 	and.w	r4, r5, #127	; 0x7f
 8005fde:	4094      	lsls	r4, r2
 8005fe0:	4323      	orrs	r3, r4
 8005fe2:	062c      	lsls	r4, r5, #24
 8005fe4:	f102 0207 	add.w	r2, r2, #7
 8005fe8:	d4f5      	bmi.n	8005fd6 <_ZL12read_uleb128PKhPm+0x6>
 8005fea:	600b      	str	r3, [r1, #0]
 8005fec:	bd30      	pop	{r4, r5, pc}

08005fee <_ZL12read_sleb128PKhPl>:
 8005fee:	2300      	movs	r3, #0
 8005ff0:	461a      	mov	r2, r3
 8005ff2:	b530      	push	{r4, r5, lr}
 8005ff4:	f810 4b01 	ldrb.w	r4, [r0], #1
 8005ff8:	f004 057f 	and.w	r5, r4, #127	; 0x7f
 8005ffc:	4095      	lsls	r5, r2
 8005ffe:	432b      	orrs	r3, r5
 8006000:	0625      	lsls	r5, r4, #24
 8006002:	f102 0207 	add.w	r2, r2, #7
 8006006:	d4f5      	bmi.n	8005ff4 <_ZL12read_sleb128PKhPl+0x6>
 8006008:	2a1f      	cmp	r2, #31
 800600a:	d806      	bhi.n	800601a <_ZL12read_sleb128PKhPl+0x2c>
 800600c:	0664      	lsls	r4, r4, #25
 800600e:	bf42      	ittt	mi
 8006010:	f04f 34ff 	movmi.w	r4, #4294967295
 8006014:	fa04 f202 	lslmi.w	r2, r4, r2
 8006018:	4313      	orrmi	r3, r2
 800601a:	600b      	str	r3, [r1, #0]
 800601c:	bd30      	pop	{r4, r5, pc}

0800601e <_ZL28read_encoded_value_with_basehjPKhPj>:
 800601e:	2850      	cmp	r0, #80	; 0x50
 8006020:	e92d 41f3 	stmdb	sp!, {r0, r1, r4, r5, r6, r7, r8, lr}
 8006024:	4606      	mov	r6, r0
 8006026:	4688      	mov	r8, r1
 8006028:	4615      	mov	r5, r2
 800602a:	461f      	mov	r7, r3
 800602c:	d108      	bne.n	8006040 <_ZL28read_encoded_value_with_basehjPKhPj+0x22>
 800602e:	1cd0      	adds	r0, r2, #3
 8006030:	f020 0003 	bic.w	r0, r0, #3
 8006034:	f850 4b04 	ldr.w	r4, [r0], #4
 8006038:	603c      	str	r4, [r7, #0]
 800603a:	b002      	add	sp, #8
 800603c:	e8bd 81f0 	ldmia.w	sp!, {r4, r5, r6, r7, r8, pc}
 8006040:	f000 030f 	and.w	r3, r0, #15
 8006044:	2b0c      	cmp	r3, #12
 8006046:	d82e      	bhi.n	80060a6 <_ZL28read_encoded_value_with_basehjPKhPj+0x88>
 8006048:	e8df f003 	tbb	[pc, r3]
 800604c:	251d0725 	.word	0x251d0725
 8006050:	2d2d2d29 	.word	0x2d2d2d29
 8006054:	2521182d 	.word	0x2521182d
 8006058:	29          	.byte	0x29
 8006059:	00          	.byte	0x00
 800605a:	4628      	mov	r0, r5
 800605c:	a901      	add	r1, sp, #4
 800605e:	f7ff ffb7 	bl	8005fd0 <_ZL12read_uleb128PKhPm>
 8006062:	9c01      	ldr	r4, [sp, #4]
 8006064:	2c00      	cmp	r4, #0
 8006066:	d0e7      	beq.n	8006038 <_ZL28read_encoded_value_with_basehjPKhPj+0x1a>
 8006068:	f006 0370 	and.w	r3, r6, #112	; 0x70
 800606c:	2b10      	cmp	r3, #16
 800606e:	bf08      	it	eq
 8006070:	46a8      	moveq	r8, r5
 8006072:	0633      	lsls	r3, r6, #24
 8006074:	4444      	add	r4, r8
 8006076:	bf48      	it	mi
 8006078:	6824      	ldrmi	r4, [r4, #0]
 800607a:	e7dd      	b.n	8006038 <_ZL28read_encoded_value_with_basehjPKhPj+0x1a>
 800607c:	4628      	mov	r0, r5
 800607e:	a901      	add	r1, sp, #4
 8006080:	f7ff ffb5 	bl	8005fee <_ZL12read_sleb128PKhPl>
 8006084:	e7ed      	b.n	8006062 <_ZL28read_encoded_value_with_basehjPKhPj+0x44>
 8006086:	4628      	mov	r0, r5
 8006088:	f830 4b02 	ldrh.w	r4, [r0], #2
 800608c:	e7ea      	b.n	8006064 <_ZL28read_encoded_value_with_basehjPKhPj+0x46>
 800608e:	4628      	mov	r0, r5
 8006090:	f930 4b02 	ldrsh.w	r4, [r0], #2
 8006094:	e7e6      	b.n	8006064 <_ZL28read_encoded_value_with_basehjPKhPj+0x46>
 8006096:	4628      	mov	r0, r5
 8006098:	f850 4b04 	ldr.w	r4, [r0], #4
 800609c:	e7e2      	b.n	8006064 <_ZL28read_encoded_value_with_basehjPKhPj+0x46>
 800609e:	4628      	mov	r0, r5
 80060a0:	f850 4b08 	ldr.w	r4, [r0], #8
 80060a4:	e7de      	b.n	8006064 <_ZL28read_encoded_value_with_basehjPKhPj+0x46>
 80060a6:	f000 fdaf 	bl	8006c08 <abort>

080060aa <_ZL21base_of_encoded_valuehP15_Unwind_Context>:
 80060aa:	b508      	push	{r3, lr}
 80060ac:	4603      	mov	r3, r0
 80060ae:	2bff      	cmp	r3, #255	; 0xff
 80060b0:	4608      	mov	r0, r1
 80060b2:	d010      	beq.n	80060d6 <_ZL21base_of_encoded_valuehP15_Unwind_Context+0x2c>
 80060b4:	f003 0270 	and.w	r2, r3, #112	; 0x70
 80060b8:	2a30      	cmp	r2, #48	; 0x30
 80060ba:	d012      	beq.n	80060e2 <_ZL21base_of_encoded_valuehP15_Unwind_Context+0x38>
 80060bc:	d807      	bhi.n	80060ce <_ZL21base_of_encoded_valuehP15_Unwind_Context+0x24>
 80060be:	2a20      	cmp	r2, #32
 80060c0:	d00b      	beq.n	80060da <_ZL21base_of_encoded_valuehP15_Unwind_Context+0x30>
 80060c2:	d802      	bhi.n	80060ca <_ZL21base_of_encoded_valuehP15_Unwind_Context+0x20>
 80060c4:	f013 0f60 	tst.w	r3, #96	; 0x60
 80060c8:	d005      	beq.n	80060d6 <_ZL21base_of_encoded_valuehP15_Unwind_Context+0x2c>
 80060ca:	f000 fd9d 	bl	8006c08 <abort>
 80060ce:	2a40      	cmp	r2, #64	; 0x40
 80060d0:	d00b      	beq.n	80060ea <_ZL21base_of_encoded_valuehP15_Unwind_Context+0x40>
 80060d2:	2a50      	cmp	r2, #80	; 0x50
 80060d4:	d1f9      	bne.n	80060ca <_ZL21base_of_encoded_valuehP15_Unwind_Context+0x20>
 80060d6:	2000      	movs	r0, #0
 80060d8:	bd08      	pop	{r3, pc}
 80060da:	e8bd 4008 	ldmia.w	sp!, {r3, lr}
 80060de:	f000 bf46 	b.w	8006f6e <_Unwind_GetTextRelBase>
 80060e2:	e8bd 4008 	ldmia.w	sp!, {r3, lr}
 80060e6:	f000 bf3f 	b.w	8006f68 <_Unwind_GetDataRelBase>
 80060ea:	e8bd 4008 	ldmia.w	sp!, {r3, lr}
 80060ee:	f7fb beef 	b.w	8001ed0 <_Unwind_GetRegionStart>

080060f2 <_ZL18read_encoded_valueP15_Unwind_ContexthPKhPj>:
 80060f2:	b570      	push	{r4, r5, r6, lr}
 80060f4:	460c      	mov	r4, r1
 80060f6:	4601      	mov	r1, r0
 80060f8:	4620      	mov	r0, r4
 80060fa:	4615      	mov	r5, r2
 80060fc:	461e      	mov	r6, r3
 80060fe:	f7ff ffd4 	bl	80060aa <_ZL21base_of_encoded_valuehP15_Unwind_Context>
 8006102:	4633      	mov	r3, r6
 8006104:	4601      	mov	r1, r0
 8006106:	462a      	mov	r2, r5
 8006108:	4620      	mov	r0, r4
 800610a:	e8bd 4070 	ldmia.w	sp!, {r4, r5, r6, lr}
 800610e:	f7ff bf86 	b.w	800601e <_ZL28read_encoded_value_with_basehjPKhPj>

08006112 <_ZL17parse_lsda_headerP15_Unwind_ContextPKhP16lsda_header_info>:
 8006112:	b573      	push	{r0, r1, r4, r5, r6, lr}
 8006114:	460c      	mov	r4, r1
 8006116:	4615      	mov	r5, r2
 8006118:	4606      	mov	r6, r0
 800611a:	b328      	cbz	r0, 8006168 <_ZL17parse_lsda_headerP15_Unwind_ContextPKhP16lsda_header_info+0x56>
 800611c:	f7fb fed8 	bl	8001ed0 <_Unwind_GetRegionStart>
 8006120:	4603      	mov	r3, r0
 8006122:	4620      	mov	r0, r4
 8006124:	602b      	str	r3, [r5, #0]
 8006126:	f810 1b01 	ldrb.w	r1, [r0], #1
 800612a:	29ff      	cmp	r1, #255	; 0xff
 800612c:	d01e      	beq.n	800616c <_ZL17parse_lsda_headerP15_Unwind_ContextPKhP16lsda_header_info+0x5a>
 800612e:	4602      	mov	r2, r0
 8006130:	1d2b      	adds	r3, r5, #4
 8006132:	4630      	mov	r0, r6
 8006134:	f7ff ffdd 	bl	80060f2 <_ZL18read_encoded_valueP15_Unwind_ContexthPKhPj>
 8006138:	f810 3b01 	ldrb.w	r3, [r0], #1
 800613c:	2bff      	cmp	r3, #255	; 0xff
 800613e:	752b      	strb	r3, [r5, #20]
 8006140:	d016      	beq.n	8006170 <_ZL17parse_lsda_headerP15_Unwind_ContextPKhP16lsda_header_info+0x5e>
 8006142:	2310      	movs	r3, #16
 8006144:	a901      	add	r1, sp, #4
 8006146:	752b      	strb	r3, [r5, #20]
 8006148:	f7ff ff42 	bl	8005fd0 <_ZL12read_uleb128PKhPm>
 800614c:	9b01      	ldr	r3, [sp, #4]
 800614e:	4403      	add	r3, r0
 8006150:	60eb      	str	r3, [r5, #12]
 8006152:	f810 3b01 	ldrb.w	r3, [r0], #1
 8006156:	a901      	add	r1, sp, #4
 8006158:	756b      	strb	r3, [r5, #21]
 800615a:	f7ff ff39 	bl	8005fd0 <_ZL12read_uleb128PKhPm>
 800615e:	9b01      	ldr	r3, [sp, #4]
 8006160:	4403      	add	r3, r0
 8006162:	612b      	str	r3, [r5, #16]
 8006164:	b002      	add	sp, #8
 8006166:	bd70      	pop	{r4, r5, r6, pc}
 8006168:	4603      	mov	r3, r0
 800616a:	e7da      	b.n	8006122 <_ZL17parse_lsda_headerP15_Unwind_ContextPKhP16lsda_header_info+0x10>
 800616c:	606b      	str	r3, [r5, #4]
 800616e:	e7e3      	b.n	8006138 <_ZL17parse_lsda_headerP15_Unwind_ContextPKhP16lsda_header_info+0x26>
 8006170:	2300      	movs	r3, #0
 8006172:	e7ed      	b.n	8006150 <_ZL17parse_lsda_headerP15_Unwind_ContextPKhP16lsda_header_info+0x3e>

08006174 <_Unwind_GetGR>:
 8006174:	b51f      	push	{r0, r1, r2, r3, r4, lr}
 8006176:	ab03      	add	r3, sp, #12
 8006178:	9300      	str	r3, [sp, #0]
 800617a:	2300      	movs	r3, #0
 800617c:	460a      	mov	r2, r1
 800617e:	4619      	mov	r1, r3
 8006180:	f7fb f8fc 	bl	800137c <_Unwind_VRS_Get>
 8006184:	9803      	ldr	r0, [sp, #12]
 8006186:	b005      	add	sp, #20
 8006188:	f85d fb04 	ldr.w	pc, [sp], #4

0800618c <__gxx_personality_v0>:
 800618c:	2300      	movs	r3, #0
 800618e:	e92d 4ff0 	stmdb	sp!, {r4, r5, r6, r7, r8, r9, sl, fp, lr}
 8006192:	b091      	sub	sp, #68	; 0x44
 8006194:	9305      	str	r3, [sp, #20]
 8006196:	f000 0303 	and.w	r3, r0, #3
 800619a:	2b01      	cmp	r3, #1
 800619c:	4606      	mov	r6, r0
 800619e:	460c      	mov	r4, r1
 80061a0:	4617      	mov	r7, r2
 80061a2:	d00e      	beq.n	80061c2 <__gxx_personality_v0+0x36>
 80061a4:	2b02      	cmp	r3, #2
 80061a6:	d003      	beq.n	80061b0 <__gxx_personality_v0+0x24>
 80061a8:	2b00      	cmp	r3, #0
 80061aa:	d13b      	bne.n	8006224 <__gxx_personality_v0+0x98>
 80061ac:	0701      	lsls	r1, r0, #28
 80061ae:	d53b      	bpl.n	8006228 <__gxx_personality_v0+0x9c>
 80061b0:	4639      	mov	r1, r7
 80061b2:	4620      	mov	r0, r4
 80061b4:	f7fb fe74 	bl	8001ea0 <__gnu_unwind_frame>
 80061b8:	b390      	cbz	r0, 8006220 <__gxx_personality_v0+0x94>
 80061ba:	2009      	movs	r0, #9
 80061bc:	b011      	add	sp, #68	; 0x44
 80061be:	e8bd 8ff0 	ldmia.w	sp!, {r4, r5, r6, r7, r8, r9, sl, fp, pc}
 80061c2:	0702      	lsls	r2, r0, #28
 80061c4:	d406      	bmi.n	80061d4 <__gxx_personality_v0+0x48>
 80061c6:	6a0d      	ldr	r5, [r1, #32]
 80061c8:	4638      	mov	r0, r7
 80061ca:	210d      	movs	r1, #13
 80061cc:	f7ff ffd2 	bl	8006174 <_Unwind_GetGR>
 80061d0:	4285      	cmp	r5, r0
 80061d2:	d02b      	beq.n	800622c <__gxx_personality_v0+0xa0>
 80061d4:	2002      	movs	r0, #2
 80061d6:	2300      	movs	r3, #0
 80061d8:	f006 0608 	and.w	r6, r6, #8
 80061dc:	f10d 0a28 	add.w	sl, sp, #40	; 0x28
 80061e0:	4306      	orrs	r6, r0
 80061e2:	220c      	movs	r2, #12
 80061e4:	4619      	mov	r1, r3
 80061e6:	4638      	mov	r0, r7
 80061e8:	f8cd a000 	str.w	sl, [sp]
 80061ec:	940a      	str	r4, [sp, #40]	; 0x28
 80061ee:	f7fb f8eb 	bl	80013c8 <_Unwind_VRS_Set>
 80061f2:	2e06      	cmp	r6, #6
 80061f4:	d11c      	bne.n	8006230 <__gxx_personality_v0+0xa4>
 80061f6:	e9d4 590a 	ldrd	r5, r9, [r4, #40]	; 0x28
 80061fa:	f8d4 8030 	ldr.w	r8, [r4, #48]	; 0x30
 80061fe:	f1b8 0f00 	cmp.w	r8, #0
 8006202:	bf0c      	ite	eq
 8006204:	f04f 0b01 	moveq.w	fp, #1
 8006208:	f04f 0b03 	movne.w	fp, #3
 800620c:	f016 0608 	ands.w	r6, r6, #8
 8006210:	f000 8107 	beq.w	8006422 <__gxx_personality_v0+0x296>
 8006214:	f1bb 0f01 	cmp.w	fp, #1
 8006218:	f040 80ff 	bne.w	800641a <__gxx_personality_v0+0x28e>
 800621c:	f000 f95e 	bl	80064dc <_ZSt9terminatev>
 8006220:	2008      	movs	r0, #8
 8006222:	e7cb      	b.n	80061bc <__gxx_personality_v0+0x30>
 8006224:	f000 fcf0 	bl	8006c08 <abort>
 8006228:	2001      	movs	r0, #1
 800622a:	e7d4      	b.n	80061d6 <__gxx_personality_v0+0x4a>
 800622c:	2006      	movs	r0, #6
 800622e:	e7d2      	b.n	80061d6 <__gxx_personality_v0+0x4a>
 8006230:	4638      	mov	r0, r7
 8006232:	f7fb fe53 	bl	8001edc <_Unwind_GetLanguageSpecificData>
 8006236:	4681      	mov	r9, r0
 8006238:	2800      	cmp	r0, #0
 800623a:	d0b9      	beq.n	80061b0 <__gxx_personality_v0+0x24>
 800623c:	4652      	mov	r2, sl
 800623e:	4601      	mov	r1, r0
 8006240:	4638      	mov	r0, r7
 8006242:	f7ff ff66 	bl	8006112 <_ZL17parse_lsda_headerP15_Unwind_ContextPKhP16lsda_header_info>
 8006246:	4639      	mov	r1, r7
 8006248:	4605      	mov	r5, r0
 800624a:	f89d 003c 	ldrb.w	r0, [sp, #60]	; 0x3c
 800624e:	f7ff ff2c 	bl	80060aa <_ZL21base_of_encoded_valuehP15_Unwind_Context>
 8006252:	210f      	movs	r1, #15
 8006254:	900c      	str	r0, [sp, #48]	; 0x30
 8006256:	4638      	mov	r0, r7
 8006258:	f7ff ff8c 	bl	8006174 <_Unwind_GetGR>
 800625c:	f020 0801 	bic.w	r8, r0, #1
 8006260:	f108 38ff 	add.w	r8, r8, #4294967295
 8006264:	9b0e      	ldr	r3, [sp, #56]	; 0x38
 8006266:	42ab      	cmp	r3, r5
 8006268:	f240 80bf 	bls.w	80063ea <__gxx_personality_v0+0x25e>
 800626c:	462a      	mov	r2, r5
 800626e:	f89d 103d 	ldrb.w	r1, [sp, #61]	; 0x3d
 8006272:	ab06      	add	r3, sp, #24
 8006274:	2000      	movs	r0, #0
 8006276:	f7ff ff3c 	bl	80060f2 <_ZL18read_encoded_valueP15_Unwind_ContexthPKhPj>
 800627a:	f89d 103d 	ldrb.w	r1, [sp, #61]	; 0x3d
 800627e:	4602      	mov	r2, r0
 8006280:	ab07      	add	r3, sp, #28
 8006282:	2000      	movs	r0, #0
 8006284:	f7ff ff35 	bl	80060f2 <_ZL18read_encoded_valueP15_Unwind_ContexthPKhPj>
 8006288:	ab08      	add	r3, sp, #32
 800628a:	4602      	mov	r2, r0
 800628c:	f89d 103d 	ldrb.w	r1, [sp, #61]	; 0x3d
 8006290:	2000      	movs	r0, #0
 8006292:	f7ff ff2e 	bl	80060f2 <_ZL18read_encoded_valueP15_Unwind_ContexthPKhPj>
 8006296:	a909      	add	r1, sp, #36	; 0x24
 8006298:	f7ff fe9a 	bl	8005fd0 <_ZL12read_uleb128PKhPm>
 800629c:	9b0a      	ldr	r3, [sp, #40]	; 0x28
 800629e:	9a06      	ldr	r2, [sp, #24]
 80062a0:	4605      	mov	r5, r0
 80062a2:	4413      	add	r3, r2
 80062a4:	4543      	cmp	r3, r8
 80062a6:	d901      	bls.n	80062ac <__gxx_personality_v0+0x120>
 80062a8:	9d0e      	ldr	r5, [sp, #56]	; 0x38
 80062aa:	e7db      	b.n	8006264 <__gxx_personality_v0+0xd8>
 80062ac:	9a07      	ldr	r2, [sp, #28]
 80062ae:	4413      	add	r3, r2
 80062b0:	4543      	cmp	r3, r8
 80062b2:	d9d7      	bls.n	8006264 <__gxx_personality_v0+0xd8>
 80062b4:	f8dd 8020 	ldr.w	r8, [sp, #32]
 80062b8:	f1b8 0f00 	cmp.w	r8, #0
 80062bc:	d001      	beq.n	80062c2 <__gxx_personality_v0+0x136>
 80062be:	9b0b      	ldr	r3, [sp, #44]	; 0x2c
 80062c0:	4498      	add	r8, r3
 80062c2:	9d09      	ldr	r5, [sp, #36]	; 0x24
 80062c4:	b115      	cbz	r5, 80062cc <__gxx_personality_v0+0x140>
 80062c6:	980e      	ldr	r0, [sp, #56]	; 0x38
 80062c8:	3d01      	subs	r5, #1
 80062ca:	4405      	add	r5, r0
 80062cc:	f1b8 0f00 	cmp.w	r8, #0
 80062d0:	f43f af6e 	beq.w	80061b0 <__gxx_personality_v0+0x24>
 80062d4:	2d00      	cmp	r5, #0
 80062d6:	f000 80f2 	beq.w	80064be <__gxx_personality_v0+0x332>
 80062da:	f016 0308 	ands.w	r3, r6, #8
 80062de:	9302      	str	r3, [sp, #8]
 80062e0:	d034      	beq.n	800634c <__gxx_personality_v0+0x1c0>
 80062e2:	2347      	movs	r3, #71	; 0x47
 80062e4:	7023      	strb	r3, [r4, #0]
 80062e6:	234e      	movs	r3, #78	; 0x4e
 80062e8:	7063      	strb	r3, [r4, #1]
 80062ea:	2355      	movs	r3, #85	; 0x55
 80062ec:	70a3      	strb	r3, [r4, #2]
 80062ee:	2343      	movs	r3, #67	; 0x43
 80062f0:	70e3      	strb	r3, [r4, #3]
 80062f2:	2346      	movs	r3, #70	; 0x46
 80062f4:	7123      	strb	r3, [r4, #4]
 80062f6:	234f      	movs	r3, #79	; 0x4f
 80062f8:	7163      	strb	r3, [r4, #5]
 80062fa:	2352      	movs	r3, #82	; 0x52
 80062fc:	71a3      	strb	r3, [r4, #6]
 80062fe:	2300      	movs	r3, #0
 8006300:	71e3      	strb	r3, [r4, #7]
 8006302:	f04f 0b00 	mov.w	fp, #0
 8006306:	a907      	add	r1, sp, #28
 8006308:	4628      	mov	r0, r5
 800630a:	f7ff fe70 	bl	8005fee <_ZL12read_sleb128PKhPl>
 800630e:	a908      	add	r1, sp, #32
 8006310:	9003      	str	r0, [sp, #12]
 8006312:	f7ff fe6c 	bl	8005fee <_ZL12read_sleb128PKhPl>
 8006316:	9907      	ldr	r1, [sp, #28]
 8006318:	2900      	cmp	r1, #0
 800631a:	d063      	beq.n	80063e4 <__gxx_personality_v0+0x258>
 800631c:	dd3a      	ble.n	8006394 <__gxx_personality_v0+0x208>
 800631e:	f89d 003c 	ldrb.w	r0, [sp, #60]	; 0x3c
 8006322:	28ff      	cmp	r0, #255	; 0xff
 8006324:	d032      	beq.n	800638c <__gxx_personality_v0+0x200>
 8006326:	f000 0307 	and.w	r3, r0, #7
 800632a:	2b04      	cmp	r3, #4
 800632c:	f63f af7a 	bhi.w	8006224 <__gxx_personality_v0+0x98>
 8006330:	a201      	add	r2, pc, #4	; (adr r2, 8006338 <__gxx_personality_v0+0x1ac>)
 8006332:	f852 f023 	ldr.w	pc, [r2, r3, lsl #2]
 8006336:	bf00      	nop
 8006338:	08006391 	.word	0x08006391
 800633c:	08006225 	.word	0x08006225
 8006340:	0800635f 	.word	0x0800635f
 8006344:	08006391 	.word	0x08006391
 8006348:	08006389 	.word	0x08006389
 800634c:	79e3      	ldrb	r3, [r4, #7]
 800634e:	2b01      	cmp	r3, #1
 8006350:	bf0c      	ite	eq
 8006352:	f854 3c20 	ldreq.w	r3, [r4, #-32]
 8006356:	f104 0358 	addne.w	r3, r4, #88	; 0x58
 800635a:	9305      	str	r3, [sp, #20]
 800635c:	e7d1      	b.n	8006302 <__gxx_personality_v0+0x176>
 800635e:	2502      	movs	r5, #2
 8006360:	9a0d      	ldr	r2, [sp, #52]	; 0x34
 8006362:	ab09      	add	r3, sp, #36	; 0x24
 8006364:	fb05 2211 	mls	r2, r5, r1, r2
 8006368:	990c      	ldr	r1, [sp, #48]	; 0x30
 800636a:	f7ff fe58 	bl	800601e <_ZL28read_encoded_value_with_basehjPKhPj>
 800636e:	9909      	ldr	r1, [sp, #36]	; 0x24
 8006370:	b131      	cbz	r1, 8006380 <__gxx_personality_v0+0x1f4>
 8006372:	b35c      	cbz	r4, 80063cc <__gxx_personality_v0+0x240>
 8006374:	2200      	movs	r2, #0
 8006376:	4620      	mov	r0, r4
 8006378:	ab05      	add	r3, sp, #20
 800637a:	f7ff fd91 	bl	8005ea0 <__cxa_type_match>
 800637e:	b328      	cbz	r0, 80063cc <__gxx_personality_v0+0x240>
 8006380:	f04f 0b03 	mov.w	fp, #3
 8006384:	9d07      	ldr	r5, [sp, #28]
 8006386:	e034      	b.n	80063f2 <__gxx_personality_v0+0x266>
 8006388:	2508      	movs	r5, #8
 800638a:	e7e9      	b.n	8006360 <__gxx_personality_v0+0x1d4>
 800638c:	2500      	movs	r5, #0
 800638e:	e7e7      	b.n	8006360 <__gxx_personality_v0+0x1d4>
 8006390:	2504      	movs	r5, #4
 8006392:	e7e5      	b.n	8006360 <__gxx_personality_v0+0x1d4>
 8006394:	f1c1 517f 	rsb	r1, r1, #1069547520	; 0x3fc00000
 8006398:	f501 117f 	add.w	r1, r1, #4177920	; 0x3fc000
 800639c:	9b0d      	ldr	r3, [sp, #52]	; 0x34
 800639e:	f501 517f 	add.w	r1, r1, #16320	; 0x3fc0
 80063a2:	313f      	adds	r1, #63	; 0x3f
 80063a4:	eb03 0581 	add.w	r5, r3, r1, lsl #2
 80063a8:	b1bc      	cbz	r4, 80063da <__gxx_personality_v0+0x24e>
 80063aa:	9a02      	ldr	r2, [sp, #8]
 80063ac:	b9aa      	cbnz	r2, 80063da <__gxx_personality_v0+0x24e>
 80063ae:	9b05      	ldr	r3, [sp, #20]
 80063b0:	3d04      	subs	r5, #4
 80063b2:	9309      	str	r3, [sp, #36]	; 0x24
 80063b4:	f855 1f04 	ldr.w	r1, [r5, #4]!
 80063b8:	2900      	cmp	r1, #0
 80063ba:	d0e1      	beq.n	8006380 <__gxx_personality_v0+0x1f4>
 80063bc:	2200      	movs	r2, #0
 80063be:	4620      	mov	r0, r4
 80063c0:	ab09      	add	r3, sp, #36	; 0x24
 80063c2:	4429      	add	r1, r5
 80063c4:	f7ff fd6c 	bl	8005ea0 <__cxa_type_match>
 80063c8:	2800      	cmp	r0, #0
 80063ca:	d0f3      	beq.n	80063b4 <__gxx_personality_v0+0x228>
 80063cc:	9d08      	ldr	r5, [sp, #32]
 80063ce:	2d00      	cmp	r5, #0
 80063d0:	d071      	beq.n	80064b6 <__gxx_personality_v0+0x32a>
 80063d2:	9b03      	ldr	r3, [sp, #12]
 80063d4:	442b      	add	r3, r5
 80063d6:	461d      	mov	r5, r3
 80063d8:	e795      	b.n	8006306 <__gxx_personality_v0+0x17a>
 80063da:	f853 3021 	ldr.w	r3, [r3, r1, lsl #2]
 80063de:	2b00      	cmp	r3, #0
 80063e0:	d1f4      	bne.n	80063cc <__gxx_personality_v0+0x240>
 80063e2:	e7cd      	b.n	8006380 <__gxx_personality_v0+0x1f4>
 80063e4:	f04f 0b01 	mov.w	fp, #1
 80063e8:	e7f0      	b.n	80063cc <__gxx_personality_v0+0x240>
 80063ea:	2500      	movs	r5, #0
 80063ec:	f04f 0b01 	mov.w	fp, #1
 80063f0:	46a8      	mov	r8, r5
 80063f2:	07f3      	lsls	r3, r6, #31
 80063f4:	f57f af0a 	bpl.w	800620c <__gxx_personality_v0+0x80>
 80063f8:	f1bb 0f02 	cmp.w	fp, #2
 80063fc:	f43f aed8 	beq.w	80061b0 <__gxx_personality_v0+0x24>
 8006400:	210d      	movs	r1, #13
 8006402:	4638      	mov	r0, r7
 8006404:	9e05      	ldr	r6, [sp, #20]
 8006406:	f7ff feb5 	bl	8006174 <_Unwind_GetGR>
 800640a:	e9c4 590a 	strd	r5, r9, [r4, #40]	; 0x28
 800640e:	e9c4 0608 	strd	r0, r6, [r4, #32]
 8006412:	f8c4 8030 	str.w	r8, [r4, #48]	; 0x30
 8006416:	2006      	movs	r0, #6
 8006418:	e6d0      	b.n	80061bc <__gxx_personality_v0+0x30>
 800641a:	2d00      	cmp	r5, #0
 800641c:	da22      	bge.n	8006464 <__gxx_personality_v0+0x2d8>
 800641e:	f000 f86f 	bl	8006500 <_ZSt10unexpectedv>
 8006422:	f1bb 0f01 	cmp.w	fp, #1
 8006426:	d102      	bne.n	800642e <__gxx_personality_v0+0x2a2>
 8006428:	4620      	mov	r0, r4
 800642a:	f000 fb7b 	bl	8006b24 <__cxa_call_terminate>
 800642e:	2d00      	cmp	r5, #0
 8006430:	da18      	bge.n	8006464 <__gxx_personality_v0+0x2d8>
 8006432:	4652      	mov	r2, sl
 8006434:	4649      	mov	r1, r9
 8006436:	4638      	mov	r0, r7
 8006438:	f7ff fe6b 	bl	8006112 <_ZL17parse_lsda_headerP15_Unwind_ContextPKhP16lsda_header_info>
 800643c:	4639      	mov	r1, r7
 800643e:	f89d 003c 	ldrb.w	r0, [sp, #60]	; 0x3c
 8006442:	f7ff fe32 	bl	80060aa <_ZL21base_of_encoded_valuehP15_Unwind_Context>
 8006446:	43eb      	mvns	r3, r5
 8006448:	9a0d      	ldr	r2, [sp, #52]	; 0x34
 800644a:	900c      	str	r0, [sp, #48]	; 0x30
 800644c:	eb02 0383 	add.w	r3, r2, r3, lsl #2
 8006450:	f853 2026 	ldr.w	r2, [r3, r6, lsl #2]
 8006454:	b10a      	cbz	r2, 800645a <__gxx_personality_v0+0x2ce>
 8006456:	3601      	adds	r6, #1
 8006458:	e7fa      	b.n	8006450 <__gxx_personality_v0+0x2c4>
 800645a:	2204      	movs	r2, #4
 800645c:	e9c4 600a 	strd	r6, r0, [r4, #40]	; 0x28
 8006460:	e9c4 230c 	strd	r2, r3, [r4, #48]	; 0x30
 8006464:	2300      	movs	r3, #0
 8006466:	ae09      	add	r6, sp, #36	; 0x24
 8006468:	461a      	mov	r2, r3
 800646a:	4619      	mov	r1, r3
 800646c:	4638      	mov	r0, r7
 800646e:	9600      	str	r6, [sp, #0]
 8006470:	9409      	str	r4, [sp, #36]	; 0x24
 8006472:	f7fa ffa9 	bl	80013c8 <_Unwind_VRS_Set>
 8006476:	2300      	movs	r3, #0
 8006478:	2201      	movs	r2, #1
 800647a:	4619      	mov	r1, r3
 800647c:	4638      	mov	r0, r7
 800647e:	9600      	str	r6, [sp, #0]
 8006480:	9509      	str	r5, [sp, #36]	; 0x24
 8006482:	f7fa ffa1 	bl	80013c8 <_Unwind_VRS_Set>
 8006486:	210f      	movs	r1, #15
 8006488:	4638      	mov	r0, r7
 800648a:	f7ff fe73 	bl	8006174 <_Unwind_GetGR>
 800648e:	2300      	movs	r3, #0
 8006490:	f000 0001 	and.w	r0, r0, #1
 8006494:	ea40 0008 	orr.w	r0, r0, r8
 8006498:	9009      	str	r0, [sp, #36]	; 0x24
 800649a:	220f      	movs	r2, #15
 800649c:	4619      	mov	r1, r3
 800649e:	4638      	mov	r0, r7
 80064a0:	9600      	str	r6, [sp, #0]
 80064a2:	f7fa ff91 	bl	80013c8 <_Unwind_VRS_Set>
 80064a6:	f1bb 0f02 	cmp.w	fp, #2
 80064aa:	d102      	bne.n	80064b2 <__gxx_personality_v0+0x326>
 80064ac:	4620      	mov	r0, r4
 80064ae:	f7ff fd55 	bl	8005f5c <__cxa_begin_cleanup>
 80064b2:	2007      	movs	r0, #7
 80064b4:	e682      	b.n	80061bc <__gxx_personality_v0+0x30>
 80064b6:	f1bb 0f00 	cmp.w	fp, #0
 80064ba:	f43f ae79 	beq.w	80061b0 <__gxx_personality_v0+0x24>
 80064be:	f04f 0b02 	mov.w	fp, #2
 80064c2:	e796      	b.n	80063f2 <__gxx_personality_v0+0x266>

080064c4 <_ZN10__cxxabiv111__terminateEPFvvE>:
 80064c4:	b508      	push	{r3, lr}
 80064c6:	4780      	blx	r0
 80064c8:	f000 fb9e 	bl	8006c08 <abort>

080064cc <_ZSt13get_terminatev>:
 80064cc:	4b02      	ldr	r3, [pc, #8]	; (80064d8 <_ZSt13get_terminatev+0xc>)
 80064ce:	6818      	ldr	r0, [r3, #0]
 80064d0:	f3bf 8f5b 	dmb	ish
 80064d4:	4770      	bx	lr
 80064d6:	bf00      	nop
 80064d8:	20000014 	.word	0x20000014

080064dc <_ZSt9terminatev>:
 80064dc:	b508      	push	{r3, lr}
 80064de:	f7ff fff5 	bl	80064cc <_ZSt13get_terminatev>
 80064e2:	f7ff ffef 	bl	80064c4 <_ZN10__cxxabiv111__terminateEPFvvE>

080064e6 <_ZN10__cxxabiv112__unexpectedEPFvvE>:
 80064e6:	b508      	push	{r3, lr}
 80064e8:	4780      	blx	r0
 80064ea:	f7ff fff7 	bl	80064dc <_ZSt9terminatev>
	...

080064f0 <_ZSt14get_unexpectedv>:
 80064f0:	4b02      	ldr	r3, [pc, #8]	; (80064fc <_ZSt14get_unexpectedv+0xc>)
 80064f2:	6818      	ldr	r0, [r3, #0]
 80064f4:	f3bf 8f5b 	dmb	ish
 80064f8:	4770      	bx	lr
 80064fa:	bf00      	nop
 80064fc:	20000010 	.word	0x20000010

08006500 <_ZSt10unexpectedv>:
 8006500:	b508      	push	{r3, lr}
 8006502:	f7ff fff5 	bl	80064f0 <_ZSt14get_unexpectedv>
 8006506:	f7ff ffee 	bl	80064e6 <_ZN10__cxxabiv112__unexpectedEPFvvE>

0800650a <_Znwj>:
 800650a:	2801      	cmp	r0, #1
 800650c:	bf38      	it	cc
 800650e:	2001      	movcc	r0, #1
 8006510:	b510      	push	{r4, lr}
 8006512:	4604      	mov	r4, r0
 8006514:	4620      	mov	r0, r4
 8006516:	f000 fba9 	bl	8006c6c <malloc>
 800651a:	b930      	cbnz	r0, 800652a <_Znwj+0x20>
 800651c:	f000 fb6c 	bl	8006bf8 <_ZSt15get_new_handlerv>
 8006520:	b908      	cbnz	r0, 8006526 <_Znwj+0x1c>
 8006522:	f000 fb71 	bl	8006c08 <abort>
 8006526:	4780      	blx	r0
 8006528:	e7f4      	b.n	8006514 <_Znwj+0xa>
 800652a:	bd10      	pop	{r4, pc}

0800652c <_ZN10__cxxabiv120__si_class_type_infoD1Ev>:
 800652c:	b510      	push	{r4, lr}
 800652e:	4604      	mov	r4, r0
 8006530:	4b02      	ldr	r3, [pc, #8]	; (800653c <_ZN10__cxxabiv120__si_class_type_infoD1Ev+0x10>)
 8006532:	6003      	str	r3, [r0, #0]
 8006534:	f7ff fc3a 	bl	8005dac <_ZN10__cxxabiv117__class_type_infoD1Ev>
 8006538:	4620      	mov	r0, r4
 800653a:	bd10      	pop	{r4, pc}
 800653c:	080075a0 	.word	0x080075a0

08006540 <_ZN10__cxxabiv120__si_class_type_infoD0Ev>:
 8006540:	b510      	push	{r4, lr}
 8006542:	4604      	mov	r4, r0
 8006544:	f7ff fff2 	bl	800652c <_ZN10__cxxabiv120__si_class_type_infoD1Ev>
 8006548:	4620      	mov	r0, r4
 800654a:	210c      	movs	r1, #12
 800654c:	f7ff fc82 	bl	8005e54 <_ZdlPvj>
 8006550:	4620      	mov	r0, r4
 8006552:	bd10      	pop	{r4, pc}

08006554 <_ZNK10__cxxabiv120__si_class_type_info20__do_find_public_srcEiPKvPKNS_17__class_type_infoES2_>:
 8006554:	e92d 41f0 	stmdb	sp!, {r4, r5, r6, r7, r8, lr}
 8006558:	f8dd 8018 	ldr.w	r8, [sp, #24]
 800655c:	4606      	mov	r6, r0
 800655e:	4590      	cmp	r8, r2
 8006560:	460f      	mov	r7, r1
 8006562:	4615      	mov	r5, r2
 8006564:	461c      	mov	r4, r3
 8006566:	d00b      	beq.n	8006580 <_ZNK10__cxxabiv120__si_class_type_info20__do_find_public_srcEiPKvPKNS_17__class_type_infoES2_+0x2c>
 8006568:	68b0      	ldr	r0, [r6, #8]
 800656a:	462a      	mov	r2, r5
 800656c:	6803      	ldr	r3, [r0, #0]
 800656e:	f8cd 8018 	str.w	r8, [sp, #24]
 8006572:	6a1e      	ldr	r6, [r3, #32]
 8006574:	4639      	mov	r1, r7
 8006576:	4623      	mov	r3, r4
 8006578:	46b4      	mov	ip, r6
 800657a:	e8bd 41f0 	ldmia.w	sp!, {r4, r5, r6, r7, r8, lr}
 800657e:	4760      	bx	ip
 8006580:	4619      	mov	r1, r3
 8006582:	f000 f857 	bl	8006634 <_ZNKSt9type_infoeqERKS_>
 8006586:	2800      	cmp	r0, #0
 8006588:	d0ee      	beq.n	8006568 <_ZNK10__cxxabiv120__si_class_type_info20__do_find_public_srcEiPKvPKNS_17__class_type_infoES2_+0x14>
 800658a:	2006      	movs	r0, #6
 800658c:	e8bd 81f0 	ldmia.w	sp!, {r4, r5, r6, r7, r8, pc}

08006590 <_ZNK10__cxxabiv120__si_class_type_info12__do_dyncastEiNS_17__class_type_info10__sub_kindEPKS1_PKvS4_S6_RNS1_16__dyncast_resultE>:
 8006590:	e92d 4ff1 	stmdb	sp!, {r0, r4, r5, r6, r7, r8, r9, sl, fp, lr}
 8006594:	460d      	mov	r5, r1
 8006596:	e9dd 4b0a 	ldrd	r4, fp, [sp, #40]	; 0x28
 800659a:	e9dd a60c 	ldrd	sl, r6, [sp, #48]	; 0x30
 800659e:	4619      	mov	r1, r3
 80065a0:	4681      	mov	r9, r0
 80065a2:	4617      	mov	r7, r2
 80065a4:	4698      	mov	r8, r3
 80065a6:	f000 f845 	bl	8006634 <_ZNKSt9type_infoeqERKS_>
 80065aa:	b190      	cbz	r0, 80065d2 <_ZNK10__cxxabiv120__si_class_type_info12__do_dyncastEiNS_17__class_type_info10__sub_kindEPKS1_PKvS4_S6_RNS1_16__dyncast_resultE+0x42>
 80065ac:	2d00      	cmp	r5, #0
 80065ae:	6034      	str	r4, [r6, #0]
 80065b0:	7137      	strb	r7, [r6, #4]
 80065b2:	db09      	blt.n	80065c8 <_ZNK10__cxxabiv120__si_class_type_info12__do_dyncastEiNS_17__class_type_info10__sub_kindEPKS1_PKvS4_S6_RNS1_16__dyncast_resultE+0x38>
 80065b4:	442c      	add	r4, r5
 80065b6:	45a2      	cmp	sl, r4
 80065b8:	bf0c      	ite	eq
 80065ba:	2406      	moveq	r4, #6
 80065bc:	2401      	movne	r4, #1
 80065be:	71b4      	strb	r4, [r6, #6]
 80065c0:	2000      	movs	r0, #0
 80065c2:	b001      	add	sp, #4
 80065c4:	e8bd 8ff0 	ldmia.w	sp!, {r4, r5, r6, r7, r8, r9, sl, fp, pc}
 80065c8:	3502      	adds	r5, #2
 80065ca:	d1f9      	bne.n	80065c0 <_ZNK10__cxxabiv120__si_class_type_info12__do_dyncastEiNS_17__class_type_info10__sub_kindEPKS1_PKvS4_S6_RNS1_16__dyncast_resultE+0x30>
 80065cc:	2301      	movs	r3, #1
 80065ce:	71b3      	strb	r3, [r6, #6]
 80065d0:	e7f6      	b.n	80065c0 <_ZNK10__cxxabiv120__si_class_type_info12__do_dyncastEiNS_17__class_type_info10__sub_kindEPKS1_PKvS4_S6_RNS1_16__dyncast_resultE+0x30>
 80065d2:	4554      	cmp	r4, sl
 80065d4:	d106      	bne.n	80065e4 <_ZNK10__cxxabiv120__si_class_type_info12__do_dyncastEiNS_17__class_type_info10__sub_kindEPKS1_PKvS4_S6_RNS1_16__dyncast_resultE+0x54>
 80065d6:	4659      	mov	r1, fp
 80065d8:	4648      	mov	r0, r9
 80065da:	f000 f82b 	bl	8006634 <_ZNKSt9type_infoeqERKS_>
 80065de:	b108      	cbz	r0, 80065e4 <_ZNK10__cxxabiv120__si_class_type_info12__do_dyncastEiNS_17__class_type_info10__sub_kindEPKS1_PKvS4_S6_RNS1_16__dyncast_resultE+0x54>
 80065e0:	7177      	strb	r7, [r6, #5]
 80065e2:	e7ed      	b.n	80065c0 <_ZNK10__cxxabiv120__si_class_type_info12__do_dyncastEiNS_17__class_type_info10__sub_kindEPKS1_PKvS4_S6_RNS1_16__dyncast_resultE+0x30>
 80065e4:	f8d9 0008 	ldr.w	r0, [r9, #8]
 80065e8:	463a      	mov	r2, r7
 80065ea:	6803      	ldr	r3, [r0, #0]
 80065ec:	e9cd a60c 	strd	sl, r6, [sp, #48]	; 0x30
 80065f0:	e9cd 4b0a 	strd	r4, fp, [sp, #40]	; 0x28
 80065f4:	69dc      	ldr	r4, [r3, #28]
 80065f6:	4629      	mov	r1, r5
 80065f8:	4643      	mov	r3, r8
 80065fa:	46a4      	mov	ip, r4
 80065fc:	b001      	add	sp, #4
 80065fe:	e8bd 4ff0 	ldmia.w	sp!, {r4, r5, r6, r7, r8, r9, sl, fp, lr}
 8006602:	4760      	bx	ip

08006604 <_ZNK10__cxxabiv120__si_class_type_info11__do_upcastEPKNS_17__class_type_infoEPKvRNS1_15__upcast_resultE>:
 8006604:	e92d 41f0 	stmdb	sp!, {r4, r5, r6, r7, r8, lr}
 8006608:	4607      	mov	r7, r0
 800660a:	460c      	mov	r4, r1
 800660c:	4615      	mov	r5, r2
 800660e:	461e      	mov	r6, r3
 8006610:	f7ff fbff 	bl	8005e12 <_ZNK10__cxxabiv117__class_type_info11__do_upcastEPKS0_PKvRNS0_15__upcast_resultE>
 8006614:	b948      	cbnz	r0, 800662a <_ZNK10__cxxabiv120__si_class_type_info11__do_upcastEPKNS_17__class_type_infoEPKvRNS1_15__upcast_resultE+0x26>
 8006616:	68b8      	ldr	r0, [r7, #8]
 8006618:	462a      	mov	r2, r5
 800661a:	6803      	ldr	r3, [r0, #0]
 800661c:	4621      	mov	r1, r4
 800661e:	699f      	ldr	r7, [r3, #24]
 8006620:	4633      	mov	r3, r6
 8006622:	46bc      	mov	ip, r7
 8006624:	e8bd 41f0 	ldmia.w	sp!, {r4, r5, r6, r7, r8, lr}
 8006628:	4760      	bx	ip
 800662a:	e8bd 81f0 	ldmia.w	sp!, {r4, r5, r6, r7, r8, pc}

0800662e <_ZNSt9type_infoD1Ev>:
 800662e:	4770      	bx	lr

08006630 <_ZNKSt9type_info14__is_pointer_pEv>:
 8006630:	2000      	movs	r0, #0
 8006632:	4770      	bx	lr

08006634 <_ZNKSt9type_infoeqERKS_>:
 8006634:	4281      	cmp	r1, r0
 8006636:	b508      	push	{r3, lr}
 8006638:	d00e      	beq.n	8006658 <_ZNKSt9type_infoeqERKS_+0x24>
 800663a:	6840      	ldr	r0, [r0, #4]
 800663c:	7803      	ldrb	r3, [r0, #0]
 800663e:	2b2a      	cmp	r3, #42	; 0x2a
 8006640:	d00c      	beq.n	800665c <_ZNKSt9type_infoeqERKS_+0x28>
 8006642:	6849      	ldr	r1, [r1, #4]
 8006644:	780b      	ldrb	r3, [r1, #0]
 8006646:	2b2a      	cmp	r3, #42	; 0x2a
 8006648:	bf08      	it	eq
 800664a:	3101      	addeq	r1, #1
 800664c:	f7f9 fd80 	bl	8000150 <strcmp>
 8006650:	fab0 f080 	clz	r0, r0
 8006654:	0940      	lsrs	r0, r0, #5
 8006656:	bd08      	pop	{r3, pc}
 8006658:	2001      	movs	r0, #1
 800665a:	e7fc      	b.n	8006656 <_ZNKSt9type_infoeqERKS_+0x22>
 800665c:	2000      	movs	r0, #0
 800665e:	e7fa      	b.n	8006656 <_ZNKSt9type_infoeqERKS_+0x22>

08006660 <_ZN10__cxxabiv121__vmi_class_type_infoD1Ev>:
 8006660:	b510      	push	{r4, lr}
 8006662:	4604      	mov	r4, r0
 8006664:	4b02      	ldr	r3, [pc, #8]	; (8006670 <_ZN10__cxxabiv121__vmi_class_type_infoD1Ev+0x10>)
 8006666:	6003      	str	r3, [r0, #0]
 8006668:	f7ff fba0 	bl	8005dac <_ZN10__cxxabiv117__class_type_infoD1Ev>
 800666c:	4620      	mov	r0, r4
 800666e:	bd10      	pop	{r4, pc}
 8006670:	08007618 	.word	0x08007618

08006674 <_ZN10__cxxabiv121__vmi_class_type_infoD0Ev>:
 8006674:	b510      	push	{r4, lr}
 8006676:	4604      	mov	r4, r0
 8006678:	f7ff fff2 	bl	8006660 <_ZN10__cxxabiv121__vmi_class_type_infoD1Ev>
 800667c:	4620      	mov	r0, r4
 800667e:	2118      	movs	r1, #24
 8006680:	f7ff fbe8 	bl	8005e54 <_ZdlPvj>
 8006684:	4620      	mov	r0, r4
 8006686:	bd10      	pop	{r4, pc}

08006688 <_ZNK10__cxxabiv121__vmi_class_type_info20__do_find_public_srcEiPKvPKNS_17__class_type_infoES2_>:
 8006688:	e92d 4ff7 	stmdb	sp!, {r0, r1, r2, r4, r5, r6, r7, r8, r9, sl, fp, lr}
 800668c:	f8dd 9030 	ldr.w	r9, [sp, #48]	; 0x30
 8006690:	4604      	mov	r4, r0
 8006692:	454a      	cmp	r2, r9
 8006694:	460f      	mov	r7, r1
 8006696:	4616      	mov	r6, r2
 8006698:	469a      	mov	sl, r3
 800669a:	d024      	beq.n	80066e6 <_ZNK10__cxxabiv121__vmi_class_type_info20__do_find_public_srcEiPKvPKNS_17__class_type_infoES2_+0x5e>
 800669c:	f8d4 800c 	ldr.w	r8, [r4, #12]
 80066a0:	eb04 04c8 	add.w	r4, r4, r8, lsl #3
 80066a4:	f1b8 0f00 	cmp.w	r8, #0
 80066a8:	d028      	beq.n	80066fc <_ZNK10__cxxabiv121__vmi_class_type_info20__do_find_public_srcEiPKvPKNS_17__class_type_infoES2_+0x74>
 80066aa:	68e5      	ldr	r5, [r4, #12]
 80066ac:	07aa      	lsls	r2, r5, #30
 80066ae:	d521      	bpl.n	80066f4 <_ZNK10__cxxabiv121__vmi_class_type_info20__do_find_public_srcEiPKvPKNS_17__class_type_infoES2_+0x6c>
 80066b0:	122a      	asrs	r2, r5, #8
 80066b2:	f015 0501 	ands.w	r5, r5, #1
 80066b6:	d003      	beq.n	80066c0 <_ZNK10__cxxabiv121__vmi_class_type_info20__do_find_public_srcEiPKvPKNS_17__class_type_infoES2_+0x38>
 80066b8:	1cfb      	adds	r3, r7, #3
 80066ba:	d01b      	beq.n	80066f4 <_ZNK10__cxxabiv121__vmi_class_type_info20__do_find_public_srcEiPKvPKNS_17__class_type_infoES2_+0x6c>
 80066bc:	6833      	ldr	r3, [r6, #0]
 80066be:	589a      	ldr	r2, [r3, r2]
 80066c0:	68a0      	ldr	r0, [r4, #8]
 80066c2:	4639      	mov	r1, r7
 80066c4:	6803      	ldr	r3, [r0, #0]
 80066c6:	f8cd 9000 	str.w	r9, [sp]
 80066ca:	f8d3 b020 	ldr.w	fp, [r3, #32]
 80066ce:	4432      	add	r2, r6
 80066d0:	4653      	mov	r3, sl
 80066d2:	47d8      	blx	fp
 80066d4:	2803      	cmp	r0, #3
 80066d6:	d90d      	bls.n	80066f4 <_ZNK10__cxxabiv121__vmi_class_type_info20__do_find_public_srcEiPKvPKNS_17__class_type_infoES2_+0x6c>
 80066d8:	b115      	cbz	r5, 80066e0 <_ZNK10__cxxabiv121__vmi_class_type_info20__do_find_public_srcEiPKvPKNS_17__class_type_infoES2_+0x58>
 80066da:	f040 0001 	orr.w	r0, r0, #1
 80066de:	b2c0      	uxtb	r0, r0
 80066e0:	b003      	add	sp, #12
 80066e2:	e8bd 8ff0 	ldmia.w	sp!, {r4, r5, r6, r7, r8, r9, sl, fp, pc}
 80066e6:	4619      	mov	r1, r3
 80066e8:	f7ff ffa4 	bl	8006634 <_ZNKSt9type_infoeqERKS_>
 80066ec:	2800      	cmp	r0, #0
 80066ee:	d0d5      	beq.n	800669c <_ZNK10__cxxabiv121__vmi_class_type_info20__do_find_public_srcEiPKvPKNS_17__class_type_infoES2_+0x14>
 80066f0:	2006      	movs	r0, #6
 80066f2:	e7f5      	b.n	80066e0 <_ZNK10__cxxabiv121__vmi_class_type_info20__do_find_public_srcEiPKvPKNS_17__class_type_infoES2_+0x58>
 80066f4:	f108 38ff 	add.w	r8, r8, #4294967295
 80066f8:	3c08      	subs	r4, #8
 80066fa:	e7d3      	b.n	80066a4 <_ZNK10__cxxabiv121__vmi_class_type_info20__do_find_public_srcEiPKvPKNS_17__class_type_infoES2_+0x1c>
 80066fc:	2001      	movs	r0, #1
 80066fe:	e7ef      	b.n	80066e0 <_ZNK10__cxxabiv121__vmi_class_type_info20__do_find_public_srcEiPKvPKNS_17__class_type_infoES2_+0x58>

08006700 <_ZNK10__cxxabiv117__class_type_info17__find_public_srcEiPKvPKS0_S2_>:
 8006700:	b4f0      	push	{r4, r5, r6, r7}
 8006702:	1e0d      	subs	r5, r1, #0
 8006704:	9c04      	ldr	r4, [sp, #16]
 8006706:	db06      	blt.n	8006716 <_ZNK10__cxxabiv117__class_type_info17__find_public_srcEiPKvPKS0_S2_+0x16>
 8006708:	1950      	adds	r0, r2, r5
 800670a:	4284      	cmp	r4, r0
 800670c:	bf14      	ite	ne
 800670e:	2001      	movne	r0, #1
 8006710:	2006      	moveq	r0, #6
 8006712:	bcf0      	pop	{r4, r5, r6, r7}
 8006714:	4770      	bx	lr
 8006716:	3502      	adds	r5, #2
 8006718:	d005      	beq.n	8006726 <_ZNK10__cxxabiv117__class_type_info17__find_public_srcEiPKvPKS0_S2_+0x26>
 800671a:	6805      	ldr	r5, [r0, #0]
 800671c:	9404      	str	r4, [sp, #16]
 800671e:	6a2c      	ldr	r4, [r5, #32]
 8006720:	46a4      	mov	ip, r4
 8006722:	bcf0      	pop	{r4, r5, r6, r7}
 8006724:	4760      	bx	ip
 8006726:	2001      	movs	r0, #1
 8006728:	e7f3      	b.n	8006712 <_ZNK10__cxxabiv117__class_type_info17__find_public_srcEiPKvPKS0_S2_+0x12>

0800672a <_ZNK10__cxxabiv121__vmi_class_type_info12__do_dyncastEiNS_17__class_type_info10__sub_kindEPKS1_PKvS4_S6_RNS1_16__dyncast_resultE>:
 800672a:	e92d 4ff0 	stmdb	sp!, {r4, r5, r6, r7, r8, r9, sl, fp, lr}
 800672e:	b091      	sub	sp, #68	; 0x44
 8006730:	9c1d      	ldr	r4, [sp, #116]	; 0x74
 8006732:	469a      	mov	sl, r3
 8006734:	68a3      	ldr	r3, [r4, #8]
 8006736:	4688      	mov	r8, r1
 8006738:	06d9      	lsls	r1, r3, #27
 800673a:	bf48      	it	mi
 800673c:	6883      	ldrmi	r3, [r0, #8]
 800673e:	9206      	str	r2, [sp, #24]
 8006740:	bf48      	it	mi
 8006742:	60a3      	strmi	r3, [r4, #8]
 8006744:	9a1c      	ldr	r2, [sp, #112]	; 0x70
 8006746:	9b1a      	ldr	r3, [sp, #104]	; 0x68
 8006748:	4681      	mov	r9, r0
 800674a:	4293      	cmp	r3, r2
 800674c:	d107      	bne.n	800675e <_ZNK10__cxxabiv121__vmi_class_type_info12__do_dyncastEiNS_17__class_type_info10__sub_kindEPKS1_PKvS4_S6_RNS1_16__dyncast_resultE+0x34>
 800674e:	991b      	ldr	r1, [sp, #108]	; 0x6c
 8006750:	f7ff ff70 	bl	8006634 <_ZNKSt9type_infoeqERKS_>
 8006754:	b118      	cbz	r0, 800675e <_ZNK10__cxxabiv121__vmi_class_type_info12__do_dyncastEiNS_17__class_type_info10__sub_kindEPKS1_PKvS4_S6_RNS1_16__dyncast_resultE+0x34>
 8006756:	9b06      	ldr	r3, [sp, #24]
 8006758:	7163      	strb	r3, [r4, #5]
 800675a:	2700      	movs	r7, #0
 800675c:	e085      	b.n	800686a <_ZNK10__cxxabiv121__vmi_class_type_info12__do_dyncastEiNS_17__class_type_info10__sub_kindEPKS1_PKvS4_S6_RNS1_16__dyncast_resultE+0x140>
 800675e:	4651      	mov	r1, sl
 8006760:	4648      	mov	r0, r9
 8006762:	f7ff ff67 	bl	8006634 <_ZNKSt9type_infoeqERKS_>
 8006766:	b1c0      	cbz	r0, 800679a <_ZNK10__cxxabiv121__vmi_class_type_info12__do_dyncastEiNS_17__class_type_info10__sub_kindEPKS1_PKvS4_S6_RNS1_16__dyncast_resultE+0x70>
 8006768:	9b1a      	ldr	r3, [sp, #104]	; 0x68
 800676a:	f1b8 0f00 	cmp.w	r8, #0
 800676e:	6023      	str	r3, [r4, #0]
 8006770:	9b06      	ldr	r3, [sp, #24]
 8006772:	7123      	strb	r3, [r4, #4]
 8006774:	db0b      	blt.n	800678e <_ZNK10__cxxabiv121__vmi_class_type_info12__do_dyncastEiNS_17__class_type_info10__sub_kindEPKS1_PKvS4_S6_RNS1_16__dyncast_resultE+0x64>
 8006776:	9b1a      	ldr	r3, [sp, #104]	; 0x68
 8006778:	4498      	add	r8, r3
 800677a:	9b1c      	ldr	r3, [sp, #112]	; 0x70
 800677c:	4543      	cmp	r3, r8
 800677e:	bf0c      	ite	eq
 8006780:	f04f 0806 	moveq.w	r8, #6
 8006784:	f04f 0801 	movne.w	r8, #1
 8006788:	f884 8006 	strb.w	r8, [r4, #6]
 800678c:	e7e5      	b.n	800675a <_ZNK10__cxxabiv121__vmi_class_type_info12__do_dyncastEiNS_17__class_type_info10__sub_kindEPKS1_PKvS4_S6_RNS1_16__dyncast_resultE+0x30>
 800678e:	f118 0f02 	cmn.w	r8, #2
 8006792:	d1e2      	bne.n	800675a <_ZNK10__cxxabiv121__vmi_class_type_info12__do_dyncastEiNS_17__class_type_info10__sub_kindEPKS1_PKvS4_S6_RNS1_16__dyncast_resultE+0x30>
 8006794:	2301      	movs	r3, #1
 8006796:	71a3      	strb	r3, [r4, #6]
 8006798:	e7df      	b.n	800675a <_ZNK10__cxxabiv121__vmi_class_type_info12__do_dyncastEiNS_17__class_type_info10__sub_kindEPKS1_PKvS4_S6_RNS1_16__dyncast_resultE+0x30>
 800679a:	f1b8 0f00 	cmp.w	r8, #0
 800679e:	bfa8      	it	ge
 80067a0:	9b1c      	ldrge	r3, [sp, #112]	; 0x70
 80067a2:	f04f 0700 	mov.w	r7, #0
 80067a6:	bfa4      	itt	ge
 80067a8:	eba3 0308 	subge.w	r3, r3, r8
 80067ac:	9307      	strge	r3, [sp, #28]
 80067ae:	f04f 0302 	mov.w	r3, #2
 80067b2:	e9cd 7309 	strd	r7, r3, [sp, #36]	; 0x24
 80067b6:	f04f 0301 	mov.w	r3, #1
 80067ba:	9308      	str	r3, [sp, #32]
 80067bc:	9b06      	ldr	r3, [sp, #24]
 80067be:	bfb8      	it	lt
 80067c0:	9007      	strlt	r0, [sp, #28]
 80067c2:	f043 0301 	orr.w	r3, r3, #1
 80067c6:	930b      	str	r3, [sp, #44]	; 0x2c
 80067c8:	f8d9 b00c 	ldr.w	fp, [r9, #12]
 80067cc:	eb09 03cb 	add.w	r3, r9, fp, lsl #3
 80067d0:	9305      	str	r3, [sp, #20]
 80067d2:	f1bb 0f00 	cmp.w	fp, #0
 80067d6:	f000 80d5 	beq.w	8006984 <_ZNK10__cxxabiv121__vmi_class_type_info12__do_dyncastEiNS_17__class_type_info10__sub_kindEPKS1_PKvS4_S6_RNS1_16__dyncast_resultE+0x25a>
 80067da:	2300      	movs	r3, #0
 80067dc:	e9cd 330d 	strd	r3, r3, [sp, #52]	; 0x34
 80067e0:	9b05      	ldr	r3, [sp, #20]
 80067e2:	68a5      	ldr	r5, [r4, #8]
 80067e4:	68db      	ldr	r3, [r3, #12]
 80067e6:	950f      	str	r5, [sp, #60]	; 0x3c
 80067e8:	07da      	lsls	r2, r3, #31
 80067ea:	bf48      	it	mi
 80067ec:	981a      	ldrmi	r0, [sp, #104]	; 0x68
 80067ee:	ea4f 2123 	mov.w	r1, r3, asr #8
 80067f2:	bf42      	ittt	mi
 80067f4:	6800      	ldrmi	r0, [r0, #0]
 80067f6:	9a0b      	ldrmi	r2, [sp, #44]	; 0x2c
 80067f8:	5841      	ldrmi	r1, [r0, r1]
 80067fa:	981a      	ldr	r0, [sp, #104]	; 0x68
 80067fc:	bf58      	it	pl
 80067fe:	9a06      	ldrpl	r2, [sp, #24]
 8006800:	4401      	add	r1, r0
 8006802:	9807      	ldr	r0, [sp, #28]
 8006804:	b138      	cbz	r0, 8006816 <_ZNK10__cxxabiv121__vmi_class_type_info12__do_dyncastEiNS_17__class_type_info10__sub_kindEPKS1_PKvS4_S6_RNS1_16__dyncast_resultE+0xec>
 8006806:	4288      	cmp	r0, r1
 8006808:	bf2c      	ite	cs
 800680a:	2000      	movcs	r0, #0
 800680c:	2001      	movcc	r0, #1
 800680e:	9e08      	ldr	r6, [sp, #32]
 8006810:	42b0      	cmp	r0, r6
 8006812:	f000 80b3 	beq.w	800697c <_ZNK10__cxxabiv121__vmi_class_type_info12__do_dyncastEiNS_17__class_type_info10__sub_kindEPKS1_PKvS4_S6_RNS1_16__dyncast_resultE+0x252>
 8006816:	079b      	lsls	r3, r3, #30
 8006818:	d407      	bmi.n	800682a <_ZNK10__cxxabiv121__vmi_class_type_info12__do_dyncastEiNS_17__class_type_info10__sub_kindEPKS1_PKvS4_S6_RNS1_16__dyncast_resultE+0x100>
 800681a:	f118 0f02 	cmn.w	r8, #2
 800681e:	d102      	bne.n	8006826 <_ZNK10__cxxabiv121__vmi_class_type_info12__do_dyncastEiNS_17__class_type_info10__sub_kindEPKS1_PKvS4_S6_RNS1_16__dyncast_resultE+0xfc>
 8006820:	07ae      	lsls	r6, r5, #30
 8006822:	f000 80ad 	beq.w	8006980 <_ZNK10__cxxabiv121__vmi_class_type_info12__do_dyncastEiNS_17__class_type_info10__sub_kindEPKS1_PKvS4_S6_RNS1_16__dyncast_resultE+0x256>
 8006826:	f002 02fd 	and.w	r2, r2, #253	; 0xfd
 800682a:	9b05      	ldr	r3, [sp, #20]
 800682c:	ad0d      	add	r5, sp, #52	; 0x34
 800682e:	6898      	ldr	r0, [r3, #8]
 8006830:	6803      	ldr	r3, [r0, #0]
 8006832:	9503      	str	r5, [sp, #12]
 8006834:	9d1c      	ldr	r5, [sp, #112]	; 0x70
 8006836:	9502      	str	r5, [sp, #8]
 8006838:	9d1b      	ldr	r5, [sp, #108]	; 0x6c
 800683a:	e9cd 1500 	strd	r1, r5, [sp]
 800683e:	4641      	mov	r1, r8
 8006840:	69dd      	ldr	r5, [r3, #28]
 8006842:	4653      	mov	r3, sl
 8006844:	47a8      	blx	r5
 8006846:	7963      	ldrb	r3, [r4, #5]
 8006848:	f89d 2039 	ldrb.w	r2, [sp, #57]	; 0x39
 800684c:	f89d 503a 	ldrb.w	r5, [sp, #58]	; 0x3a
 8006850:	4313      	orrs	r3, r2
 8006852:	2d06      	cmp	r5, #6
 8006854:	990d      	ldr	r1, [sp, #52]	; 0x34
 8006856:	7163      	strb	r3, [r4, #5]
 8006858:	d001      	beq.n	800685e <_ZNK10__cxxabiv121__vmi_class_type_info12__do_dyncastEiNS_17__class_type_info10__sub_kindEPKS1_PKvS4_S6_RNS1_16__dyncast_resultE+0x134>
 800685a:	2d02      	cmp	r5, #2
 800685c:	d109      	bne.n	8006872 <_ZNK10__cxxabiv121__vmi_class_type_info12__do_dyncastEiNS_17__class_type_info10__sub_kindEPKS1_PKvS4_S6_RNS1_16__dyncast_resultE+0x148>
 800685e:	f89d 3038 	ldrb.w	r3, [sp, #56]	; 0x38
 8006862:	6021      	str	r1, [r4, #0]
 8006864:	7123      	strb	r3, [r4, #4]
 8006866:	71a5      	strb	r5, [r4, #6]
 8006868:	4607      	mov	r7, r0
 800686a:	4638      	mov	r0, r7
 800686c:	b011      	add	sp, #68	; 0x44
 800686e:	e8bd 8ff0 	ldmia.w	sp!, {r4, r5, r6, r7, r8, r9, sl, fp, pc}
 8006872:	6822      	ldr	r2, [r4, #0]
 8006874:	b9a7      	cbnz	r7, 80068a0 <_ZNK10__cxxabiv121__vmi_class_type_info12__do_dyncastEiNS_17__class_type_info10__sub_kindEPKS1_PKvS4_S6_RNS1_16__dyncast_resultE+0x176>
 8006876:	b9aa      	cbnz	r2, 80068a4 <_ZNK10__cxxabiv121__vmi_class_type_info12__do_dyncastEiNS_17__class_type_info10__sub_kindEPKS1_PKvS4_S6_RNS1_16__dyncast_resultE+0x17a>
 8006878:	f89d 2038 	ldrb.w	r2, [sp, #56]	; 0x38
 800687c:	6021      	str	r1, [r4, #0]
 800687e:	7122      	strb	r2, [r4, #4]
 8006880:	b121      	cbz	r1, 800688c <_ZNK10__cxxabiv121__vmi_class_type_info12__do_dyncastEiNS_17__class_type_info10__sub_kindEPKS1_PKvS4_S6_RNS1_16__dyncast_resultE+0x162>
 8006882:	b11b      	cbz	r3, 800688c <_ZNK10__cxxabiv121__vmi_class_type_info12__do_dyncastEiNS_17__class_type_info10__sub_kindEPKS1_PKvS4_S6_RNS1_16__dyncast_resultE+0x162>
 8006884:	f8d9 3008 	ldr.w	r3, [r9, #8]
 8006888:	07dd      	lsls	r5, r3, #31
 800688a:	d5ed      	bpl.n	8006868 <_ZNK10__cxxabiv121__vmi_class_type_info12__do_dyncastEiNS_17__class_type_info10__sub_kindEPKS1_PKvS4_S6_RNS1_16__dyncast_resultE+0x13e>
 800688c:	7963      	ldrb	r3, [r4, #5]
 800688e:	2b04      	cmp	r3, #4
 8006890:	d0ea      	beq.n	8006868 <_ZNK10__cxxabiv121__vmi_class_type_info12__do_dyncastEiNS_17__class_type_info10__sub_kindEPKS1_PKvS4_S6_RNS1_16__dyncast_resultE+0x13e>
 8006892:	9b05      	ldr	r3, [sp, #20]
 8006894:	4607      	mov	r7, r0
 8006896:	3b08      	subs	r3, #8
 8006898:	f10b 3bff 	add.w	fp, fp, #4294967295
 800689c:	9305      	str	r3, [sp, #20]
 800689e:	e798      	b.n	80067d2 <_ZNK10__cxxabiv121__vmi_class_type_info12__do_dyncastEiNS_17__class_type_info10__sub_kindEPKS1_PKvS4_S6_RNS1_16__dyncast_resultE+0xa8>
 80068a0:	2a00      	cmp	r2, #0
 80068a2:	d037      	beq.n	8006914 <_ZNK10__cxxabiv121__vmi_class_type_info12__do_dyncastEiNS_17__class_type_info10__sub_kindEPKS1_PKvS4_S6_RNS1_16__dyncast_resultE+0x1ea>
 80068a4:	4291      	cmp	r1, r2
 80068a6:	d106      	bne.n	80068b6 <_ZNK10__cxxabiv121__vmi_class_type_info12__do_dyncastEiNS_17__class_type_info10__sub_kindEPKS1_PKvS4_S6_RNS1_16__dyncast_resultE+0x18c>
 80068a8:	7923      	ldrb	r3, [r4, #4]
 80068aa:	f89d 2038 	ldrb.w	r2, [sp, #56]	; 0x38
 80068ae:	4313      	orrs	r3, r2
 80068b0:	7123      	strb	r3, [r4, #4]
 80068b2:	4638      	mov	r0, r7
 80068b4:	e7ea      	b.n	800688c <_ZNK10__cxxabiv121__vmi_class_type_info12__do_dyncastEiNS_17__class_type_info10__sub_kindEPKS1_PKvS4_S6_RNS1_16__dyncast_resultE+0x162>
 80068b6:	b909      	cbnz	r1, 80068bc <_ZNK10__cxxabiv121__vmi_class_type_info12__do_dyncastEiNS_17__class_type_info10__sub_kindEPKS1_PKvS4_S6_RNS1_16__dyncast_resultE+0x192>
 80068b8:	2800      	cmp	r0, #0
 80068ba:	d0fa      	beq.n	80068b2 <_ZNK10__cxxabiv121__vmi_class_type_info12__do_dyncastEiNS_17__class_type_info10__sub_kindEPKS1_PKvS4_S6_RNS1_16__dyncast_resultE+0x188>
 80068bc:	2b03      	cmp	r3, #3
 80068be:	79a6      	ldrb	r6, [r4, #6]
 80068c0:	d904      	bls.n	80068cc <_ZNK10__cxxabiv121__vmi_class_type_info12__do_dyncastEiNS_17__class_type_info10__sub_kindEPKS1_PKvS4_S6_RNS1_16__dyncast_resultE+0x1a2>
 80068c2:	07d9      	lsls	r1, r3, #31
 80068c4:	d529      	bpl.n	800691a <_ZNK10__cxxabiv121__vmi_class_type_info12__do_dyncastEiNS_17__class_type_info10__sub_kindEPKS1_PKvS4_S6_RNS1_16__dyncast_resultE+0x1f0>
 80068c6:	68a3      	ldr	r3, [r4, #8]
 80068c8:	079b      	lsls	r3, r3, #30
 80068ca:	d526      	bpl.n	800691a <_ZNK10__cxxabiv121__vmi_class_type_info12__do_dyncastEiNS_17__class_type_info10__sub_kindEPKS1_PKvS4_S6_RNS1_16__dyncast_resultE+0x1f0>
 80068cc:	b97e      	cbnz	r6, 80068ee <_ZNK10__cxxabiv121__vmi_class_type_info12__do_dyncastEiNS_17__class_type_info10__sub_kindEPKS1_PKvS4_S6_RNS1_16__dyncast_resultE+0x1c4>
 80068ce:	2d03      	cmp	r5, #3
 80068d0:	d905      	bls.n	80068de <_ZNK10__cxxabiv121__vmi_class_type_info12__do_dyncastEiNS_17__class_type_info10__sub_kindEPKS1_PKvS4_S6_RNS1_16__dyncast_resultE+0x1b4>
 80068d2:	07ee      	lsls	r6, r5, #31
 80068d4:	d541      	bpl.n	800695a <_ZNK10__cxxabiv121__vmi_class_type_info12__do_dyncastEiNS_17__class_type_info10__sub_kindEPKS1_PKvS4_S6_RNS1_16__dyncast_resultE+0x230>
 80068d6:	f8d9 3008 	ldr.w	r3, [r9, #8]
 80068da:	0798      	lsls	r0, r3, #30
 80068dc:	d53d      	bpl.n	800695a <_ZNK10__cxxabiv121__vmi_class_type_info12__do_dyncastEiNS_17__class_type_info10__sub_kindEPKS1_PKvS4_S6_RNS1_16__dyncast_resultE+0x230>
 80068de:	9b1c      	ldr	r3, [sp, #112]	; 0x70
 80068e0:	4641      	mov	r1, r8
 80068e2:	9300      	str	r3, [sp, #0]
 80068e4:	4650      	mov	r0, sl
 80068e6:	9b1b      	ldr	r3, [sp, #108]	; 0x6c
 80068e8:	f7ff ff0a 	bl	8006700 <_ZNK10__cxxabiv117__class_type_info17__find_public_srcEiPKvPKS0_S2_>
 80068ec:	4606      	mov	r6, r0
 80068ee:	b9e5      	cbnz	r5, 800692a <_ZNK10__cxxabiv121__vmi_class_type_info12__do_dyncastEiNS_17__class_type_info10__sub_kindEPKS1_PKvS4_S6_RNS1_16__dyncast_resultE+0x200>
 80068f0:	2e03      	cmp	r6, #3
 80068f2:	d905      	bls.n	8006900 <_ZNK10__cxxabiv121__vmi_class_type_info12__do_dyncastEiNS_17__class_type_info10__sub_kindEPKS1_PKvS4_S6_RNS1_16__dyncast_resultE+0x1d6>
 80068f4:	07f1      	lsls	r1, r6, #31
 80068f6:	d532      	bpl.n	800695e <_ZNK10__cxxabiv121__vmi_class_type_info12__do_dyncastEiNS_17__class_type_info10__sub_kindEPKS1_PKvS4_S6_RNS1_16__dyncast_resultE+0x234>
 80068f8:	f8d9 3008 	ldr.w	r3, [r9, #8]
 80068fc:	079a      	lsls	r2, r3, #30
 80068fe:	d52e      	bpl.n	800695e <_ZNK10__cxxabiv121__vmi_class_type_info12__do_dyncastEiNS_17__class_type_info10__sub_kindEPKS1_PKvS4_S6_RNS1_16__dyncast_resultE+0x234>
 8006900:	9b1c      	ldr	r3, [sp, #112]	; 0x70
 8006902:	4641      	mov	r1, r8
 8006904:	9300      	str	r3, [sp, #0]
 8006906:	4650      	mov	r0, sl
 8006908:	9b1b      	ldr	r3, [sp, #108]	; 0x6c
 800690a:	9a0d      	ldr	r2, [sp, #52]	; 0x34
 800690c:	f7ff fef8 	bl	8006700 <_ZNK10__cxxabiv117__class_type_info17__find_public_srcEiPKvPKS0_S2_>
 8006910:	4605      	mov	r5, r0
 8006912:	e00a      	b.n	800692a <_ZNK10__cxxabiv121__vmi_class_type_info12__do_dyncastEiNS_17__class_type_info10__sub_kindEPKS1_PKvS4_S6_RNS1_16__dyncast_resultE+0x200>
 8006914:	2900      	cmp	r1, #0
 8006916:	d1d1      	bne.n	80068bc <_ZNK10__cxxabiv121__vmi_class_type_info12__do_dyncastEiNS_17__class_type_info10__sub_kindEPKS1_PKvS4_S6_RNS1_16__dyncast_resultE+0x192>
 8006918:	e7cb      	b.n	80068b2 <_ZNK10__cxxabiv121__vmi_class_type_info12__do_dyncastEiNS_17__class_type_info10__sub_kindEPKS1_PKvS4_S6_RNS1_16__dyncast_resultE+0x188>
 800691a:	2e01      	cmp	r6, #1
 800691c:	bf38      	it	cc
 800691e:	2601      	movcc	r6, #1
 8006920:	2d01      	cmp	r5, #1
 8006922:	bf38      	it	cc
 8006924:	2501      	movcc	r5, #1
 8006926:	b2f6      	uxtb	r6, r6
 8006928:	b2ed      	uxtb	r5, r5
 800692a:	ea85 0306 	eor.w	r3, r5, r6
 800692e:	b2db      	uxtb	r3, r3
 8006930:	2b03      	cmp	r3, #3
 8006932:	d916      	bls.n	8006962 <_ZNK10__cxxabiv121__vmi_class_type_info12__do_dyncastEiNS_17__class_type_info10__sub_kindEPKS1_PKvS4_S6_RNS1_16__dyncast_resultE+0x238>
 8006934:	2d03      	cmp	r5, #3
 8006936:	bf81      	itttt	hi
 8006938:	462e      	movhi	r6, r5
 800693a:	9b0d      	ldrhi	r3, [sp, #52]	; 0x34
 800693c:	2000      	movhi	r0, #0
 800693e:	6023      	strhi	r3, [r4, #0]
 8006940:	bf8a      	itet	hi
 8006942:	f89d 3038 	ldrbhi.w	r3, [sp, #56]	; 0x38
 8006946:	4638      	movls	r0, r7
 8006948:	7123      	strbhi	r3, [r4, #4]
 800694a:	07b3      	lsls	r3, r6, #30
 800694c:	71a6      	strb	r6, [r4, #6]
 800694e:	d402      	bmi.n	8006956 <_ZNK10__cxxabiv121__vmi_class_type_info12__do_dyncastEiNS_17__class_type_info10__sub_kindEPKS1_PKvS4_S6_RNS1_16__dyncast_resultE+0x22c>
 8006950:	f016 0601 	ands.w	r6, r6, #1
 8006954:	d19a      	bne.n	800688c <_ZNK10__cxxabiv121__vmi_class_type_info12__do_dyncastEiNS_17__class_type_info10__sub_kindEPKS1_PKvS4_S6_RNS1_16__dyncast_resultE+0x162>
 8006956:	2000      	movs	r0, #0
 8006958:	e786      	b.n	8006868 <_ZNK10__cxxabiv121__vmi_class_type_info12__do_dyncastEiNS_17__class_type_info10__sub_kindEPKS1_PKvS4_S6_RNS1_16__dyncast_resultE+0x13e>
 800695a:	2601      	movs	r6, #1
 800695c:	e7e5      	b.n	800692a <_ZNK10__cxxabiv121__vmi_class_type_info12__do_dyncastEiNS_17__class_type_info10__sub_kindEPKS1_PKvS4_S6_RNS1_16__dyncast_resultE+0x200>
 800695e:	2501      	movs	r5, #1
 8006960:	e7e3      	b.n	800692a <_ZNK10__cxxabiv121__vmi_class_type_info12__do_dyncastEiNS_17__class_type_info10__sub_kindEPKS1_PKvS4_S6_RNS1_16__dyncast_resultE+0x200>
 8006962:	2300      	movs	r3, #0
 8006964:	4035      	ands	r5, r6
 8006966:	b2ed      	uxtb	r5, r5
 8006968:	2d03      	cmp	r5, #3
 800696a:	6023      	str	r3, [r4, #0]
 800696c:	d903      	bls.n	8006976 <_ZNK10__cxxabiv121__vmi_class_type_info12__do_dyncastEiNS_17__class_type_info10__sub_kindEPKS1_PKvS4_S6_RNS1_16__dyncast_resultE+0x24c>
 800696e:	2302      	movs	r3, #2
 8006970:	2001      	movs	r0, #1
 8006972:	71a3      	strb	r3, [r4, #6]
 8006974:	e778      	b.n	8006868 <_ZNK10__cxxabiv121__vmi_class_type_info12__do_dyncastEiNS_17__class_type_info10__sub_kindEPKS1_PKvS4_S6_RNS1_16__dyncast_resultE+0x13e>
 8006976:	2001      	movs	r0, #1
 8006978:	71a0      	strb	r0, [r4, #6]
 800697a:	e787      	b.n	800688c <_ZNK10__cxxabiv121__vmi_class_type_info12__do_dyncastEiNS_17__class_type_info10__sub_kindEPKS1_PKvS4_S6_RNS1_16__dyncast_resultE+0x162>
 800697c:	2301      	movs	r3, #1
 800697e:	9309      	str	r3, [sp, #36]	; 0x24
 8006980:	4638      	mov	r0, r7
 8006982:	e786      	b.n	8006892 <_ZNK10__cxxabiv121__vmi_class_type_info12__do_dyncastEiNS_17__class_type_info10__sub_kindEPKS1_PKvS4_S6_RNS1_16__dyncast_resultE+0x168>
 8006984:	9b09      	ldr	r3, [sp, #36]	; 0x24
 8006986:	2b00      	cmp	r3, #0
 8006988:	f43f af6f 	beq.w	800686a <_ZNK10__cxxabiv121__vmi_class_type_info12__do_dyncastEiNS_17__class_type_info10__sub_kindEPKS1_PKvS4_S6_RNS1_16__dyncast_resultE+0x140>
 800698c:	9b0a      	ldr	r3, [sp, #40]	; 0x28
 800698e:	2b01      	cmp	r3, #1
 8006990:	f43f af6b 	beq.w	800686a <_ZNK10__cxxabiv121__vmi_class_type_info12__do_dyncastEiNS_17__class_type_info10__sub_kindEPKS1_PKvS4_S6_RNS1_16__dyncast_resultE+0x140>
 8006994:	2301      	movs	r3, #1
 8006996:	f8cd b020 	str.w	fp, [sp, #32]
 800699a:	930a      	str	r3, [sp, #40]	; 0x28
 800699c:	e714      	b.n	80067c8 <_ZNK10__cxxabiv121__vmi_class_type_info12__do_dyncastEiNS_17__class_type_info10__sub_kindEPKS1_PKvS4_S6_RNS1_16__dyncast_resultE+0x9e>

0800699e <_ZNK10__cxxabiv121__vmi_class_type_info11__do_upcastEPKNS_17__class_type_infoEPKvRNS1_15__upcast_resultE>:
 800699e:	e92d 4ff0 	stmdb	sp!, {r4, r5, r6, r7, r8, r9, sl, fp, lr}
 80069a2:	b089      	sub	sp, #36	; 0x24
 80069a4:	4606      	mov	r6, r0
 80069a6:	4617      	mov	r7, r2
 80069a8:	461c      	mov	r4, r3
 80069aa:	9102      	str	r1, [sp, #8]
 80069ac:	f7ff fa31 	bl	8005e12 <_ZNK10__cxxabiv117__class_type_info11__do_upcastEPKS0_PKvRNS0_15__upcast_resultE>
 80069b0:	4605      	mov	r5, r0
 80069b2:	2800      	cmp	r0, #0
 80069b4:	d15f      	bne.n	8006a76 <_ZNK10__cxxabiv121__vmi_class_type_info11__do_upcastEPKNS_17__class_type_infoEPKvRNS1_15__upcast_resultE+0xd8>
 80069b6:	f8d4 9008 	ldr.w	r9, [r4, #8]
 80069ba:	f8d6 a00c 	ldr.w	sl, [r6, #12]
 80069be:	f019 0f10 	tst.w	r9, #16
 80069c2:	bf18      	it	ne
 80069c4:	f8d6 9008 	ldrne.w	r9, [r6, #8]
 80069c8:	eb06 08ca 	add.w	r8, r6, sl, lsl #3
 80069cc:	f009 0301 	and.w	r3, r9, #1
 80069d0:	9303      	str	r3, [sp, #12]
 80069d2:	f10d 0b10 	add.w	fp, sp, #16
 80069d6:	f1ba 0f00 	cmp.w	sl, #0
 80069da:	d072      	beq.n	8006ac2 <_ZNK10__cxxabiv121__vmi_class_type_info11__do_upcastEPKNS_17__class_type_infoEPKvRNS1_15__upcast_resultE+0x124>
 80069dc:	2300      	movs	r3, #0
 80069de:	9304      	str	r3, [sp, #16]
 80069e0:	f88d 3014 	strb.w	r3, [sp, #20]
 80069e4:	2300      	movs	r3, #0
 80069e6:	f8d8 200c 	ldr.w	r2, [r8, #12]
 80069ea:	9307      	str	r3, [sp, #28]
 80069ec:	f002 0301 	and.w	r3, r2, #1
 80069f0:	9300      	str	r3, [sp, #0]
 80069f2:	f002 0302 	and.w	r3, r2, #2
 80069f6:	9301      	str	r3, [sp, #4]
 80069f8:	9b03      	ldr	r3, [sp, #12]
 80069fa:	f002 0102 	and.w	r1, r2, #2
 80069fe:	430b      	orrs	r3, r1
 8006a00:	f8cd 9018 	str.w	r9, [sp, #24]
 8006a04:	d104      	bne.n	8006a10 <_ZNK10__cxxabiv121__vmi_class_type_info11__do_upcastEPKNS_17__class_type_infoEPKvRNS1_15__upcast_resultE+0x72>
 8006a06:	f10a 3aff 	add.w	sl, sl, #4294967295
 8006a0a:	f1a8 0808 	sub.w	r8, r8, #8
 8006a0e:	e7e2      	b.n	80069d6 <_ZNK10__cxxabiv121__vmi_class_type_info11__do_upcastEPKNS_17__class_type_infoEPKvRNS1_15__upcast_resultE+0x38>
 8006a10:	2f00      	cmp	r7, #0
 8006a12:	d034      	beq.n	8006a7e <_ZNK10__cxxabiv121__vmi_class_type_info11__do_upcastEPKNS_17__class_type_infoEPKvRNS1_15__upcast_resultE+0xe0>
 8006a14:	9b00      	ldr	r3, [sp, #0]
 8006a16:	1212      	asrs	r2, r2, #8
 8006a18:	b10b      	cbz	r3, 8006a1e <_ZNK10__cxxabiv121__vmi_class_type_info11__do_upcastEPKNS_17__class_type_infoEPKvRNS1_15__upcast_resultE+0x80>
 8006a1a:	683b      	ldr	r3, [r7, #0]
 8006a1c:	589a      	ldr	r2, [r3, r2]
 8006a1e:	443a      	add	r2, r7
 8006a20:	f8d8 0008 	ldr.w	r0, [r8, #8]
 8006a24:	9902      	ldr	r1, [sp, #8]
 8006a26:	6803      	ldr	r3, [r0, #0]
 8006a28:	699d      	ldr	r5, [r3, #24]
 8006a2a:	465b      	mov	r3, fp
 8006a2c:	47a8      	blx	r5
 8006a2e:	4605      	mov	r5, r0
 8006a30:	2800      	cmp	r0, #0
 8006a32:	d0e8      	beq.n	8006a06 <_ZNK10__cxxabiv121__vmi_class_type_info11__do_upcastEPKNS_17__class_type_infoEPKvRNS1_15__upcast_resultE+0x68>
 8006a34:	9b07      	ldr	r3, [sp, #28]
 8006a36:	2b08      	cmp	r3, #8
 8006a38:	d104      	bne.n	8006a44 <_ZNK10__cxxabiv121__vmi_class_type_info11__do_upcastEPKNS_17__class_type_infoEPKvRNS1_15__upcast_resultE+0xa6>
 8006a3a:	9b00      	ldr	r3, [sp, #0]
 8006a3c:	b113      	cbz	r3, 8006a44 <_ZNK10__cxxabiv121__vmi_class_type_info11__do_upcastEPKNS_17__class_type_infoEPKvRNS1_15__upcast_resultE+0xa6>
 8006a3e:	f8d8 3008 	ldr.w	r3, [r8, #8]
 8006a42:	9307      	str	r3, [sp, #28]
 8006a44:	f89d 3014 	ldrb.w	r3, [sp, #20]
 8006a48:	2b03      	cmp	r3, #3
 8006a4a:	d905      	bls.n	8006a58 <_ZNK10__cxxabiv121__vmi_class_type_info11__do_upcastEPKNS_17__class_type_infoEPKvRNS1_15__upcast_resultE+0xba>
 8006a4c:	9a01      	ldr	r2, [sp, #4]
 8006a4e:	b91a      	cbnz	r2, 8006a58 <_ZNK10__cxxabiv121__vmi_class_type_info11__do_upcastEPKNS_17__class_type_infoEPKvRNS1_15__upcast_resultE+0xba>
 8006a50:	f023 0302 	bic.w	r3, r3, #2
 8006a54:	f88d 3014 	strb.w	r3, [sp, #20]
 8006a58:	68e1      	ldr	r1, [r4, #12]
 8006a5a:	b9c1      	cbnz	r1, 8006a8e <_ZNK10__cxxabiv121__vmi_class_type_info11__do_upcastEPKNS_17__class_type_infoEPKvRNS1_15__upcast_resultE+0xf0>
 8006a5c:	e89b 000f 	ldmia.w	fp, {r0, r1, r2, r3}
 8006a60:	e884 000f 	stmia.w	r4, {r0, r1, r2, r3}
 8006a64:	7923      	ldrb	r3, [r4, #4]
 8006a66:	2b03      	cmp	r3, #3
 8006a68:	d905      	bls.n	8006a76 <_ZNK10__cxxabiv121__vmi_class_type_info11__do_upcastEPKNS_17__class_type_infoEPKvRNS1_15__upcast_resultE+0xd8>
 8006a6a:	079a      	lsls	r2, r3, #30
 8006a6c:	d509      	bpl.n	8006a82 <_ZNK10__cxxabiv121__vmi_class_type_info11__do_upcastEPKNS_17__class_type_infoEPKvRNS1_15__upcast_resultE+0xe4>
 8006a6e:	68b3      	ldr	r3, [r6, #8]
 8006a70:	f013 0f01 	tst.w	r3, #1
 8006a74:	d1c7      	bne.n	8006a06 <_ZNK10__cxxabiv121__vmi_class_type_info11__do_upcastEPKNS_17__class_type_infoEPKvRNS1_15__upcast_resultE+0x68>
 8006a76:	4628      	mov	r0, r5
 8006a78:	b009      	add	sp, #36	; 0x24
 8006a7a:	e8bd 8ff0 	ldmia.w	sp!, {r4, r5, r6, r7, r8, r9, sl, fp, pc}
 8006a7e:	463a      	mov	r2, r7
 8006a80:	e7ce      	b.n	8006a20 <_ZNK10__cxxabiv121__vmi_class_type_info11__do_upcastEPKNS_17__class_type_infoEPKvRNS1_15__upcast_resultE+0x82>
 8006a82:	07db      	lsls	r3, r3, #31
 8006a84:	d5f7      	bpl.n	8006a76 <_ZNK10__cxxabiv121__vmi_class_type_info11__do_upcastEPKNS_17__class_type_infoEPKvRNS1_15__upcast_resultE+0xd8>
 8006a86:	68b3      	ldr	r3, [r6, #8]
 8006a88:	f013 0f02 	tst.w	r3, #2
 8006a8c:	e7f2      	b.n	8006a74 <_ZNK10__cxxabiv121__vmi_class_type_info11__do_upcastEPKNS_17__class_type_infoEPKvRNS1_15__upcast_resultE+0xd6>
 8006a8e:	6823      	ldr	r3, [r4, #0]
 8006a90:	9a04      	ldr	r2, [sp, #16]
 8006a92:	4293      	cmp	r3, r2
 8006a94:	d004      	beq.n	8006aa0 <_ZNK10__cxxabiv121__vmi_class_type_info11__do_upcastEPKNS_17__class_type_infoEPKvRNS1_15__upcast_resultE+0x102>
 8006a96:	2300      	movs	r3, #0
 8006a98:	6023      	str	r3, [r4, #0]
 8006a9a:	2302      	movs	r3, #2
 8006a9c:	7123      	strb	r3, [r4, #4]
 8006a9e:	e7ea      	b.n	8006a76 <_ZNK10__cxxabiv121__vmi_class_type_info11__do_upcastEPKNS_17__class_type_infoEPKvRNS1_15__upcast_resultE+0xd8>
 8006aa0:	b12b      	cbz	r3, 8006aae <_ZNK10__cxxabiv121__vmi_class_type_info11__do_upcastEPKNS_17__class_type_infoEPKvRNS1_15__upcast_resultE+0x110>
 8006aa2:	7923      	ldrb	r3, [r4, #4]
 8006aa4:	f89d 2014 	ldrb.w	r2, [sp, #20]
 8006aa8:	4313      	orrs	r3, r2
 8006aaa:	7123      	strb	r3, [r4, #4]
 8006aac:	e7ab      	b.n	8006a06 <_ZNK10__cxxabiv121__vmi_class_type_info11__do_upcastEPKNS_17__class_type_infoEPKvRNS1_15__upcast_resultE+0x68>
 8006aae:	9807      	ldr	r0, [sp, #28]
 8006ab0:	2808      	cmp	r0, #8
 8006ab2:	d0f2      	beq.n	8006a9a <_ZNK10__cxxabiv121__vmi_class_type_info11__do_upcastEPKNS_17__class_type_infoEPKvRNS1_15__upcast_resultE+0xfc>
 8006ab4:	2908      	cmp	r1, #8
 8006ab6:	d0f0      	beq.n	8006a9a <_ZNK10__cxxabiv121__vmi_class_type_info11__do_upcastEPKNS_17__class_type_infoEPKvRNS1_15__upcast_resultE+0xfc>
 8006ab8:	f7ff fdbc 	bl	8006634 <_ZNKSt9type_infoeqERKS_>
 8006abc:	2800      	cmp	r0, #0
 8006abe:	d1f0      	bne.n	8006aa2 <_ZNK10__cxxabiv121__vmi_class_type_info11__do_upcastEPKNS_17__class_type_infoEPKvRNS1_15__upcast_resultE+0x104>
 8006ac0:	e7eb      	b.n	8006a9a <_ZNK10__cxxabiv121__vmi_class_type_info11__do_upcastEPKNS_17__class_type_infoEPKvRNS1_15__upcast_resultE+0xfc>
 8006ac2:	7925      	ldrb	r5, [r4, #4]
 8006ac4:	3d00      	subs	r5, #0
 8006ac6:	bf18      	it	ne
 8006ac8:	2501      	movne	r5, #1
 8006aca:	e7d4      	b.n	8006a76 <_ZNK10__cxxabiv121__vmi_class_type_info11__do_upcastEPKNS_17__class_type_infoEPKvRNS1_15__upcast_resultE+0xd8>

08006acc <_ZNSt8__detail15_List_node_base7_M_hookEPS0_>:
 8006acc:	684b      	ldr	r3, [r1, #4]
 8006ace:	6001      	str	r1, [r0, #0]
 8006ad0:	6043      	str	r3, [r0, #4]
 8006ad2:	684b      	ldr	r3, [r1, #4]
 8006ad4:	6018      	str	r0, [r3, #0]
 8006ad6:	6048      	str	r0, [r1, #4]
 8006ad8:	4770      	bx	lr

08006ada <_ZSt20__throw_length_errorPKc>:
 8006ada:	b508      	push	{r3, lr}
 8006adc:	f000 f894 	bl	8006c08 <abort>

08006ae0 <_ZSt25__throw_bad_function_callv>:
 8006ae0:	b508      	push	{r3, lr}
 8006ae2:	f000 f891 	bl	8006c08 <abort>

08006ae6 <_ZdlPv>:
 8006ae6:	f000 b8c9 	b.w	8006c7c <free>

08006aea <_ZN10__cxxabiv1L24__is_gxx_exception_classEPc>:
 8006aea:	7803      	ldrb	r3, [r0, #0]
 8006aec:	2b47      	cmp	r3, #71	; 0x47
 8006aee:	d117      	bne.n	8006b20 <_ZN10__cxxabiv1L24__is_gxx_exception_classEPc+0x36>
 8006af0:	7843      	ldrb	r3, [r0, #1]
 8006af2:	2b4e      	cmp	r3, #78	; 0x4e
 8006af4:	d114      	bne.n	8006b20 <_ZN10__cxxabiv1L24__is_gxx_exception_classEPc+0x36>
 8006af6:	7883      	ldrb	r3, [r0, #2]
 8006af8:	2b55      	cmp	r3, #85	; 0x55
 8006afa:	d111      	bne.n	8006b20 <_ZN10__cxxabiv1L24__is_gxx_exception_classEPc+0x36>
 8006afc:	78c3      	ldrb	r3, [r0, #3]
 8006afe:	2b43      	cmp	r3, #67	; 0x43
 8006b00:	d10e      	bne.n	8006b20 <_ZN10__cxxabiv1L24__is_gxx_exception_classEPc+0x36>
 8006b02:	7903      	ldrb	r3, [r0, #4]
 8006b04:	2b43      	cmp	r3, #67	; 0x43
 8006b06:	d10b      	bne.n	8006b20 <_ZN10__cxxabiv1L24__is_gxx_exception_classEPc+0x36>
 8006b08:	7943      	ldrb	r3, [r0, #5]
 8006b0a:	2b2b      	cmp	r3, #43	; 0x2b
 8006b0c:	d108      	bne.n	8006b20 <_ZN10__cxxabiv1L24__is_gxx_exception_classEPc+0x36>
 8006b0e:	7983      	ldrb	r3, [r0, #6]
 8006b10:	2b2b      	cmp	r3, #43	; 0x2b
 8006b12:	d105      	bne.n	8006b20 <_ZN10__cxxabiv1L24__is_gxx_exception_classEPc+0x36>
 8006b14:	79c0      	ldrb	r0, [r0, #7]
 8006b16:	2801      	cmp	r0, #1
 8006b18:	bf8c      	ite	hi
 8006b1a:	2000      	movhi	r0, #0
 8006b1c:	2001      	movls	r0, #1
 8006b1e:	4770      	bx	lr
 8006b20:	2000      	movs	r0, #0
 8006b22:	4770      	bx	lr

08006b24 <__cxa_call_terminate>:
 8006b24:	b510      	push	{r4, lr}
 8006b26:	4604      	mov	r4, r0
 8006b28:	b148      	cbz	r0, 8006b3e <__cxa_call_terminate+0x1a>
 8006b2a:	f000 f83b 	bl	8006ba4 <__cxa_begin_catch>
 8006b2e:	4620      	mov	r0, r4
 8006b30:	f7ff ffdb 	bl	8006aea <_ZN10__cxxabiv1L24__is_gxx_exception_classEPc>
 8006b34:	b118      	cbz	r0, 8006b3e <__cxa_call_terminate+0x1a>
 8006b36:	f854 0c14 	ldr.w	r0, [r4, #-20]
 8006b3a:	f7ff fcc3 	bl	80064c4 <_ZN10__cxxabiv111__terminateEPFvvE>
 8006b3e:	f7ff fccd 	bl	80064dc <_ZSt9terminatev>

08006b42 <__cxa_call_unexpected>:
 8006b42:	b538      	push	{r3, r4, r5, lr}
 8006b44:	4602      	mov	r2, r0
 8006b46:	f7ff ffd0 	bl	8006aea <_ZN10__cxxabiv1L24__is_gxx_exception_classEPc>
 8006b4a:	4604      	mov	r4, r0
 8006b4c:	b140      	cbz	r0, 8006b60 <__cxa_call_unexpected+0x1e>
 8006b4e:	2500      	movs	r5, #0
 8006b50:	f852 4c18 	ldr.w	r4, [r2, #-24]
 8006b54:	4610      	mov	r0, r2
 8006b56:	f000 f825 	bl	8006ba4 <__cxa_begin_catch>
 8006b5a:	b11d      	cbz	r5, 8006b64 <__cxa_call_unexpected+0x22>
 8006b5c:	f7ff fcd0 	bl	8006500 <_ZSt10unexpectedv>
 8006b60:	2501      	movs	r5, #1
 8006b62:	e7f7      	b.n	8006b54 <__cxa_call_unexpected+0x12>
 8006b64:	4620      	mov	r0, r4
 8006b66:	f7ff fcbe 	bl	80064e6 <_ZN10__cxxabiv112__unexpectedEPFvvE>

08006b6a <_ZN10__cxxabiv1L24__is_gxx_exception_classEPc>:
 8006b6a:	7803      	ldrb	r3, [r0, #0]
 8006b6c:	2b47      	cmp	r3, #71	; 0x47
 8006b6e:	d117      	bne.n	8006ba0 <_ZN10__cxxabiv1L24__is_gxx_exception_classEPc+0x36>
 8006b70:	7843      	ldrb	r3, [r0, #1]
 8006b72:	2b4e      	cmp	r3, #78	; 0x4e
 8006b74:	d114      	bne.n	8006ba0 <_ZN10__cxxabiv1L24__is_gxx_exception_classEPc+0x36>
 8006b76:	7883      	ldrb	r3, [r0, #2]
 8006b78:	2b55      	cmp	r3, #85	; 0x55
 8006b7a:	d111      	bne.n	8006ba0 <_ZN10__cxxabiv1L24__is_gxx_exception_classEPc+0x36>
 8006b7c:	78c3      	ldrb	r3, [r0, #3]
 8006b7e:	2b43      	cmp	r3, #67	; 0x43
 8006b80:	d10e      	bne.n	8006ba0 <_ZN10__cxxabiv1L24__is_gxx_exception_classEPc+0x36>
 8006b82:	7903      	ldrb	r3, [r0, #4]
 8006b84:	2b43      	cmp	r3, #67	; 0x43
 8006b86:	d10b      	bne.n	8006ba0 <_ZN10__cxxabiv1L24__is_gxx_exception_classEPc+0x36>
 8006b88:	7943      	ldrb	r3, [r0, #5]
 8006b8a:	2b2b      	cmp	r3, #43	; 0x2b
 8006b8c:	d108      	bne.n	8006ba0 <_ZN10__cxxabiv1L24__is_gxx_exception_classEPc+0x36>
 8006b8e:	7983      	ldrb	r3, [r0, #6]
 8006b90:	2b2b      	cmp	r3, #43	; 0x2b
 8006b92:	d105      	bne.n	8006ba0 <_ZN10__cxxabiv1L24__is_gxx_exception_classEPc+0x36>
 8006b94:	79c0      	ldrb	r0, [r0, #7]
 8006b96:	2801      	cmp	r0, #1
 8006b98:	bf8c      	ite	hi
 8006b9a:	2000      	movhi	r0, #0
 8006b9c:	2001      	movls	r0, #1
 8006b9e:	4770      	bx	lr
 8006ba0:	2000      	movs	r0, #0
 8006ba2:	4770      	bx	lr

08006ba4 <__cxa_begin_catch>:
 8006ba4:	b538      	push	{r3, r4, r5, lr}
 8006ba6:	4604      	mov	r4, r0
 8006ba8:	f7ff fa0e 	bl	8005fc8 <__cxa_get_globals>
 8006bac:	4602      	mov	r2, r0
 8006bae:	6805      	ldr	r5, [r0, #0]
 8006bb0:	4620      	mov	r0, r4
 8006bb2:	f1a4 0120 	sub.w	r1, r4, #32
 8006bb6:	f7ff ffd8 	bl	8006b6a <_ZN10__cxxabiv1L24__is_gxx_exception_classEPc>
 8006bba:	b928      	cbnz	r0, 8006bc8 <__cxa_begin_catch+0x24>
 8006bbc:	b10d      	cbz	r5, 8006bc2 <__cxa_begin_catch+0x1e>
 8006bbe:	f7ff fc8d 	bl	80064dc <_ZSt9terminatev>
 8006bc2:	6011      	str	r1, [r2, #0]
 8006bc4:	4628      	mov	r0, r5
 8006bc6:	bd38      	pop	{r3, r4, r5, pc}
 8006bc8:	f854 3c0c 	ldr.w	r3, [r4, #-12]
 8006bcc:	4620      	mov	r0, r4
 8006bce:	2b00      	cmp	r3, #0
 8006bd0:	bfb4      	ite	lt
 8006bd2:	f1c3 0301 	rsblt	r3, r3, #1
 8006bd6:	3301      	addge	r3, #1
 8006bd8:	f844 3c0c 	str.w	r3, [r4, #-12]
 8006bdc:	6853      	ldr	r3, [r2, #4]
 8006bde:	428d      	cmp	r5, r1
 8006be0:	f103 33ff 	add.w	r3, r3, #4294967295
 8006be4:	6053      	str	r3, [r2, #4]
 8006be6:	bf1c      	itt	ne
 8006be8:	f844 5c10 	strne.w	r5, [r4, #-16]
 8006bec:	6011      	strne	r1, [r2, #0]
 8006bee:	6a65      	ldr	r5, [r4, #36]	; 0x24
 8006bf0:	f7fa fbbc 	bl	800136c <_Unwind_Complete>
 8006bf4:	e7e6      	b.n	8006bc4 <__cxa_begin_catch+0x20>
	...

08006bf8 <_ZSt15get_new_handlerv>:
 8006bf8:	4b02      	ldr	r3, [pc, #8]	; (8006c04 <_ZSt15get_new_handlerv+0xc>)
 8006bfa:	6818      	ldr	r0, [r3, #0]
 8006bfc:	f3bf 8f5b 	dmb	ish
 8006c00:	4770      	bx	lr
 8006c02:	bf00      	nop
 8006c04:	2000043c 	.word	0x2000043c

08006c08 <abort>:
 8006c08:	2006      	movs	r0, #6
 8006c0a:	b508      	push	{r3, lr}
 8006c0c:	f000 f982 	bl	8006f14 <raise>
 8006c10:	2001      	movs	r0, #1
 8006c12:	f7fd fa15 	bl	8004040 <_exit>
	...

08006c18 <__errno>:
 8006c18:	4b01      	ldr	r3, [pc, #4]	; (8006c20 <__errno+0x8>)
 8006c1a:	6818      	ldr	r0, [r3, #0]
 8006c1c:	4770      	bx	lr
 8006c1e:	bf00      	nop
 8006c20:	20000018 	.word	0x20000018

08006c24 <__libc_init_array>:
 8006c24:	b570      	push	{r4, r5, r6, lr}
 8006c26:	2600      	movs	r6, #0
 8006c28:	4d0c      	ldr	r5, [pc, #48]	; (8006c5c <__libc_init_array+0x38>)
 8006c2a:	4c0d      	ldr	r4, [pc, #52]	; (8006c60 <__libc_init_array+0x3c>)
 8006c2c:	1b64      	subs	r4, r4, r5
 8006c2e:	10a4      	asrs	r4, r4, #2
 8006c30:	42a6      	cmp	r6, r4
 8006c32:	d109      	bne.n	8006c48 <__libc_init_array+0x24>
 8006c34:	f000 f99e 	bl	8006f74 <_init>
 8006c38:	2600      	movs	r6, #0
 8006c3a:	4d0a      	ldr	r5, [pc, #40]	; (8006c64 <__libc_init_array+0x40>)
 8006c3c:	4c0a      	ldr	r4, [pc, #40]	; (8006c68 <__libc_init_array+0x44>)
 8006c3e:	1b64      	subs	r4, r4, r5
 8006c40:	10a4      	asrs	r4, r4, #2
 8006c42:	42a6      	cmp	r6, r4
 8006c44:	d105      	bne.n	8006c52 <__libc_init_array+0x2e>
 8006c46:	bd70      	pop	{r4, r5, r6, pc}
 8006c48:	f855 3b04 	ldr.w	r3, [r5], #4
 8006c4c:	4798      	blx	r3
 8006c4e:	3601      	adds	r6, #1
 8006c50:	e7ee      	b.n	8006c30 <__libc_init_array+0xc>
 8006c52:	f855 3b04 	ldr.w	r3, [r5], #4
 8006c56:	4798      	blx	r3
 8006c58:	3601      	adds	r6, #1
 8006c5a:	e7f2      	b.n	8006c42 <__libc_init_array+0x1e>
 8006c5c:	08007a20 	.word	0x08007a20
 8006c60:	08007a20 	.word	0x08007a20
 8006c64:	08007a20 	.word	0x08007a20
 8006c68:	08007a34 	.word	0x08007a34

08006c6c <malloc>:
 8006c6c:	4b02      	ldr	r3, [pc, #8]	; (8006c78 <malloc+0xc>)
 8006c6e:	4601      	mov	r1, r0
 8006c70:	6818      	ldr	r0, [r3, #0]
 8006c72:	f000 b8a3 	b.w	8006dbc <_malloc_r>
 8006c76:	bf00      	nop
 8006c78:	20000018 	.word	0x20000018

08006c7c <free>:
 8006c7c:	4b02      	ldr	r3, [pc, #8]	; (8006c88 <free+0xc>)
 8006c7e:	4601      	mov	r1, r0
 8006c80:	6818      	ldr	r0, [r3, #0]
 8006c82:	f000 b833 	b.w	8006cec <_free_r>
 8006c86:	bf00      	nop
 8006c88:	20000018 	.word	0x20000018

08006c8c <memcpy>:
 8006c8c:	440a      	add	r2, r1
 8006c8e:	4291      	cmp	r1, r2
 8006c90:	f100 33ff 	add.w	r3, r0, #4294967295
 8006c94:	d100      	bne.n	8006c98 <memcpy+0xc>
 8006c96:	4770      	bx	lr
 8006c98:	b510      	push	{r4, lr}
 8006c9a:	f811 4b01 	ldrb.w	r4, [r1], #1
 8006c9e:	4291      	cmp	r1, r2
 8006ca0:	f803 4f01 	strb.w	r4, [r3, #1]!
 8006ca4:	d1f9      	bne.n	8006c9a <memcpy+0xe>
 8006ca6:	bd10      	pop	{r4, pc}

08006ca8 <memmove>:
 8006ca8:	4288      	cmp	r0, r1
 8006caa:	b510      	push	{r4, lr}
 8006cac:	eb01 0402 	add.w	r4, r1, r2
 8006cb0:	d902      	bls.n	8006cb8 <memmove+0x10>
 8006cb2:	4284      	cmp	r4, r0
 8006cb4:	4623      	mov	r3, r4
 8006cb6:	d807      	bhi.n	8006cc8 <memmove+0x20>
 8006cb8:	1e43      	subs	r3, r0, #1
 8006cba:	42a1      	cmp	r1, r4
 8006cbc:	d008      	beq.n	8006cd0 <memmove+0x28>
 8006cbe:	f811 2b01 	ldrb.w	r2, [r1], #1
 8006cc2:	f803 2f01 	strb.w	r2, [r3, #1]!
 8006cc6:	e7f8      	b.n	8006cba <memmove+0x12>
 8006cc8:	4601      	mov	r1, r0
 8006cca:	4402      	add	r2, r0
 8006ccc:	428a      	cmp	r2, r1
 8006cce:	d100      	bne.n	8006cd2 <memmove+0x2a>
 8006cd0:	bd10      	pop	{r4, pc}
 8006cd2:	f813 4d01 	ldrb.w	r4, [r3, #-1]!
 8006cd6:	f802 4d01 	strb.w	r4, [r2, #-1]!
 8006cda:	e7f7      	b.n	8006ccc <memmove+0x24>

08006cdc <memset>:
 8006cdc:	4603      	mov	r3, r0
 8006cde:	4402      	add	r2, r0
 8006ce0:	4293      	cmp	r3, r2
 8006ce2:	d100      	bne.n	8006ce6 <memset+0xa>
 8006ce4:	4770      	bx	lr
 8006ce6:	f803 1b01 	strb.w	r1, [r3], #1
 8006cea:	e7f9      	b.n	8006ce0 <memset+0x4>

08006cec <_free_r>:
 8006cec:	b538      	push	{r3, r4, r5, lr}
 8006cee:	4605      	mov	r5, r0
 8006cf0:	2900      	cmp	r1, #0
 8006cf2:	d040      	beq.n	8006d76 <_free_r+0x8a>
 8006cf4:	f851 3c04 	ldr.w	r3, [r1, #-4]
 8006cf8:	1f0c      	subs	r4, r1, #4
 8006cfa:	2b00      	cmp	r3, #0
 8006cfc:	bfb8      	it	lt
 8006cfe:	18e4      	addlt	r4, r4, r3
 8006d00:	f000 f924 	bl	8006f4c <__malloc_lock>
 8006d04:	4a1c      	ldr	r2, [pc, #112]	; (8006d78 <_free_r+0x8c>)
 8006d06:	6813      	ldr	r3, [r2, #0]
 8006d08:	b933      	cbnz	r3, 8006d18 <_free_r+0x2c>
 8006d0a:	6063      	str	r3, [r4, #4]
 8006d0c:	6014      	str	r4, [r2, #0]
 8006d0e:	4628      	mov	r0, r5
 8006d10:	e8bd 4038 	ldmia.w	sp!, {r3, r4, r5, lr}
 8006d14:	f000 b920 	b.w	8006f58 <__malloc_unlock>
 8006d18:	42a3      	cmp	r3, r4
 8006d1a:	d908      	bls.n	8006d2e <_free_r+0x42>
 8006d1c:	6820      	ldr	r0, [r4, #0]
 8006d1e:	1821      	adds	r1, r4, r0
 8006d20:	428b      	cmp	r3, r1
 8006d22:	bf01      	itttt	eq
 8006d24:	6819      	ldreq	r1, [r3, #0]
 8006d26:	685b      	ldreq	r3, [r3, #4]
 8006d28:	1809      	addeq	r1, r1, r0
 8006d2a:	6021      	streq	r1, [r4, #0]
 8006d2c:	e7ed      	b.n	8006d0a <_free_r+0x1e>
 8006d2e:	461a      	mov	r2, r3
 8006d30:	685b      	ldr	r3, [r3, #4]
 8006d32:	b10b      	cbz	r3, 8006d38 <_free_r+0x4c>
 8006d34:	42a3      	cmp	r3, r4
 8006d36:	d9fa      	bls.n	8006d2e <_free_r+0x42>
 8006d38:	6811      	ldr	r1, [r2, #0]
 8006d3a:	1850      	adds	r0, r2, r1
 8006d3c:	42a0      	cmp	r0, r4
 8006d3e:	d10b      	bne.n	8006d58 <_free_r+0x6c>
 8006d40:	6820      	ldr	r0, [r4, #0]
 8006d42:	4401      	add	r1, r0
 8006d44:	1850      	adds	r0, r2, r1
 8006d46:	4283      	cmp	r3, r0
 8006d48:	6011      	str	r1, [r2, #0]
 8006d4a:	d1e0      	bne.n	8006d0e <_free_r+0x22>
 8006d4c:	6818      	ldr	r0, [r3, #0]
 8006d4e:	685b      	ldr	r3, [r3, #4]
 8006d50:	4401      	add	r1, r0
 8006d52:	6011      	str	r1, [r2, #0]
 8006d54:	6053      	str	r3, [r2, #4]
 8006d56:	e7da      	b.n	8006d0e <_free_r+0x22>
 8006d58:	d902      	bls.n	8006d60 <_free_r+0x74>
 8006d5a:	230c      	movs	r3, #12
 8006d5c:	602b      	str	r3, [r5, #0]
 8006d5e:	e7d6      	b.n	8006d0e <_free_r+0x22>
 8006d60:	6820      	ldr	r0, [r4, #0]
 8006d62:	1821      	adds	r1, r4, r0
 8006d64:	428b      	cmp	r3, r1
 8006d66:	bf01      	itttt	eq
 8006d68:	6819      	ldreq	r1, [r3, #0]
 8006d6a:	685b      	ldreq	r3, [r3, #4]
 8006d6c:	1809      	addeq	r1, r1, r0
 8006d6e:	6021      	streq	r1, [r4, #0]
 8006d70:	6063      	str	r3, [r4, #4]
 8006d72:	6054      	str	r4, [r2, #4]
 8006d74:	e7cb      	b.n	8006d0e <_free_r+0x22>
 8006d76:	bd38      	pop	{r3, r4, r5, pc}
 8006d78:	20000440 	.word	0x20000440

08006d7c <sbrk_aligned>:
 8006d7c:	b570      	push	{r4, r5, r6, lr}
 8006d7e:	4e0e      	ldr	r6, [pc, #56]	; (8006db8 <sbrk_aligned+0x3c>)
 8006d80:	460c      	mov	r4, r1
 8006d82:	6831      	ldr	r1, [r6, #0]
 8006d84:	4605      	mov	r5, r0
 8006d86:	b911      	cbnz	r1, 8006d8e <sbrk_aligned+0x12>
 8006d88:	f000 f88c 	bl	8006ea4 <_sbrk_r>
 8006d8c:	6030      	str	r0, [r6, #0]
 8006d8e:	4621      	mov	r1, r4
 8006d90:	4628      	mov	r0, r5
 8006d92:	f000 f887 	bl	8006ea4 <_sbrk_r>
 8006d96:	1c43      	adds	r3, r0, #1
 8006d98:	d00a      	beq.n	8006db0 <sbrk_aligned+0x34>
 8006d9a:	1cc4      	adds	r4, r0, #3
 8006d9c:	f024 0403 	bic.w	r4, r4, #3
 8006da0:	42a0      	cmp	r0, r4
 8006da2:	d007      	beq.n	8006db4 <sbrk_aligned+0x38>
 8006da4:	1a21      	subs	r1, r4, r0
 8006da6:	4628      	mov	r0, r5
 8006da8:	f000 f87c 	bl	8006ea4 <_sbrk_r>
 8006dac:	3001      	adds	r0, #1
 8006dae:	d101      	bne.n	8006db4 <sbrk_aligned+0x38>
 8006db0:	f04f 34ff 	mov.w	r4, #4294967295
 8006db4:	4620      	mov	r0, r4
 8006db6:	bd70      	pop	{r4, r5, r6, pc}
 8006db8:	20000444 	.word	0x20000444

08006dbc <_malloc_r>:
 8006dbc:	e92d 41f0 	stmdb	sp!, {r4, r5, r6, r7, r8, lr}
 8006dc0:	1ccd      	adds	r5, r1, #3
 8006dc2:	f025 0503 	bic.w	r5, r5, #3
 8006dc6:	3508      	adds	r5, #8
 8006dc8:	2d0c      	cmp	r5, #12
 8006dca:	bf38      	it	cc
 8006dcc:	250c      	movcc	r5, #12
 8006dce:	2d00      	cmp	r5, #0
 8006dd0:	4607      	mov	r7, r0
 8006dd2:	db01      	blt.n	8006dd8 <_malloc_r+0x1c>
 8006dd4:	42a9      	cmp	r1, r5
 8006dd6:	d905      	bls.n	8006de4 <_malloc_r+0x28>
 8006dd8:	230c      	movs	r3, #12
 8006dda:	2600      	movs	r6, #0
 8006ddc:	603b      	str	r3, [r7, #0]
 8006dde:	4630      	mov	r0, r6
 8006de0:	e8bd 81f0 	ldmia.w	sp!, {r4, r5, r6, r7, r8, pc}
 8006de4:	4e2e      	ldr	r6, [pc, #184]	; (8006ea0 <_malloc_r+0xe4>)
 8006de6:	f000 f8b1 	bl	8006f4c <__malloc_lock>
 8006dea:	6833      	ldr	r3, [r6, #0]
 8006dec:	461c      	mov	r4, r3
 8006dee:	bb34      	cbnz	r4, 8006e3e <_malloc_r+0x82>
 8006df0:	4629      	mov	r1, r5
 8006df2:	4638      	mov	r0, r7
 8006df4:	f7ff ffc2 	bl	8006d7c <sbrk_aligned>
 8006df8:	1c43      	adds	r3, r0, #1
 8006dfa:	4604      	mov	r4, r0
 8006dfc:	d14d      	bne.n	8006e9a <_malloc_r+0xde>
 8006dfe:	6834      	ldr	r4, [r6, #0]
 8006e00:	4626      	mov	r6, r4
 8006e02:	2e00      	cmp	r6, #0
 8006e04:	d140      	bne.n	8006e88 <_malloc_r+0xcc>
 8006e06:	6823      	ldr	r3, [r4, #0]
 8006e08:	4631      	mov	r1, r6
 8006e0a:	4638      	mov	r0, r7
 8006e0c:	eb04 0803 	add.w	r8, r4, r3
 8006e10:	f000 f848 	bl	8006ea4 <_sbrk_r>
 8006e14:	4580      	cmp	r8, r0
 8006e16:	d13a      	bne.n	8006e8e <_malloc_r+0xd2>
 8006e18:	6821      	ldr	r1, [r4, #0]
 8006e1a:	3503      	adds	r5, #3
 8006e1c:	1a6d      	subs	r5, r5, r1
 8006e1e:	f025 0503 	bic.w	r5, r5, #3
 8006e22:	3508      	adds	r5, #8
 8006e24:	2d0c      	cmp	r5, #12
 8006e26:	bf38      	it	cc
 8006e28:	250c      	movcc	r5, #12
 8006e2a:	4638      	mov	r0, r7
 8006e2c:	4629      	mov	r1, r5
 8006e2e:	f7ff ffa5 	bl	8006d7c <sbrk_aligned>
 8006e32:	3001      	adds	r0, #1
 8006e34:	d02b      	beq.n	8006e8e <_malloc_r+0xd2>
 8006e36:	6823      	ldr	r3, [r4, #0]
 8006e38:	442b      	add	r3, r5
 8006e3a:	6023      	str	r3, [r4, #0]
 8006e3c:	e00e      	b.n	8006e5c <_malloc_r+0xa0>
 8006e3e:	6822      	ldr	r2, [r4, #0]
 8006e40:	1b52      	subs	r2, r2, r5
 8006e42:	d41e      	bmi.n	8006e82 <_malloc_r+0xc6>
 8006e44:	2a0b      	cmp	r2, #11
 8006e46:	d916      	bls.n	8006e76 <_malloc_r+0xba>
 8006e48:	1961      	adds	r1, r4, r5
 8006e4a:	42a3      	cmp	r3, r4
 8006e4c:	6025      	str	r5, [r4, #0]
 8006e4e:	bf18      	it	ne
 8006e50:	6059      	strne	r1, [r3, #4]
 8006e52:	6863      	ldr	r3, [r4, #4]
 8006e54:	bf08      	it	eq
 8006e56:	6031      	streq	r1, [r6, #0]
 8006e58:	5162      	str	r2, [r4, r5]
 8006e5a:	604b      	str	r3, [r1, #4]
 8006e5c:	4638      	mov	r0, r7
 8006e5e:	f104 060b 	add.w	r6, r4, #11
 8006e62:	f000 f879 	bl	8006f58 <__malloc_unlock>
 8006e66:	f026 0607 	bic.w	r6, r6, #7
 8006e6a:	1d23      	adds	r3, r4, #4
 8006e6c:	1af2      	subs	r2, r6, r3
 8006e6e:	d0b6      	beq.n	8006dde <_malloc_r+0x22>
 8006e70:	1b9b      	subs	r3, r3, r6
 8006e72:	50a3      	str	r3, [r4, r2]
 8006e74:	e7b3      	b.n	8006dde <_malloc_r+0x22>
 8006e76:	6862      	ldr	r2, [r4, #4]
 8006e78:	42a3      	cmp	r3, r4
 8006e7a:	bf0c      	ite	eq
 8006e7c:	6032      	streq	r2, [r6, #0]
 8006e7e:	605a      	strne	r2, [r3, #4]
 8006e80:	e7ec      	b.n	8006e5c <_malloc_r+0xa0>
 8006e82:	4623      	mov	r3, r4
 8006e84:	6864      	ldr	r4, [r4, #4]
 8006e86:	e7b2      	b.n	8006dee <_malloc_r+0x32>
 8006e88:	4634      	mov	r4, r6
 8006e8a:	6876      	ldr	r6, [r6, #4]
 8006e8c:	e7b9      	b.n	8006e02 <_malloc_r+0x46>
 8006e8e:	230c      	movs	r3, #12
 8006e90:	4638      	mov	r0, r7
 8006e92:	603b      	str	r3, [r7, #0]
 8006e94:	f000 f860 	bl	8006f58 <__malloc_unlock>
 8006e98:	e7a1      	b.n	8006dde <_malloc_r+0x22>
 8006e9a:	6025      	str	r5, [r4, #0]
 8006e9c:	e7de      	b.n	8006e5c <_malloc_r+0xa0>
 8006e9e:	bf00      	nop
 8006ea0:	20000440 	.word	0x20000440

08006ea4 <_sbrk_r>:
 8006ea4:	b538      	push	{r3, r4, r5, lr}
 8006ea6:	2300      	movs	r3, #0
 8006ea8:	4d05      	ldr	r5, [pc, #20]	; (8006ec0 <_sbrk_r+0x1c>)
 8006eaa:	4604      	mov	r4, r0
 8006eac:	4608      	mov	r0, r1
 8006eae:	602b      	str	r3, [r5, #0]
 8006eb0:	f7fd f8cc 	bl	800404c <_sbrk>
 8006eb4:	1c43      	adds	r3, r0, #1
 8006eb6:	d102      	bne.n	8006ebe <_sbrk_r+0x1a>
 8006eb8:	682b      	ldr	r3, [r5, #0]
 8006eba:	b103      	cbz	r3, 8006ebe <_sbrk_r+0x1a>
 8006ebc:	6023      	str	r3, [r4, #0]
 8006ebe:	bd38      	pop	{r3, r4, r5, pc}
 8006ec0:	20000448 	.word	0x20000448

08006ec4 <_raise_r>:
 8006ec4:	291f      	cmp	r1, #31
 8006ec6:	b538      	push	{r3, r4, r5, lr}
 8006ec8:	4604      	mov	r4, r0
 8006eca:	460d      	mov	r5, r1
 8006ecc:	d904      	bls.n	8006ed8 <_raise_r+0x14>
 8006ece:	2316      	movs	r3, #22
 8006ed0:	6003      	str	r3, [r0, #0]
 8006ed2:	f04f 30ff 	mov.w	r0, #4294967295
 8006ed6:	bd38      	pop	{r3, r4, r5, pc}
 8006ed8:	6c42      	ldr	r2, [r0, #68]	; 0x44
 8006eda:	b112      	cbz	r2, 8006ee2 <_raise_r+0x1e>
 8006edc:	f852 3021 	ldr.w	r3, [r2, r1, lsl #2]
 8006ee0:	b94b      	cbnz	r3, 8006ef6 <_raise_r+0x32>
 8006ee2:	4620      	mov	r0, r4
 8006ee4:	f000 f830 	bl	8006f48 <_getpid_r>
 8006ee8:	462a      	mov	r2, r5
 8006eea:	4601      	mov	r1, r0
 8006eec:	4620      	mov	r0, r4
 8006eee:	e8bd 4038 	ldmia.w	sp!, {r3, r4, r5, lr}
 8006ef2:	f000 b817 	b.w	8006f24 <_kill_r>
 8006ef6:	2b01      	cmp	r3, #1
 8006ef8:	d00a      	beq.n	8006f10 <_raise_r+0x4c>
 8006efa:	1c59      	adds	r1, r3, #1
 8006efc:	d103      	bne.n	8006f06 <_raise_r+0x42>
 8006efe:	2316      	movs	r3, #22
 8006f00:	6003      	str	r3, [r0, #0]
 8006f02:	2001      	movs	r0, #1
 8006f04:	e7e7      	b.n	8006ed6 <_raise_r+0x12>
 8006f06:	2400      	movs	r4, #0
 8006f08:	4628      	mov	r0, r5
 8006f0a:	f842 4025 	str.w	r4, [r2, r5, lsl #2]
 8006f0e:	4798      	blx	r3
 8006f10:	2000      	movs	r0, #0
 8006f12:	e7e0      	b.n	8006ed6 <_raise_r+0x12>

08006f14 <raise>:
 8006f14:	4b02      	ldr	r3, [pc, #8]	; (8006f20 <raise+0xc>)
 8006f16:	4601      	mov	r1, r0
 8006f18:	6818      	ldr	r0, [r3, #0]
 8006f1a:	f7ff bfd3 	b.w	8006ec4 <_raise_r>
 8006f1e:	bf00      	nop
 8006f20:	20000018 	.word	0x20000018

08006f24 <_kill_r>:
 8006f24:	b538      	push	{r3, r4, r5, lr}
 8006f26:	2300      	movs	r3, #0
 8006f28:	4d06      	ldr	r5, [pc, #24]	; (8006f44 <_kill_r+0x20>)
 8006f2a:	4604      	mov	r4, r0
 8006f2c:	4608      	mov	r0, r1
 8006f2e:	4611      	mov	r1, r2
 8006f30:	602b      	str	r3, [r5, #0]
 8006f32:	f7fd f87d 	bl	8004030 <_kill>
 8006f36:	1c43      	adds	r3, r0, #1
 8006f38:	d102      	bne.n	8006f40 <_kill_r+0x1c>
 8006f3a:	682b      	ldr	r3, [r5, #0]
 8006f3c:	b103      	cbz	r3, 8006f40 <_kill_r+0x1c>
 8006f3e:	6023      	str	r3, [r4, #0]
 8006f40:	bd38      	pop	{r3, r4, r5, pc}
 8006f42:	bf00      	nop
 8006f44:	20000448 	.word	0x20000448

08006f48 <_getpid_r>:
 8006f48:	f7fd b870 	b.w	800402c <_getpid>

08006f4c <__malloc_lock>:
 8006f4c:	4801      	ldr	r0, [pc, #4]	; (8006f54 <__malloc_lock+0x8>)
 8006f4e:	f000 b809 	b.w	8006f64 <__retarget_lock_acquire_recursive>
 8006f52:	bf00      	nop
 8006f54:	2000044c 	.word	0x2000044c

08006f58 <__malloc_unlock>:
 8006f58:	4801      	ldr	r0, [pc, #4]	; (8006f60 <__malloc_unlock+0x8>)
 8006f5a:	f000 b804 	b.w	8006f66 <__retarget_lock_release_recursive>
 8006f5e:	bf00      	nop
 8006f60:	2000044c 	.word	0x2000044c

08006f64 <__retarget_lock_acquire_recursive>:
 8006f64:	4770      	bx	lr

08006f66 <__retarget_lock_release_recursive>:
 8006f66:	4770      	bx	lr

08006f68 <_Unwind_GetDataRelBase>:
 8006f68:	b508      	push	{r3, lr}
 8006f6a:	f7ff fe4d 	bl	8006c08 <abort>

08006f6e <_Unwind_GetTextRelBase>:
 8006f6e:	b508      	push	{r3, lr}
 8006f70:	f7ff fffa 	bl	8006f68 <_Unwind_GetDataRelBase>

08006f74 <_init>:
 8006f74:	b5f8      	push	{r3, r4, r5, r6, r7, lr}
 8006f76:	bf00      	nop
 8006f78:	bcf8      	pop	{r3, r4, r5, r6, r7}
 8006f7a:	bc08      	pop	{r3}
 8006f7c:	469e      	mov	lr, r3
 8006f7e:	4770      	bx	lr

08006f80 <_fini>:
 8006f80:	b5f8      	push	{r3, r4, r5, r6, r7, lr}
 8006f82:	bf00      	nop
 8006f84:	bcf8      	pop	{r3, r4, r5, r6, r7}
 8006f86:	bc08      	pop	{r3}
 8006f88:	469e      	mov	lr, r3
 8006f8a:	4770      	bx	lr
